(dp0
S'blood_pressure'
p1
S'no data'
p2
sS'imu_head'
p3
(dp4
S'yaw'
p5
F12.781953377380312
sS'roll'
p6
F17.883854923229062
sS'pitch'
p7
F10.29478751140312
ssS'heart_rate'
p8
F81.98174506038882
sS'imu_torso'
p9
(dp10
g5
F6.735338344932805
sg6
F5.625137806360298
sg7
F12.245211743688461
ssS'steplength'
p11
g2
sS'timestamp'
p12
cdatetime
datetime
p13
(S'\x07\xe2\x01\x1e\x1691\n\xa6\x90'
p14
tp15
Rp16
sS'speed'
p17
g2
sS'cadence'
p18
g2
s.(dp0
S'blood_pressure'
p1
S'no data'
p2
sS'imu_head'
p3
(dp4
S'yaw'
p5
F13.138226204075723
sS'roll'
p6
F6.625985745189043
sS'pitch'
p7
F16.13220012135386
ssS'heart_rate'
p8
F44.58178991265112
sS'imu_torso'
p9
(dp10
g5
F12.967652866122384
sg6
F3.4872577831627782
sg7
F2.0488236500781554
ssS'steplength'
p11
g2
sS'timestamp'
p12
cdatetime
datetime
p13
(S'\x07\xe2\x01\x1e\x1692\n{\x98'
p14
tp15
Rp16
sS'speed'
p17
g2
sS'cadence'
p18
g2
s.(dp0
S'blood_pressure'
p1
S'no data'
p2
sS'imu_head'
p3
(dp4
S'yaw'
p5
F18.198392432135616
sS'roll'
p6
F7.9776546862424365
sS'pitch'
p7
F13.038050907824552
ssS'heart_rate'
p8
F5.366082776380088
sS'imu_torso'
p9
(dp10
g5
F16.47680375822678
sg6
F18.158825424131972
sg7
F16.110926129720657
ssS'steplength'
p11
g2
sS'timestamp'
p12
cdatetime
datetime
p13
(S'\x07\xe2\x01\x1e\x1693\n\x8f '
p14
tp15
Rp16
sS'speed'
p17
g2
sS'cadence'
p18
g2
s.(dp0
S'blood_pressure'
p1
S'no data'
p2
sS'imu_head'
p3
(dp4
S'yaw'
p5
F1.729953370833024
sS'roll'
p6
F2.0886272806324047
sS'pitch'
p7
F12.943865339309959
ssS'heart_rate'
p8
F95.03385502579182
sS'imu_torso'
p9
(dp10
g5
F3.868138644172394
sg6
F2.1339983735862167
sg7
F14.483104166698746
ssS'steplength'
p11
g2
sS'timestamp'
p12
cdatetime
datetime
p13
(S'\x07\xe2\x01\x1e\x1694\n\x96\xf0'
p14
tp15
Rp16
sS'speed'
p17
g2
sS'cadence'
p18
g2
s.(dp0
S'blood_pressure'
p1
S'no data'
p2
sS'imu_head'
p3
(dp4
S'yaw'
p5
F9.266807333748568
sS'roll'
p6
F18.246746688387134
sS'pitch'
p7
F11.542759505795859
ssS'heart_rate'
p8
F4.406143801728424
sS'imu_torso'
p9
(dp10
g5
F4.163225237402985
sg6
F8.073777747238292
sg7
F19.479031259808448
ssS'steplength'
p11
g2
sS'timestamp'
p12
cdatetime
datetime
p13
(S'\x07\xe2\x01\x1e\x1695\n\x9e\xc0'
p14
tp15
Rp16
sS'speed'
p17
g2
sS'cadence'
p18
g2
s.(dp0
S'blood_pressure'
p1
S'no data'
p2
sS'imu_head'
p3
(dp4
S'yaw'
p5
F3.689448643181872
sS'roll'
p6
F1.9780165256310922
sS'pitch'
p7
F3.0029064388392546
ssS'heart_rate'
p8
F1.465854148742729
sS'imu_torso'
p9
(dp10
g5
F3.931391906411683
sg6
F7.635035190875286
sg7
F5.8699936688260745
ssS'steplength'
p11
g2
sS'timestamp'
p12
cdatetime
datetime
p13
(S'\x07\xe2\x01\x1e\x1696\n\xa6\x90'
p14
tp15
Rp16
sS'speed'
p17
g2
sS'cadence'
p18
g2
s.(dp0
S'blood_pressure'
p1
S'no data'
p2
sS'imu_head'
p3
(dp4
S'yaw'
p5
F16.546492762837723
sS'roll'
p6
F18.875296986326646
sS'pitch'
p7
F13.212962964464495
ssS'heart_rate'
p8
F26.654792714093734
sS'imu_torso'
p9
(dp10
g5
F7.0425880860365915
sg6
F19.724681551803492
sg7
F19.86087803863732
ssS'steplength'
p11
g2
sS'timestamp'
p12
cdatetime
datetime
p13
(S'\x07\xe2\x01\x1e\x1697\n\xae`'
p14
tp15
Rp16
sS'speed'
p17
g2
sS'cadence'
p18
g2
s.(dp0
S'blood_pressure'
p1
S'no data'
p2
sS'imu_head'
p3
(dp4
S'yaw'
p5
F9.289690733327841
sS'roll'
p6
F13.588452803727733
sS'pitch'
p7
F2.596934164399367
ssS'heart_rate'
p8
F38.52189866465741
sS'imu_torso'
p9
(dp10
g5
F19.569559754922164
sg6
F13.695550403593566
sg7
F17.62315826091696
ssS'steplength'
p11
g2
sS'timestamp'
p12
cdatetime
datetime
p13
(S'\x07\xe2\x01\x1e\x1698\n\xb60'
p14
tp15
Rp16
sS'speed'
p17
g2
sS'cadence'
p18
g2
s.(dp0
S'blood_pressure'
p1
S'no data'
p2
sS'imu_head'
p3
(dp4
S'yaw'
p5
F12.32464115205984
sS'roll'
p6
F10.285247967964118
sS'pitch'
p7
F12.81938672489815
ssS'heart_rate'
p8
F70.24382647798518
sS'imu_torso'
p9
(dp10
g5
F16.618155760000466
sg6
F4.1455036074707525
sg7
F0.9079294015777584
ssS'steplength'
p11
g2
sS'timestamp'
p12
cdatetime
datetime
p13
(S'\x07\xe2\x01\x1e\x1699\n\xc1\xe8'
p14
tp15
Rp16
sS'speed'
p17
g2
sS'cadence'
p18
g2
s.(dp0
S'blood_pressure'
p1
S'no data'
p2
sS'imu_head'
p3
(dp4
S'yaw'
p5
F0.5130394302570296
sS'roll'
p6
F16.360385624238894
sS'pitch'
p7
F14.903613632585886
ssS'heart_rate'
p8
F54.810909195980614
sS'imu_torso'
p9
(dp10
g5
F4.618784900533344
sg6
F18.283834094984556
sg7
F8.848156229420706
ssS'steplength'
p11
g2
sS'timestamp'
p12
cdatetime
datetime
p13
(S'\x07\xe2\x01\x1e\x169:\n\xc9\xb8'
p14
tp15
Rp16
sS'speed'
p17
g2
sS'cadence'
p18
g2
s.(dp0
S'blood_pressure'
p1
S'no data'
p2
sS'imu_head'
p3
(dp4
S'yaw'
p5
F14.183073252607732
sS'roll'
p6
F2.166835897948227
sS'pitch'
p7
F4.008216223084242
ssS'heart_rate'
p8
F54.34925062557927
sS'imu_torso'
p9
(dp10
g5
F11.276949461768446
sg6
F4.628412402972226
sg7
F0.06302947672860881
ssS'steplength'
p11
g2
sS'timestamp'
p12
cdatetime
datetime
p13
(S'\x07\xe2\x01\x1e\x169;\n\xd5p'
p14
tp15
Rp16
sS'speed'
p17
g2
sS'cadence'
p18
g2
s.(dp0
S'blood_pressure'
p1
S'no data'
p2
sS'imu_head'
p3
(dp4
S'yaw'
p5
F14.028204214555995
sS'roll'
p6
F13.136028289085505
sS'pitch'
p7
F13.938897880314569
ssS'heart_rate'
p8
F9.974159404262616
sS'imu_torso'
p9
(dp10
g5
F2.902082997205866
sg6
F1.201530816083225
sg7
F0.2813873502413866
ssS'steplength'
p11
g2
sS'timestamp'
p12
cdatetime
datetime
p13
(S'\x07\xe2\x01\x1e\x16:\x00\n\xdd@'
p14
tp15
Rp16
sS'speed'
p17
g2
sS'cadence'
p18
g2
s.(dp0
S'blood_pressure'
p1
S'no data'
p2
sS'imu_head'
p3
(dp4
S'yaw'
p5
F12.19229948766763
sS'roll'
p6
F4.872009532712425
sS'pitch'
p7
F19.650792419573545
ssS'heart_rate'
p8
F3.131732139666754
sS'imu_torso'
p9
(dp10
g5
F12.621716780182
sg6
F5.256452300432882
sg7
F3.4509534316954316
ssS'steplength'
p11
g2
sS'timestamp'
p12
cdatetime
datetime
p13
(S'\x07\xe2\x01\x1e\x16:\x01\n\xe8\xf8'
p14
tp15
Rp16
sS'speed'
p17
g2
sS'cadence'
p18
g2
s.(dp0
S'blood_pressure'
p1
S'no data'
p2
sS'imu_head'
p3
(dp4
S'yaw'
p5
F19.176706027337875
sS'roll'
p6
F8.315477832591592
sS'pitch'
p7
F9.220906132475266
ssS'heart_rate'
p8
F99.66154996764381
sS'imu_torso'
p9
(dp10
g5
F1.4197253146777222
sg6
F4.4637376994762334
sg7
F2.9764136959911736
ssS'steplength'
p11
g2
sS'timestamp'
p12
cdatetime
datetime
p13
(S'\x07\xe2\x01\x1e\x16:\x02\n\xf0\xc8'
p14
tp15
Rp16
sS'speed'
p17
g2
sS'cadence'
p18
g2
s.(dp0
S'blood_pressure'
p1
S'no data'
p2
sS'imu_head'
p3
(dp4
S'yaw'
p5
F17.745626565568415
sS'roll'
p6
F15.804316773592932
sS'pitch'
p7
F12.901837565728302
ssS'heart_rate'
p8
F67.25074846055271
sS'imu_torso'
p9
(dp10
g5
F12.936352002917126
sg6
F18.30723712555685
sg7
F17.127350127588834
ssS'steplength'
p11
g2
sS'timestamp'
p12
cdatetime
datetime
p13
(S'\x07\xe2\x01\x1e\x16:\x03\n\xf8\x98'
p14
tp15
Rp16
sS'speed'
p17
g2
sS'cadence'
p18
g2
s.(dp0
S'blood_pressure'
p1
S'no data'
p2
sS'imu_head'
p3
(dp4
S'yaw'
p5
F18.525566938301527
sS'roll'
p6
F2.3094794258901308
sS'pitch'
p7
F17.14283332089739
ssS'heart_rate'
p8
F56.46142173505512
sS'imu_torso'
p9
(dp10
g5
F4.434226874888698
sg6
F6.777586064076755
sg7
F3.2336913114181565
ssS'steplength'
p11
g2
sS'timestamp'
p12
cdatetime
datetime
p13
(S'\x07\xe2\x01\x1e\x16:\x04\x0b\x04P'
p14
tp15
Rp16
sS'speed'
p17
g2
sS'cadence'
p18
g2
s.(dp0
S'blood_pressure'
p1
S'no data'
p2
sS'imu_head'
p3
(dp4
S'yaw'
p5
F11.419183456324234
sS'roll'
p6
F0.5053531137016165
sS'pitch'
p7
F13.226384826179691
ssS'heart_rate'
p8
F45.003964524048655
sS'imu_torso'
p9
(dp10
g5
F17.558301932984
sg6
F17.161249705539454
sg7
F8.394658763651195
ssS'steplength'
p11
g2
sS'timestamp'
p12
cdatetime
datetime
p13
(S'\x07\xe2\x01\x1e\x16:\x05\x0b\x0c '
p14
tp15
Rp16
sS'speed'
p17
g2
sS'cadence'
p18
g2
s.(dp0
S'blood_pressure'
p1
S'no data'
p2
sS'imu_head'
p3
(dp4
S'yaw'
p5
F12.740235362009017
sS'roll'
p6
F9.276124655892362
sS'pitch'
p7
F4.765326196674016
ssS'heart_rate'
p8
F59.2126501396394
sS'imu_torso'
p9
(dp10
g5
F11.939848449412715
sg6
F18.43607311791803
sg7
F18.088505013510446
ssS'steplength'
p11
g2
sS'timestamp'
p12
cdatetime
datetime
p13
(S'\x07\xe2\x01\x1e\x16:\x06\x0b\x13\xf0'
p14
tp15
Rp16
sS'speed'
p17
g2
sS'cadence'
p18
g2
s.(dp0
S'blood_pressure'
p1
S'no data'
p2
sS'imu_head'
p3
(dp4
S'yaw'
p5
F5.049304506248699
sS'roll'
p6
F6.7402848258470875
sS'pitch'
p7
F8.57398931606292
ssS'heart_rate'
p8
F61.88289539812959
sS'imu_torso'
p9
(dp10
g5
F2.610014618685783
sg6
F12.116850223106843
sg7
F4.208538507463118
ssS'steplength'
p11
g2
sS'timestamp'
p12
cdatetime
datetime
p13
(S'\x07\xe2\x01\x1e\x16:\x07\x0b\x1f\xa8'
p14
tp15
Rp16
sS'speed'
p17
g2
sS'cadence'
p18
g2
s.(dp0
S'blood_pressure'
p1
S'no data'
p2
sS'imu_head'
p3
(dp4
S'yaw'
p5
F3.3207615047486305
sS'roll'
p6
F11.039046089079402
sS'pitch'
p7
F15.231548772460943
ssS'heart_rate'
p8
F5.152860457255715
sS'imu_torso'
p9
(dp10
g5
F6.203223089401364
sg6
F14.922593906068109
sg7
F4.810561663763286
ssS'steplength'
p11
g2
sS'timestamp'
p12
cdatetime
datetime
p13
(S"\x07\xe2\x01\x1e\x16:\x08\x0b'x"
p14
tp15
Rp16
sS'speed'
p17
g2
sS'cadence'
p18
g2
s.(dp0
S'blood_pressure'
p1
S'no data'
p2
sS'imu_head'
p3
(dp4
S'yaw'
p5
F4.005242958680675
sS'roll'
p6
F12.528752022369394
sS'pitch'
p7
F18.22287147645643
ssS'heart_rate'
p8
F9.019283719865555
sS'imu_torso'
p9
(dp10
g5
F15.9047651225153
sg6
F16.316405742847973
sg7
F11.949018569144517
ssS'steplength'
p11
g2
sS'timestamp'
p12
cdatetime
datetime
p13
(S'\x07\xe2\x01\x1e\x16:\t\x0b30'
p14
tp15
Rp16
sS'speed'
p17
g2
sS'cadence'
p18
g2
s.(dp0
S'blood_pressure'
p1
S'no data'
p2
sS'imu_head'
p3
(dp4
S'yaw'
p5
F11.809314237181237
sS'roll'
p6
F3.250930954323472
sS'pitch'
p7
F1.110163244414475
ssS'heart_rate'
p8
F81.94363773033906
sS'imu_torso'
p9
(dp10
g5
F13.590947119434905
sg6
F19.446051815337203
sg7
F15.856026180041546
ssS'steplength'
p11
g2
sS'timestamp'
p12
cdatetime
datetime
p13
(S'\x07\xe2\x01\x1e\x16:\n\x0b;\x00'
p14
tp15
Rp16
sS'speed'
p17
g2
sS'cadence'
p18
g2
s.(dp0
S'blood_pressure'
p1
S'no data'
p2
sS'imu_head'
p3
(dp4
S'yaw'
p5
F17.98444765381243
sS'roll'
p6
F16.736846272821484
sS'pitch'
p7
F9.447692970267221
ssS'heart_rate'
p8
F37.54944164339229
sS'imu_torso'
p9
(dp10
g5
F0.2688863778093409
sg6
F19.924326731763685
sg7
F8.02034468487079
ssS'steplength'
p11
g2
sS'timestamp'
p12
cdatetime
datetime
p13
(S'\x07\xe2\x01\x1e\x16:\x0b\x0bF\xb8'
p14
tp15
Rp16
sS'speed'
p17
g2
sS'cadence'
p18
g2
s.(dp0
S'blood_pressure'
p1
S'no data'
p2
sS'imu_head'
p3
(dp4
S'yaw'
p5
F12.69410228631217
sS'roll'
p6
F2.998024092726781
sS'pitch'
p7
F19.752962354056535
ssS'heart_rate'
p8
F64.96693333627697
sS'imu_torso'
p9
(dp10
g5
F10.685782216404702
sg6
F11.342720578456403
sg7
F0.6823672146782389
ssS'steplength'
p11
g2
sS'timestamp'
p12
cdatetime
datetime
p13
(S'\x07\xe2\x01\x1e\x16:\x0c\x0bN\x88'
p14
tp15
Rp16
sS'speed'
p17
g2
sS'cadence'
p18
g2
s.(dp0
S'blood_pressure'
p1
S'no data'
p2
sS'imu_head'
p3
(dp4
S'yaw'
p5
F10.773803704452389
sS'roll'
p6
F7.4316361356522975
sS'pitch'
p7
F17.357006847885895
ssS'heart_rate'
p8
F4.489590438136359
sS'imu_torso'
p9
(dp10
g5
F0.7309434026806239
sg6
F0.6988562942438659
sg7
F14.123430607629944
ssS'steplength'
p11
g2
sS'timestamp'
p12
cdatetime
datetime
p13
(S'\x07\xe2\x01\x1e\x16:\r\x0bZ@'
p14
tp15
Rp16
sS'speed'
p17
g2
sS'cadence'
p18
g2
s.(dp0
S'blood_pressure'
p1
S'no data'
p2
sS'imu_head'
p3
(dp4
S'yaw'
p5
F15.141884379245266
sS'roll'
p6
F13.88112067838753
sS'pitch'
p7
F17.076883765713454
ssS'heart_rate'
p8
F52.36710437159704
sS'imu_torso'
p9
(dp10
g5
F1.393359602738684
sg6
F5.518102801912619
sg7
F15.340864443722404
ssS'steplength'
p11
g2
sS'timestamp'
p12
cdatetime
datetime
p13
(S'\x07\xe2\x01\x1e\x16:\x0e\x0bb\x10'
p14
tp15
Rp16
sS'speed'
p17
g2
sS'cadence'
p18
g2
s.(dp0
S'blood_pressure'
p1
S'no data'
p2
sS'imu_head'
p3
(dp4
S'yaw'
p5
F19.487184962111595
sS'roll'
p6
F18.512924935725877
sS'pitch'
p7
F8.36618005921942
ssS'heart_rate'
p8
F92.0289156151711
sS'imu_torso'
p9
(dp10
g5
F15.237574119099069
sg6
F18.74100847384961
sg7
F0.12080393119667798
ssS'steplength'
p11
g2
sS'timestamp'
p12
cdatetime
datetime
p13
(S'\x07\xe2\x01\x1e\x16:\x0f\x0bi\xe0'
p14
tp15
Rp16
sS'speed'
p17
g2
sS'cadence'
p18
g2
s.(dp0
S'blood_pressure'
p1
S'no data'
p2
sS'imu_head'
p3
(dp4
S'yaw'
p5
F15.40485456880617
sS'roll'
p6
F10.554857809166691
sS'pitch'
p7
F16.988451943073485
ssS'heart_rate'
p8
F97.1596044189728
sS'imu_torso'
p9
(dp10
g5
F1.364569819700765
sg6
F9.766068618023791
sg7
F11.242488883493962
ssS'steplength'
p11
g2
sS'timestamp'
p12
cdatetime
datetime
p13
(S'\x07\xe2\x01\x1e\x16:\x10\x0bi\xe0'
p14
tp15
Rp16
sS'speed'
p17
g2
sS'cadence'
p18
g2
s.(dp0
S'blood_pressure'
p1
S'no data'
p2
sS'imu_head'
p3
(dp4
S'yaw'
p5
F5.276385090059412
sS'roll'
p6
F19.328050926191167
sS'pitch'
p7
F5.455859182234224
ssS'heart_rate'
p8
F65.1249275764608
sS'imu_torso'
p9
(dp10
g5
F10.490984244471305
sg6
F15.423399659487496
sg7
F19.802041173890565
ssS'steplength'
p11
g2
sS'timestamp'
p12
cdatetime
datetime
p13
(S'\x07\xe2\x01\x1e\x16:\x11\x0bu\x98'
p14
tp15
Rp16
sS'speed'
p17
g2
sS'cadence'
p18
g2
s.(dp0
S'blood_pressure'
p1
S'no data'
p2
sS'imu_head'
p3
(dp4
S'yaw'
p5
F19.317589684912985
sS'roll'
p6
F14.696317164903439
sS'pitch'
p7
F13.615658517176506
ssS'heart_rate'
p8
F31.434974576925544
sS'imu_torso'
p9
(dp10
g5
F14.42774772826814
sg6
F2.4177264073997184
sg7
F6.1308076848359665
ssS'steplength'
p11
g2
sS'timestamp'
p12
cdatetime
datetime
p13
(S'\x07\xe2\x01\x1e\x16:\x12\x0b\x858'
p14
tp15
Rp16
sS'speed'
p17
g2
sS'cadence'
p18
g2
s.(dp0
S'blood_pressure'
p1
S'no data'
p2
sS'imu_head'
p3
(dp4
S'yaw'
p5
F10.17392786397396
sS'roll'
p6
F11.234823672065172
sS'pitch'
p7
F15.802343580842868
ssS'heart_rate'
p8
F43.340557266686396
sS'imu_torso'
p9
(dp10
g5
F16.156990201186325
sg6
F17.56134286567801
sg7
F1.269337846759866
ssS'steplength'
p11
g2
sS'timestamp'
p12
cdatetime
datetime
p13
(S'\x07\xe2\x01\x1e\x16:\x13\x0b\x90\xf0'
p14
tp15
Rp16
sS'speed'
p17
g2
sS'cadence'
p18
g2
s.(dp0
S'blood_pressure'
p1
S'no data'
p2
sS'imu_head'
p3
(dp4
S'yaw'
p5
F6.404980762945421
sS'roll'
p6
F8.416741161767028
sS'pitch'
p7
F11.682541756684605
ssS'heart_rate'
p8
F80.8688770153662
sS'imu_torso'
p9
(dp10
g5
F16.149144277665
sg6
F2.501023958895874
sg7
F18.571427393090186
ssS'steplength'
p11
g2
sS'timestamp'
p12
cdatetime
datetime
p13
(S'\x07\xe2\x01\x1e\x16:\x14\x0b\x98\xc0'
p14
tp15
Rp16
sS'speed'
p17
g2
sS'cadence'
p18
g2
s.(dp0
S'blood_pressure'
p1
S'no data'
p2
sS'imu_head'
p3
(dp4
S'yaw'
p5
F17.885685454804637
sS'roll'
p6
F4.002203139194371
sS'pitch'
p7
F2.562429839062328
ssS'heart_rate'
p8
F59.239716216356996
sS'imu_torso'
p9
(dp10
g5
F9.897472689885621
sg6
F4.372459220636909
sg7
F16.32017935194901
ssS'steplength'
p11
g2
sS'timestamp'
p12
cdatetime
datetime
p13
(S'\x07\xe2\x01\x1e\x16:\x15\x0b\x9c\xa8'
p14
tp15
Rp16
sS'speed'
p17
g2
sS'cadence'
p18
g2
s.(dp0
S'blood_pressure'
p1
S'no data'
p2
sS'imu_head'
p3
(dp4
S'yaw'
p5
F18.18039571265574
sS'roll'
p6
F10.984453703302957
sS'pitch'
p7
F8.474028082756266
ssS'heart_rate'
p8
F82.28591094797245
sS'imu_torso'
p9
(dp10
g5
F13.804195452349592
sg6
F18.748124218575253
sg7
F4.4652696318209735
ssS'steplength'
p11
g2
sS'timestamp'
p12
cdatetime
datetime
p13
(S'\x07\xe2\x01\x1e\x16:\x16\x0b\xa8`'
p14
tp15
Rp16
sS'speed'
p17
g2
sS'cadence'
p18
g2
s.(dp0
S'blood_pressure'
p1
S'no data'
p2
sS'imu_head'
p3
(dp4
S'yaw'
p5
F4.630193664720366
sS'roll'
p6
F6.355343986972044
sS'pitch'
p7
F1.8552496715006206
ssS'heart_rate'
p8
F27.371726291945077
sS'imu_torso'
p9
(dp10
g5
F4.949768136228632
sg6
F9.549073989228443
sg7
F9.293508923577473
ssS'steplength'
p11
g2
sS'timestamp'
p12
cdatetime
datetime
p13
(S'\x07\xe2\x01\x1e\x16:\x17\x0b\xb00'
p14
tp15
Rp16
sS'speed'
p17
g2
sS'cadence'
p18
g2
s.(dp0
S'blood_pressure'
p1
S'no data'
p2
sS'imu_head'
p3
(dp4
S'yaw'
p5
F0.66457056967272
sS'roll'
p6
F4.972149617569242
sS'pitch'
p7
F18.946107794706094
ssS'heart_rate'
p8
F65.61293739425108
sS'imu_torso'
p9
(dp10
g5
F0.5498638051742843
sg6
F13.978613138652811
sg7
F12.284481365516955
ssS'steplength'
p11
g2
sS'timestamp'
p12
cdatetime
datetime
p13
(S'\x07\xe2\x01\x1e\x16:\x18\x0b\xbb\xe8'
p14
tp15
Rp16
sS'speed'
p17
g2
sS'cadence'
p18
g2
s.(dp0
S'blood_pressure'
p1
S'no data'
p2
sS'imu_head'
p3
(dp4
S'yaw'
p5
F6.598309009190196
sS'roll'
p6
F12.302123545976794
sS'pitch'
p7
F13.536665643617255
ssS'heart_rate'
p8
F4.8193369375125865
sS'imu_torso'
p9
(dp10
g5
F13.704506326873986
sg6
F8.434565302178461
sg7
F18.559520677534003
ssS'steplength'
p11
g2
sS'timestamp'
p12
cdatetime
datetime
p13
(S'\x07\xe2\x01\x1e\x16:\x19\x0b\xc3\xb8'
p14
tp15
Rp16
sS'speed'
p17
g2
sS'cadence'
p18
g2
s.(dp0
S'blood_pressure'
p1
S'no data'
p2
sS'imu_head'
p3
(dp4
S'yaw'
p5
F18.96394378308418
sS'roll'
p6
F0.8938479078214079
sS'pitch'
p7
F13.863971435279366
ssS'heart_rate'
p8
F68.04245849408576
sS'imu_torso'
p9
(dp10
g5
F11.298740856813378
sg6
F10.196756752546033
sg7
F17.736923897698944
ssS'steplength'
p11
g2
sS'timestamp'
p12
cdatetime
datetime
p13
(S'\x07\xe2\x01\x1e\x16:\x1a\x0b\xcb\x88'
p14
tp15
Rp16
sS'speed'
p17
g2
sS'cadence'
p18
g2
s.(dp0
S'blood_pressure'
p1
S'no data'
p2
sS'imu_head'
p3
(dp4
S'yaw'
p5
F17.36806162343355
sS'roll'
p6
F0.37525313754932954
sS'pitch'
p7
F9.78857572336831
ssS'heart_rate'
p8
F87.66541633423957
sS'imu_torso'
p9
(dp10
g5
F11.768975049684325
sg6
F3.9848580949770285
sg7
F3.7320700968909715
ssS'steplength'
p11
g2
sS'timestamp'
p12
cdatetime
datetime
p13
(S'\x07\xe2\x01\x1e\x16:\x1b\x0b\xd3X'
p14
tp15
Rp16
sS'speed'
p17
g2
sS'cadence'
p18
g2
s.(dp0
S'blood_pressure'
p1
S'no data'
p2
sS'imu_head'
p3
(dp4
S'yaw'
p5
F3.5550918516020724
sS'roll'
p6
F13.10387325016775
sS'pitch'
p7
F14.224000025447111
ssS'heart_rate'
p8
F64.31911450078188
sS'imu_torso'
p9
(dp10
g5
F19.3876978706229
sg6
F19.231768086960116
sg7
F19.8234403212358
ssS'steplength'
p11
g2
sS'timestamp'
p12
cdatetime
datetime
p13
(S'\x07\xe2\x01\x1e\x16:\x1c\x0b\xdf\x10'
p14
tp15
Rp16
sS'speed'
p17
g2
sS'cadence'
p18
g2
s.(dp0
S'blood_pressure'
p1
S'no data'
p2
sS'imu_head'
p3
(dp4
S'yaw'
p5
F15.014009928970953
sS'roll'
p6
F5.058326975440865
sS'pitch'
p7
F11.798641142617118
ssS'heart_rate'
p8
F0.2420817115590168
sS'imu_torso'
p9
(dp10
g5
F19.795124359358525
sg6
F1.3689042619990754
sg7
F12.671189014685819
ssS'steplength'
p11
g2
sS'timestamp'
p12
cdatetime
datetime
p13
(S'\x07\xe2\x01\x1e\x16:\x1d\x0b\xe6\xe0'
p14
tp15
Rp16
sS'speed'
p17
g2
sS'cadence'
p18
g2
s.(dp0
S'blood_pressure'
p1
S'no data'
p2
sS'imu_head'
p3
(dp4
S'yaw'
p5
F5.576790413985324
sS'roll'
p6
F0.8952002085374233
sS'pitch'
p7
F8.011267460529865
ssS'heart_rate'
p8
F64.25229358444832
sS'imu_torso'
p9
(dp10
g5
F3.783991059785974
sg6
F7.9738349111960165
sg7
F9.627601366219718
ssS'steplength'
p11
g2
sS'timestamp'
p12
cdatetime
datetime
p13
(S'\x07\xe2\x01\x1e\x16:\x1e\x0b\xf2\x98'
p14
tp15
Rp16
sS'speed'
p17
g2
sS'cadence'
p18
g2
s.(dp0
S'blood_pressure'
p1
S'no data'
p2
sS'imu_head'
p3
(dp4
S'yaw'
p5
F7.971909496349605
sS'roll'
p6
F2.7208008105894277
sS'pitch'
p7
F11.58890507775515
ssS'heart_rate'
p8
F33.59367456168858
sS'imu_torso'
p9
(dp10
g5
F2.35591895168505
sg6
F3.893185936628054
sg7
F16.69514880970564
ssS'steplength'
p11
g2
sS'timestamp'
p12
cdatetime
datetime
p13
(S'\x07\xe2\x01\x1e\x16:\x1f\x0b\xfah'
p14
tp15
Rp16
sS'speed'
p17
g2
sS'cadence'
p18
g2
s.(dp0
S'blood_pressure'
p1
S'no data'
p2
sS'imu_head'
p3
(dp4
S'yaw'
p5
F15.098760696068412
sS'roll'
p6
F2.7702847059510893
sS'pitch'
p7
F0.6120250764559443
ssS'heart_rate'
p8
F6.195655126122568
sS'imu_torso'
p9
(dp10
g5
F1.4551883305228275
sg6
F13.174697204586991
sg7
F6.2992947104893755
ssS'steplength'
p11
g2
sS'timestamp'
p12
cdatetime
datetime
p13
(S'\x07\xe2\x01\x1e\x16: \x0c\x06 '
p14
tp15
Rp16
sS'speed'
p17
g2
sS'cadence'
p18
g2
s.(dp0
S'blood_pressure'
p1
S'no data'
p2
sS'imu_head'
p3
(dp4
S'yaw'
p5
F16.919058994236206
sS'roll'
p6
F6.76584680352772
sS'pitch'
p7
F13.064300346977591
ssS'heart_rate'
p8
F15.132471839033101
sS'imu_torso'
p9
(dp10
g5
F7.3735789399014635
sg6
F10.302582793426637
sg7
F3.444626266156554
ssS'steplength'
p11
g2
sS'timestamp'
p12
cdatetime
datetime
p13
(S'\x07\xe2\x01\x1e\x16:!\x0c\r\xf0'
p14
tp15
Rp16
sS'speed'
p17
g2
sS'cadence'
p18
g2
s.(dp0
S'blood_pressure'
p1
S'no data'
p2
sS'imu_head'
p3
(dp4
S'yaw'
p5
F4.095457300556844
sS'roll'
p6
F6.910267749319521
sS'pitch'
p7
F18.98264262446594
ssS'heart_rate'
p8
F38.11704490748775
sS'imu_torso'
p9
(dp10
g5
F14.762372720507884
sg6
F19.579123274242274
sg7
F12.462308577235675
ssS'steplength'
p11
g2
sS'timestamp'
p12
cdatetime
datetime
p13
(S'\x07\xe2\x01\x1e\x16:"\x0c\x11\xd8'
p14
tp15
Rp16
sS'speed'
p17
g2
sS'cadence'
p18
g2
s.(dp0
S'blood_pressure'
p1
S'no data'
p2
sS'imu_head'
p3
(dp4
S'yaw'
p5
F13.509085818400838
sS'roll'
p6
F2.6202167567332446
sS'pitch'
p7
F13.902949462087054
ssS'heart_rate'
p8
F75.72069304435901
sS'imu_torso'
p9
(dp10
g5
F2.1098345865775614
sg6
F17.721745055307412
sg7
F19.24830309447857
ssS'steplength'
p11
g2
sS'timestamp'
p12
cdatetime
datetime
p13
(S'\x07\xe2\x01\x1e\x16:#\x0c\x19\xa8'
p14
tp15
Rp16
sS'speed'
p17
g2
sS'cadence'
p18
g2
s.(dp0
S'blood_pressure'
p1
S'no data'
p2
sS'imu_head'
p3
(dp4
S'yaw'
p5
F6.689757139972034
sS'roll'
p6
F1.6449634469602992
sS'pitch'
p7
F16.286727182522544
ssS'heart_rate'
p8
F9.108218801459145
sS'imu_torso'
p9
(dp10
g5
F7.429075330669224
sg6
F11.536348687742615
sg7
F13.388407153050274
ssS'steplength'
p11
g2
sS'timestamp'
p12
cdatetime
datetime
p13
(S'\x07\xe2\x01\x1e\x16:$\x0c!x'
p14
tp15
Rp16
sS'speed'
p17
g2
sS'cadence'
p18
g2
s.(dp0
S'blood_pressure'
p1
S'no data'
p2
sS'imu_head'
p3
(dp4
S'yaw'
p5
F4.049885964071851
sS'roll'
p6
F4.014705702969501
sS'pitch'
p7
F14.87943517331378
ssS'heart_rate'
p8
F83.9431206009016
sS'imu_torso'
p9
(dp10
g5
F19.23384447349422
sg6
F0.8225702624788744
sg7
F0.7482458627045441
ssS'steplength'
p11
g2
sS'timestamp'
p12
cdatetime
datetime
p13
(S'\x07\xe2\x01\x1e\x16:%\x0c-0'
p14
tp15
Rp16
sS'speed'
p17
g2
sS'cadence'
p18
g2
s.(dp0
S'blood_pressure'
p1
S'no data'
p2
sS'imu_head'
p3
(dp4
S'yaw'
p5
F11.218736295749842
sS'roll'
p6
F4.063006955376814
sS'pitch'
p7
F2.7381400834263503
ssS'heart_rate'
p8
F12.936891690376473
sS'imu_torso'
p9
(dp10
g5
F17.797915429817273
sg6
F8.19903436630331
sg7
F10.283558021069258
ssS'steplength'
p11
g2
sS'timestamp'
p12
cdatetime
datetime
p13
(S'\x07\xe2\x01\x1e\x16:&\x0c5\x00'
p14
tp15
Rp16
sS'speed'
p17
g2
sS'cadence'
p18
g2
s.(dp0
S'blood_pressure'
p1
S'no data'
p2
sS'imu_head'
p3
(dp4
S'yaw'
p5
F3.236703851963354
sS'roll'
p6
F1.9429017317614594
sS'pitch'
p7
F0.610771202701299
ssS'heart_rate'
p8
F74.04134460895226
sS'imu_torso'
p9
(dp10
g5
F4.5534753832637325
sg6
F7.654668744015836
sg7
F7.524370667628624
ssS'steplength'
p11
g2
sS'timestamp'
p12
cdatetime
datetime
p13
(S"\x07\xe2\x01\x1e\x16:'\x0c@\xb8"
p14
tp15
Rp16
sS'speed'
p17
g2
sS'cadence'
p18
g2
s.(dp0
S'blood_pressure'
p1
S'no data'
p2
sS'imu_head'
p3
(dp4
S'yaw'
p5
F7.713196377631995
sS'roll'
p6
F8.529086954123466
sS'pitch'
p7
F10.334657935895791
ssS'heart_rate'
p8
F1.5903184824682004
sS'imu_torso'
p9
(dp10
g5
F10.610081430289501
sg6
F4.8326525075409315
sg7
F13.466766536229947
ssS'steplength'
p11
g2
sS'timestamp'
p12
cdatetime
datetime
p13
(S'\x07\xe2\x01\x1e\x16:(\x0cLp'
p14
tp15
Rp16
sS'speed'
p17
g2
sS'cadence'
p18
g2
s.(dp0
S'blood_pressure'
p1
S'no data'
p2
sS'imu_head'
p3
(dp4
S'yaw'
p5
F3.8597850242587217
sS'roll'
p6
F17.94564759049187
sS'pitch'
p7
F12.373894238894659
ssS'heart_rate'
p8
F95.67897145872254
sS'imu_torso'
p9
(dp10
g5
F6.042489492303127
sg6
F11.238494054037186
sg7
F13.232384057409268
ssS'steplength'
p11
g2
sS'timestamp'
p12
cdatetime
datetime
p13
(S'\x07\xe2\x01\x1e\x16:)\x0cPX'
p14
tp15
Rp16
sS'speed'
p17
g2
sS'cadence'
p18
g2
s.(dp0
S'blood_pressure'
p1
S'no data'
p2
sS'imu_head'
p3
(dp4
S'yaw'
p5
F18.005023600285814
sS'roll'
p6
F7.591756358512443
sS'pitch'
p7
F1.3529909878336421
ssS'heart_rate'
p8
F43.89581165208356
sS'imu_torso'
p9
(dp10
g5
F18.891846105679665
sg6
F4.695197729035334
sg7
F12.078355732533822
ssS'steplength'
p11
g2
sS'timestamp'
p12
cdatetime
datetime
p13
(S'\x07\xe2\x01\x1e\x16:*\x0c\\\x10'
p14
tp15
Rp16
sS'speed'
p17
g2
sS'cadence'
p18
g2
s.(dp0
S'blood_pressure'
p1
S'no data'
p2
sS'imu_head'
p3
(dp4
S'yaw'
p5
F1.0582442057237484
sS'roll'
p6
F15.300451868348201
sS'pitch'
p7
F2.606156859872184
ssS'heart_rate'
p8
F44.038863208353185
sS'imu_torso'
p9
(dp10
g5
F10.178032818545539
sg6
F19.989407604786592
sg7
F3.959971504345796
ssS'steplength'
p11
g2
sS'timestamp'
p12
cdatetime
datetime
p13
(S'\x07\xe2\x01\x1e\x16:+\x0cc\xe0'
p14
tp15
Rp16
sS'speed'
p17
g2
sS'cadence'
p18
g2
s.(dp0
S'blood_pressure'
p1
S'no data'
p2
sS'imu_head'
p3
(dp4
S'yaw'
p5
F16.365220594333763
sS'roll'
p6
F15.942084980873696
sS'pitch'
p7
F14.50288064943425
ssS'heart_rate'
p8
F84.37437968782024
sS'imu_torso'
p9
(dp10
g5
F19.860042292614285
sg6
F9.61091210133463
sg7
F12.54571217074571
ssS'steplength'
p11
g2
sS'timestamp'
p12
cdatetime
datetime
p13
(S'\x07\xe2\x01\x1e\x16:,\x0co\x98'
p14
tp15
Rp16
sS'speed'
p17
g2
sS'cadence'
p18
g2
s.(dp0
S'blood_pressure'
p1
S'no data'
p2
sS'imu_head'
p3
(dp4
S'yaw'
p5
F19.3724525336039
sS'roll'
p6
F3.117921517428661
sS'pitch'
p7
F19.69848137739844
ssS'heart_rate'
p8
F19.680522756136664
sS'imu_torso'
p9
(dp10
g5
F15.290940577548511
sg6
F11.100022472483941
sg7
F3.120363088810856
ssS'steplength'
p11
g2
sS'timestamp'
p12
cdatetime
datetime
p13
(S'\x07\xe2\x01\x1e\x16:-\x0cwh'
p14
tp15
Rp16
sS'speed'
p17
g2
sS'cadence'
p18
g2
s.(dp0
S'blood_pressure'
p1
S'no data'
p2
sS'imu_head'
p3
(dp4
S'yaw'
p5
F18.499746486683275
sS'roll'
p6
F7.357862207153576
sS'pitch'
p7
F4.702154766575242
ssS'heart_rate'
p8
F43.380922266469014
sS'imu_torso'
p9
(dp10
g5
F12.91064622505693
sg6
F0.7879126150294269
sg7
F19.17581340935524
ssS'steplength'
p11
g2
sS'timestamp'
p12
cdatetime
datetime
p13
(S'\x07\xe2\x01\x1e\x16:.\x0c\x83 '
p14
tp15
Rp16
sS'speed'
p17
g2
sS'cadence'
p18
g2
s.(dp0
S'blood_pressure'
p1
S'no data'
p2
sS'imu_head'
p3
(dp4
S'yaw'
p5
F18.664210038964168
sS'roll'
p6
F9.999016210074263
sS'pitch'
p7
F3.642122366627658
ssS'heart_rate'
p8
F41.016559903150565
sS'imu_torso'
p9
(dp10
g5
F5.216818437234512
sg6
F7.388963509367592
sg7
F12.513400039884617
ssS'steplength'
p11
g2
sS'timestamp'
p12
cdatetime
datetime
p13
(S'\x07\xe2\x01\x1e\x16:/\x0c\x8a\xf0'
p14
tp15
Rp16
sS'speed'
p17
g2
sS'cadence'
p18
g2
s.(dp0
S'blood_pressure'
p1
S'no data'
p2
sS'imu_head'
p3
(dp4
S'yaw'
p5
F19.028132779606167
sS'roll'
p6
F4.960894371184099
sS'pitch'
p7
F2.6981414842286333
ssS'heart_rate'
p8
F88.60971795386668
sS'imu_torso'
p9
(dp10
g5
F0.6700748651650912
sg6
F15.094415393035751
sg7
F16.593952427610017
ssS'steplength'
p11
g2
sS'timestamp'
p12
cdatetime
datetime
p13
(S'\x07\xe2\x01\x1e\x16:0\x0c\x96\xa8'
p14
tp15
Rp16
sS'speed'
p17
g2
sS'cadence'
p18
g2
s.(dp0
S'blood_pressure'
p1
S'no data'
p2
sS'imu_head'
p3
(dp4
S'yaw'
p5
F12.31583803991718
sS'roll'
p6
F10.99665296947687
sS'pitch'
p7
F14.080389117682117
ssS'heart_rate'
p8
F73.56693038979715
sS'imu_torso'
p9
(dp10
g5
F3.5462472875749307
sg6
F9.386512160731153
sg7
F5.590677063978051
ssS'steplength'
p11
g2
sS'timestamp'
p12
cdatetime
datetime
p13
(S'\x07\xe2\x01\x1e\x16:1\x0c\xa2`'
p14
tp15
Rp16
sS'speed'
p17
g2
sS'cadence'
p18
g2
s.(dp0
S'blood_pressure'
p1
S'no data'
p2
sS'imu_head'
p3
(dp4
S'yaw'
p5
F0.42803445638501136
sS'roll'
p6
F3.2753041669757765
sS'pitch'
p7
F7.037801014002046
ssS'heart_rate'
p8
F53.41540211230145
sS'imu_torso'
p9
(dp10
g5
F17.894930676863993
sg6
F1.0255062946120663
sg7
F5.609750111620522
ssS'steplength'
p11
g2
sS'timestamp'
p12
cdatetime
datetime
p13
(S'\x07\xe2\x01\x1e\x16:2\x0c\xae\x18'
p14
tp15
Rp16
sS'speed'
p17
g2
sS'cadence'
p18
g2
s.(dp0
S'blood_pressure'
p1
S'no data'
p2
sS'imu_head'
p3
(dp4
S'yaw'
p5
F14.519902377679387
sS'roll'
p6
F17.081806018436126
sS'pitch'
p7
F4.046542583608963
ssS'heart_rate'
p8
F93.07867823970211
sS'imu_torso'
p9
(dp10
g5
F12.219012126589924
sg6
F10.86434720779602
sg7
F8.295497556971753
ssS'steplength'
p11
g2
sS'timestamp'
p12
cdatetime
datetime
p13
(S'\x07\xe2\x01\x1e\x16:3\x0c\xb5\xe8'
p14
tp15
Rp16
sS'speed'
p17
g2
sS'cadence'
p18
g2
s.(dp0
S'blood_pressure'
p1
S'no data'
p2
sS'imu_head'
p3
(dp4
S'yaw'
p5
F1.7585783771336772
sS'roll'
p6
F4.187286079339659
sS'pitch'
p7
F8.88055674812416
ssS'heart_rate'
p8
F54.60323014126005
sS'imu_torso'
p9
(dp10
g5
F14.379655924043163
sg6
F15.943735940860435
sg7
F19.875670801663414
ssS'steplength'
p11
g2
sS'timestamp'
p12
cdatetime
datetime
p13
(S'\x07\xe2\x01\x1e\x16:4\x0c\xbd\xb8'
p14
tp15
Rp16
sS'speed'
p17
g2
sS'cadence'
p18
g2
s.(dp0
S'blood_pressure'
p1
S'no data'
p2
sS'imu_head'
p3
(dp4
S'yaw'
p5
F8.56401634914722
sS'roll'
p6
F11.482720374197351
sS'pitch'
p7
F19.719765870480273
ssS'heart_rate'
p8
F85.43225714819593
sS'imu_torso'
p9
(dp10
g5
F5.348468038860037
sg6
F6.74402440642798
sg7
F1.4614329407639604
ssS'steplength'
p11
g2
sS'timestamp'
p12
cdatetime
datetime
p13
(S'\x07\xe2\x01\x1e\x16:5\x0c\xc9p'
p14
tp15
Rp16
sS'speed'
p17
g2
sS'cadence'
p18
g2
s.(dp0
S'blood_pressure'
p1
S'no data'
p2
sS'imu_head'
p3
(dp4
S'yaw'
p5
F6.992787663044822
sS'roll'
p6
F6.074459482828476
sS'pitch'
p7
F10.681111271758617
ssS'heart_rate'
p8
F31.181519890326324
sS'imu_torso'
p9
(dp10
g5
F11.110747528244902
sg6
F6.56992551360495
sg7
F9.40535151327298
ssS'steplength'
p11
g2
sS'timestamp'
p12
cdatetime
datetime
p13
(S'\x07\xe2\x01\x1e\x16:6\x0c\xcdX'
p14
tp15
Rp16
sS'speed'
p17
g2
sS'cadence'
p18
g2
s.(dp0
S'blood_pressure'
p1
S'no data'
p2
sS'imu_head'
p3
(dp4
S'yaw'
p5
F10.449562563235643
sS'roll'
p6
F7.900872499543872
sS'pitch'
p7
F19.13429803246713
ssS'heart_rate'
p8
F34.280896362410004
sS'imu_torso'
p9
(dp10
g5
F11.289211243210266
sg6
F18.44783498772175
sg7
F3.373980567829369
ssS'steplength'
p11
g2
sS'timestamp'
p12
cdatetime
datetime
p13
(S'\x07\xe2\x01\x1e\x16:7\x0c\xd1@'
p14
tp15
Rp16
sS'speed'
p17
g2
sS'cadence'
p18
g2
s.(dp0
S'blood_pressure'
p1
S'no data'
p2
sS'imu_head'
p3
(dp4
S'yaw'
p5
F6.42808059569258
sS'roll'
p6
F0.6752313841352775
sS'pitch'
p7
F7.7946435676064185
ssS'heart_rate'
p8
F94.99132954789069
sS'imu_torso'
p9
(dp10
g5
F1.1705383422688187
sg6
F10.376510225388147
sg7
F14.08536459981933
ssS'steplength'
p11
g2
sS'timestamp'
p12
cdatetime
datetime
p13
(S'\x07\xe2\x01\x1e\x16:8\x0c\xe0\xe0'
p14
tp15
Rp16
sS'speed'
p17
g2
sS'cadence'
p18
g2
s.(dp0
S'blood_pressure'
p1
S'no data'
p2
sS'imu_head'
p3
(dp4
S'yaw'
p5
F2.586849898959118
sS'roll'
p6
F3.7021271806589984
sS'pitch'
p7
F6.591926085766513
ssS'heart_rate'
p8
F36.980544644964894
sS'imu_torso'
p9
(dp10
g5
F15.118476557723138
sg6
F18.59418368219703
sg7
F14.083318087254636
ssS'steplength'
p11
g2
sS'timestamp'
p12
cdatetime
datetime
p13
(S'\x07\xe2\x01\x1e\x16:9\x0c\xe8\xb0'
p14
tp15
Rp16
sS'speed'
p17
g2
sS'cadence'
p18
g2
s.(dp0
S'blood_pressure'
p1
S'no data'
p2
sS'imu_head'
p3
(dp4
S'yaw'
p5
F14.119447048303353
sS'roll'
p6
F0.26021819692318093
sS'pitch'
p7
F18.604958068389138
ssS'heart_rate'
p8
F46.99372809198602
sS'imu_torso'
p9
(dp10
g5
F17.704249930214896
sg6
F16.91887156083153
sg7
F19.924209931659668
ssS'steplength'
p11
g2
sS'timestamp'
p12
cdatetime
datetime
p13
(S'\x07\xe2\x01\x1e\x16::\x0c\xf4h'
p14
tp15
Rp16
sS'speed'
p17
g2
sS'cadence'
p18
g2
s.(dp0
S'blood_pressure'
p1
S'no data'
p2
sS'imu_head'
p3
(dp4
S'yaw'
p5
F11.778983739682623
sS'roll'
p6
F14.728109727153111
sS'pitch'
p7
F8.242206486909216
ssS'heart_rate'
p8
F31.56381147841596
sS'imu_torso'
p9
(dp10
g5
F14.774162188400766
sg6
F7.881004353290109
sg7
F14.719545550157292
ssS'steplength'
p11
g2
sS'timestamp'
p12
cdatetime
datetime
p13
(S'\x07\xe2\x01\x1e\x16:;\x0c\xfc8'
p14
tp15
Rp16
sS'speed'
p17
g2
sS'cadence'
p18
g2
s.(dp0
S'blood_pressure'
p1
S'no data'
p2
sS'imu_head'
p3
(dp4
S'yaw'
p5
F2.0231639191847317
sS'roll'
p6
F12.217200234116648
sS'pitch'
p7
F6.493663537474202
ssS'heart_rate'
p8
F39.78606936895811
sS'imu_torso'
p9
(dp10
g5
F13.143304984459927
sg6
F10.7543867344164
sg7
F8.44369174631887
ssS'steplength'
p11
g2
sS'timestamp'
p12
cdatetime
datetime
p13
(S'\x07\xe2\x01\x1e\x16;\x00\r\x07\xf0'
p14
tp15
Rp16
sS'speed'
p17
g2
sS'cadence'
p18
g2
s.(dp0
S'blood_pressure'
p1
S'no data'
p2
sS'imu_head'
p3
(dp4
S'yaw'
p5
F1.172685909258322
sS'roll'
p6
F1.9313191277301023
sS'pitch'
p7
F14.170372931533677
ssS'heart_rate'
p8
F33.32467865455339
sS'imu_torso'
p9
(dp10
g5
F5.7662956396709975
sg6
F14.40673749529999
sg7
F17.104031783226105
ssS'steplength'
p11
g2
sS'timestamp'
p12
cdatetime
datetime
p13
(S'\x07\xe2\x01\x1e\x16;\x01\r\x0f\xc0'
p14
tp15
Rp16
sS'speed'
p17
g2
sS'cadence'
p18
g2
s.(dp0
S'blood_pressure'
p1
S'no data'
p2
sS'imu_head'
p3
(dp4
S'yaw'
p5
F18.231342723701946
sS'roll'
p6
F14.548296067032068
sS'pitch'
p7
F7.311647006130617
ssS'heart_rate'
p8
F22.486854619306307
sS'imu_torso'
p9
(dp10
g5
F9.885846368823286
sg6
F7.513239731248282
sg7
F19.161762589439807
ssS'steplength'
p11
g2
sS'timestamp'
p12
cdatetime
datetime
p13
(S'\x07\xe2\x01\x1e\x16;\x02\r\x1bx'
p14
tp15
Rp16
sS'speed'
p17
g2
sS'cadence'
p18
g2
s.(dp0
S'blood_pressure'
p1
S'no data'
p2
sS'imu_head'
p3
(dp4
S'yaw'
p5
F10.064084485209943
sS'roll'
p6
F18.882932004400907
sS'pitch'
p7
F12.724383794181522
ssS'heart_rate'
p8
F56.505830237387315
sS'imu_torso'
p9
(dp10
g5
F2.926277839798579
sg6
F8.283765084435931
sg7
F14.102109931503108
ssS'steplength'
p11
g2
sS'timestamp'
p12
cdatetime
datetime
p13
(S'\x07\xe2\x01\x1e\x16;\x03\r\x1f`'
p14
tp15
Rp16
sS'speed'
p17
g2
sS'cadence'
p18
g2
s.(dp0
S'blood_pressure'
p1
S'no data'
p2
sS'imu_head'
p3
(dp4
S'yaw'
p5
F4.594552775309852
sS'roll'
p6
F18.780651988024044
sS'pitch'
p7
F7.643682454470588
ssS'heart_rate'
p8
F76.75747417438905
sS'imu_torso'
p9
(dp10
g5
F2.6883479277070377
sg6
F8.59469408542946
sg7
F7.802770216120962
ssS'steplength'
p11
g2
sS'timestamp'
p12
cdatetime
datetime
p13
(S'\x07\xe2\x01\x1e\x16;\x04\r+\x18'
p14
tp15
Rp16
sS'speed'
p17
g2
sS'cadence'
p18
g2
s.(dp0
S'blood_pressure'
p1
S'no data'
p2
sS'imu_head'
p3
(dp4
S'yaw'
p5
F4.082752881640861
sS'roll'
p6
F19.70397070391053
sS'pitch'
p7
F4.305266778885746
ssS'heart_rate'
p8
F86.33966120443255
sS'imu_torso'
p9
(dp10
g5
F14.480537641230324
sg6
F12.632407388816429
sg7
F14.459104622531862
ssS'steplength'
p11
g2
sS'timestamp'
p12
cdatetime
datetime
p13
(S'\x07\xe2\x01\x1e\x16;\x05\r/\x00'
p14
tp15
Rp16
sS'speed'
p17
g2
sS'cadence'
p18
g2
s.(dp0
S'blood_pressure'
p1
S'no data'
p2
sS'imu_head'
p3
(dp4
S'yaw'
p5
F3.1647135778878943
sS'roll'
p6
F17.0279761271756
sS'pitch'
p7
F7.537612756259602
ssS'heart_rate'
p8
F23.95373243770502
sS'imu_torso'
p9
(dp10
g5
F15.473898647915316
sg6
F10.778761760464256
sg7
F14.322360704082229
ssS'steplength'
p11
g2
sS'timestamp'
p12
cdatetime
datetime
p13
(S'\x07\xe2\x01\x1e\x16;\x06\r:\xb8'
p14
tp15
Rp16
sS'speed'
p17
g2
sS'cadence'
p18
g2
s.(dp0
S'blood_pressure'
p1
S'no data'
p2
sS'imu_head'
p3
(dp4
S'yaw'
p5
F7.9885621543838585
sS'roll'
p6
F8.116127702723112
sS'pitch'
p7
F15.725203966954833
ssS'heart_rate'
p8
F88.16099849214474
sS'imu_torso'
p9
(dp10
g5
F5.119432952662814
sg6
F14.184154168467785
sg7
F18.641094977423254
ssS'steplength'
p11
g2
sS'timestamp'
p12
cdatetime
datetime
p13
(S'\x07\xe2\x01\x1e\x16;\x07\rB\x88'
p14
tp15
Rp16
sS'speed'
p17
g2
sS'cadence'
p18
g2
s.(dp0
S'blood_pressure'
p1
S'no data'
p2
sS'imu_head'
p3
(dp4
S'yaw'
p5
F12.888584917793855
sS'roll'
p6
F0.8179211220099036
sS'pitch'
p7
F2.505539261814793
ssS'heart_rate'
p8
F43.57521353746567
sS'imu_torso'
p9
(dp10
g5
F4.702593530899155
sg6
F19.11716610380622
sg7
F7.660495192996066
ssS'steplength'
p11
g2
sS'timestamp'
p12
cdatetime
datetime
p13
(S'\x07\xe2\x01\x1e\x16;\x08\rJX'
p14
tp15
Rp16
sS'speed'
p17
g2
sS'cadence'
p18
g2
s.(dp0
S'blood_pressure'
p1
S'no data'
p2
sS'imu_head'
p3
(dp4
S'yaw'
p5
F12.464717091013238
sS'roll'
p6
F0.5731776396802224
sS'pitch'
p7
F15.607319670670801
ssS'heart_rate'
p8
F87.08695562414141
sS'imu_torso'
p9
(dp10
g5
F4.046056272721648
sg6
F12.34507611978186
sg7
F2.473187115643267
ssS'steplength'
p11
g2
sS'timestamp'
p12
cdatetime
datetime
p13
(S'\x07\xe2\x01\x1e\x16;\t\rR('
p14
tp15
Rp16
sS'speed'
p17
g2
sS'cadence'
p18
g2
s.(dp0
S'blood_pressure'
p1
S'no data'
p2
sS'imu_head'
p3
(dp4
S'yaw'
p5
F3.424438681816684
sS'roll'
p6
F7.172223435262952
sS'pitch'
p7
F19.56202268340791
ssS'heart_rate'
p8
F69.02514388243245
sS'imu_torso'
p9
(dp10
g5
F12.339564553978501
sg6
F18.549781356827197
sg7
F11.79905401184932
ssS'steplength'
p11
g2
sS'timestamp'
p12
cdatetime
datetime
p13
(S'\x07\xe2\x01\x1e\x16;\n\rY\xf8'
p14
tp15
Rp16
sS'speed'
p17
g2
sS'cadence'
p18
g2
s.(dp0
S'blood_pressure'
p1
S'no data'
p2
sS'imu_head'
p3
(dp4
S'yaw'
p5
F4.286262337110989
sS'roll'
p6
F10.39449843816013
sS'pitch'
p7
F14.626525770561102
ssS'heart_rate'
p8
F20.68943400689144
sS'imu_torso'
p9
(dp10
g5
F3.6709507815434628
sg6
F3.2732613458752358
sg7
F19.997370528954676
ssS'steplength'
p11
g2
sS'timestamp'
p12
cdatetime
datetime
p13
(S'\x07\xe2\x01\x1e\x16;\x0b\ra\xc8'
p14
tp15
Rp16
sS'speed'
p17
g2
sS'cadence'
p18
g2
s.(dp0
S'blood_pressure'
p1
S'no data'
p2
sS'imu_head'
p3
(dp4
S'yaw'
p5
F1.330043723685126
sS'roll'
p6
F1.163900799429538
sS'pitch'
p7
F13.234995633602347
ssS'heart_rate'
p8
F43.54925408864278
sS'imu_torso'
p9
(dp10
g5
F3.042105733715752
sg6
F8.86744474060702
sg7
F0.7764560936114995
ssS'steplength'
p11
g2
sS'timestamp'
p12
cdatetime
datetime
p13
(S'\x07\xe2\x01\x1e\x16;\x0c\ri\x98'
p14
tp15
Rp16
sS'speed'
p17
g2
sS'cadence'
p18
g2
s.(dp0
S'blood_pressure'
p1
S'no data'
p2
sS'imu_head'
p3
(dp4
S'yaw'
p5
F10.996270364962744
sS'roll'
p6
F6.9443121645125405
sS'pitch'
p7
F1.03933280554114
ssS'heart_rate'
p8
F49.833310594989186
sS'imu_torso'
p9
(dp10
g5
F8.54307436563175
sg6
F0.6188793325243092
sg7
F19.233567587023572
ssS'steplength'
p11
g2
sS'timestamp'
p12
cdatetime
datetime
p13
(S'\x07\xe2\x01\x1e\x16;\r\rm\x80'
p14
tp15
Rp16
sS'speed'
p17
g2
sS'cadence'
p18
g2
s.(dp0
S'blood_pressure'
p1
S'no data'
p2
sS'imu_head'
p3
(dp4
S'yaw'
p5
F3.498204935860969
sS'roll'
p6
F6.210589468544296
sS'pitch'
p7
F9.121975194908849
ssS'heart_rate'
p8
F1.6256614228047694
sS'imu_torso'
p9
(dp10
g5
F0.5232346673305166
sg6
F14.417516343153041
sg7
F1.5845581206312964
ssS'steplength'
p11
g2
sS'timestamp'
p12
cdatetime
datetime
p13
(S'\x07\xe2\x01\x1e\x16;\x0e\ry8'
p14
tp15
Rp16
sS'speed'
p17
g2
sS'cadence'
p18
g2
s.(dp0
S'blood_pressure'
p1
S'no data'
p2
sS'imu_head'
p3
(dp4
S'yaw'
p5
F16.900060610102916
sS'roll'
p6
F10.795988747613144
sS'pitch'
p7
F1.745339731378488
ssS'heart_rate'
p8
F42.111784548695205
sS'imu_torso'
p9
(dp10
g5
F2.1104359789653415
sg6
F9.30641631727995
sg7
F8.442522841103745
ssS'steplength'
p11
g2
sS'timestamp'
p12
cdatetime
datetime
p13
(S'\x07\xe2\x01\x1e\x16;\x0f\r\x84\xf0'
p14
tp15
Rp16
sS'speed'
p17
g2
sS'cadence'
p18
g2
s.(dp0
S'blood_pressure'
p1
S'no data'
p2
sS'imu_head'
p3
(dp4
S'yaw'
p5
F0.8679000448964835
sS'roll'
p6
F10.481302355531612
sS'pitch'
p7
F17.86247830083405
ssS'heart_rate'
p8
F76.82511955843937
sS'imu_torso'
p9
(dp10
g5
F13.959840550463356
sg6
F12.827586063483079
sg7
F14.055343064248282
ssS'steplength'
p11
g2
sS'timestamp'
p12
cdatetime
datetime
p13
(S'\x07\xe2\x01\x1e\x16;\x10\r\x88\xd8'
p14
tp15
Rp16
sS'speed'
p17
g2
sS'cadence'
p18
g2
s.(dp0
S'blood_pressure'
p1
S'no data'
p2
sS'imu_head'
p3
(dp4
S'yaw'
p5
F12.643913639174437
sS'roll'
p6
F13.642082281469117
sS'pitch'
p7
F9.65900509032429
ssS'heart_rate'
p8
F15.954939121240342
sS'imu_torso'
p9
(dp10
g5
F14.220354672843186
sg6
F9.849589074559715
sg7
F4.504560495539174
ssS'steplength'
p11
g2
sS'timestamp'
p12
cdatetime
datetime
p13
(S'\x07\xe2\x01\x1e\x16;\x11\r\x8c\xc0'
p14
tp15
Rp16
sS'speed'
p17
g2
sS'cadence'
p18
g2
s.(dp0
S'blood_pressure'
p1
S'no data'
p2
sS'imu_head'
p3
(dp4
S'yaw'
p5
F3.0982031853126935
sS'roll'
p6
F16.962823064507294
sS'pitch'
p7
F6.430233725560037
ssS'heart_rate'
p8
F35.07887960692351
sS'imu_torso'
p9
(dp10
g5
F6.549917812532153
sg6
F18.735081307025954
sg7
F7.25519243695961
ssS'steplength'
p11
g2
sS'timestamp'
p12
cdatetime
datetime
p13
(S'\x07\xe2\x01\x1e\x16;\x12\r\x98x'
p14
tp15
Rp16
sS'speed'
p17
g2
sS'cadence'
p18
g2
s.(dp0
S'blood_pressure'
p1
S'no data'
p2
sS'imu_head'
p3
(dp4
S'yaw'
p5
F9.016162559298596
sS'roll'
p6
F13.325100357877446
sS'pitch'
p7
F4.947025912279434
ssS'heart_rate'
p8
F47.91242894975834
sS'imu_torso'
p9
(dp10
g5
F3.7898304773296743
sg6
F5.667212855184034
sg7
F16.312732354913166
ssS'steplength'
p11
g2
sS'timestamp'
p12
cdatetime
datetime
p13
(S'\x07\xe2\x01\x1e\x16;\x13\r\xa0H'
p14
tp15
Rp16
sS'speed'
p17
g2
sS'cadence'
p18
g2
s.(dp0
S'blood_pressure'
p1
S'no data'
p2
sS'imu_head'
p3
(dp4
S'yaw'
p5
F2.5854058755774956
sS'roll'
p6
F0.5209739129290503
sS'pitch'
p7
F10.892797057441598
ssS'heart_rate'
p8
F85.1062668034436
sS'imu_torso'
p9
(dp10
g5
F14.946499736311608
sg6
F18.740923051334942
sg7
F18.328079185671626
ssS'steplength'
p11
g2
sS'timestamp'
p12
cdatetime
datetime
p13
(S'\x07\xe2\x01\x1e\x16;\x14\r\xac\x00'
p14
tp15
Rp16
sS'speed'
p17
g2
sS'cadence'
p18
g2
s.(dp0
S'blood_pressure'
p1
S'no data'
p2
sS'imu_head'
p3
(dp4
S'yaw'
p5
F17.990006505384155
sS'roll'
p6
F2.020255252165073
sS'pitch'
p7
F19.49200117368155
ssS'heart_rate'
p8
F24.529245851950087
sS'imu_torso'
p9
(dp10
g5
F12.67923970352124
sg6
F2.856919220121874
sg7
F6.040090463084553
ssS'steplength'
p11
g2
sS'timestamp'
p12
cdatetime
datetime
p13
(S'\x07\xe2\x01\x1e\x16;\x15\r\xb3\xd0'
p14
tp15
Rp16
sS'speed'
p17
g2
sS'cadence'
p18
g2
s.(dp0
S'blood_pressure'
p1
S'no data'
p2
sS'imu_head'
p3
(dp4
S'yaw'
p5
F2.6232198085666125
sS'roll'
p6
F14.641482696738075
sS'pitch'
p7
F7.983821057037437
ssS'heart_rate'
p8
F0.7082888850981517
sS'imu_torso'
p9
(dp10
g5
F16.564524125096675
sg6
F2.0663538077275456
sg7
F16.964557926807885
ssS'steplength'
p11
g2
sS'timestamp'
p12
cdatetime
datetime
p13
(S'\x07\xe2\x01\x1e\x16;\x16\r\xbb\xa0'
p14
tp15
Rp16
sS'speed'
p17
g2
sS'cadence'
p18
g2
s.(dp0
S'blood_pressure'
p1
S'no data'
p2
sS'imu_head'
p3
(dp4
S'yaw'
p5
F15.331368973836227
sS'roll'
p6
F19.99081629569879
sS'pitch'
p7
F12.502493721350724
ssS'heart_rate'
p8
F51.181395528173745
sS'imu_torso'
p9
(dp10
g5
F12.613907805625074
sg6
F9.287508660233076
sg7
F9.97650844032539
ssS'steplength'
p11
g2
sS'timestamp'
p12
cdatetime
datetime
p13
(S'\x07\xe2\x01\x1e\x16;\x17\r\xbf\x88'
p14
tp15
Rp16
sS'speed'
p17
g2
sS'cadence'
p18
g2
s.(dp0
S'blood_pressure'
p1
S'no data'
p2
sS'imu_head'
p3
(dp4
S'yaw'
p5
F2.545736458514256
sS'roll'
p6
F14.721718454120676
sS'pitch'
p7
F10.658670003243886
ssS'heart_rate'
p8
F76.70226991165062
sS'imu_torso'
p9
(dp10
g5
F9.724518481031408
sg6
F9.624025051292474
sg7
F16.646921848412436
ssS'steplength'
p11
g2
sS'timestamp'
p12
cdatetime
datetime
p13
(S'\x07\xe2\x01\x1e\x16;\x18\r\xcb@'
p14
tp15
Rp16
sS'speed'
p17
g2
sS'cadence'
p18
g2
s.(dp0
S'blood_pressure'
p1
S'no data'
p2
sS'imu_head'
p3
(dp4
S'yaw'
p5
F11.767886767500483
sS'roll'
p6
F19.31575741593211
sS'pitch'
p7
F16.511261038619512
ssS'heart_rate'
p8
F81.51243737582502
sS'imu_torso'
p9
(dp10
g5
F0.7467627140228883
sg6
F19.7144273040688
sg7
F0.9262747866662879
ssS'steplength'
p11
g2
sS'timestamp'
p12
cdatetime
datetime
p13
(S'\x07\xe2\x01\x1e\x16;\x19\r\xd6\xf8'
p14
tp15
Rp16
sS'speed'
p17
g2
sS'cadence'
p18
g2
s.(dp0
S'blood_pressure'
p1
S'no data'
p2
sS'imu_head'
p3
(dp4
S'yaw'
p5
F15.487051031481275
sS'roll'
p6
F10.97237266061558
sS'pitch'
p7
F3.949491960840088
ssS'heart_rate'
p8
F58.064754273999306
sS'imu_torso'
p9
(dp10
g5
F5.132214503880346
sg6
F12.62139879174252
sg7
F16.157310821164657
ssS'steplength'
p11
g2
sS'timestamp'
p12
cdatetime
datetime
p13
(S'\x07\xe2\x01\x1e\x16;\x1a\r\xda\xe0'
p14
tp15
Rp16
sS'speed'
p17
g2
sS'cadence'
p18
g2
s.(dp0
S'blood_pressure'
p1
S'no data'
p2
sS'imu_head'
p3
(dp4
S'yaw'
p5
F12.47302622963009
sS'roll'
p6
F7.088763634383004
sS'pitch'
p7
F19.203320307047523
ssS'heart_rate'
p8
F43.34469181309315
sS'imu_torso'
p9
(dp10
g5
F13.586689928505436
sg6
F16.105946681813574
sg7
F9.564625869154641
ssS'steplength'
p11
g2
sS'timestamp'
p12
cdatetime
datetime
p13
(S'\x07\xe2\x01\x1e\x16;\x1b\r\xe2\xb0'
p14
tp15
Rp16
sS'speed'
p17
g2
sS'cadence'
p18
g2
s.(dp0
S'blood_pressure'
p1
S'no data'
p2
sS'imu_head'
p3
(dp4
S'yaw'
p5
F7.007603008608729
sS'roll'
p6
F5.630711484197295
sS'pitch'
p7
F10.827890102688084
ssS'heart_rate'
p8
F69.20203373022485
sS'imu_torso'
p9
(dp10
g5
F3.736908987898959
sg6
F1.21874373155209
sg7
F0.19702602305009975
ssS'steplength'
p11
g2
sS'timestamp'
p12
cdatetime
datetime
p13
(S'\x07\xe2\x01\x1e\x16;\x1c\r\xea\x80'
p14
tp15
Rp16
sS'speed'
p17
g2
sS'cadence'
p18
g2
s.(dp0
S'blood_pressure'
p1
S'no data'
p2
sS'imu_head'
p3
(dp4
S'yaw'
p5
F17.24894832173281
sS'roll'
p6
F12.371433749392619
sS'pitch'
p7
F5.750164759605523
ssS'heart_rate'
p8
F67.66629029466476
sS'imu_torso'
p9
(dp10
g5
F0.9259632696108278
sg6
F10.668338817937224
sg7
F12.748499311337042
ssS'steplength'
p11
g2
sS'timestamp'
p12
cdatetime
datetime
p13
(S'\x07\xe2\x01\x1e\x16;\x1d\r\xf68'
p14
tp15
Rp16
sS'speed'
p17
g2
sS'cadence'
p18
g2
s.(dp0
S'blood_pressure'
p1
S'no data'
p2
sS'imu_head'
p3
(dp4
S'yaw'
p5
F3.5617484355074924
sS'roll'
p6
F3.276642952949267
sS'pitch'
p7
F18.239225618141496
ssS'heart_rate'
p8
F90.94566371845343
sS'imu_torso'
p9
(dp10
g5
F8.172010868437209
sg6
F18.715398085423235
sg7
F10.630721997139075
ssS'steplength'
p11
g2
sS'timestamp'
p12
cdatetime
datetime
p13
(S'\x07\xe2\x01\x1e\x16;\x1e\r\xfe\x08'
p14
tp15
Rp16
sS'speed'
p17
g2
sS'cadence'
p18
g2
s.(dp0
S'blood_pressure'
p1
S'no data'
p2
sS'imu_head'
p3
(dp4
S'yaw'
p5
F16.60315203930326
sS'roll'
p6
F6.489852513112401
sS'pitch'
p7
F11.291141811824337
ssS'heart_rate'
p8
F22.06139323772438
sS'imu_torso'
p9
(dp10
g5
F16.953069761412568
sg6
F16.2361110740049
sg7
F14.310959322579178
ssS'steplength'
p11
g2
sS'timestamp'
p12
cdatetime
datetime
p13
(S'\x07\xe2\x01\x1e\x16;\x1f\x0e\t\xc0'
p14
tp15
Rp16
sS'speed'
p17
g2
sS'cadence'
p18
g2
s.(dp0
S'blood_pressure'
p1
S'no data'
p2
sS'imu_head'
p3
(dp4
S'yaw'
p5
F6.97932703021463
sS'roll'
p6
F17.06365480384681
sS'pitch'
p7
F1.5908365528524437
ssS'heart_rate'
p8
F59.20715200268795
sS'imu_torso'
p9
(dp10
g5
F9.213232524151323
sg6
F7.7559331155262505
sg7
F19.032273252404714
ssS'steplength'
p11
g2
sS'timestamp'
p12
cdatetime
datetime
p13
(S'\x07\xe2\x01\x1e\x16; \x0e\x11\x90'
p14
tp15
Rp16
sS'speed'
p17
g2
sS'cadence'
p18
g2
s.(dp0
S'blood_pressure'
p1
S'no data'
p2
sS'imu_head'
p3
(dp4
S'yaw'
p5
F5.803656166799032
sS'roll'
p6
F0.13095841793885343
sS'pitch'
p7
F1.9569924170163366
ssS'heart_rate'
p8
F75.30676601511735
sS'imu_torso'
p9
(dp10
g5
F0.9647151795048647
sg6
F16.49879823664487
sg7
F2.151872524392333
ssS'steplength'
p11
g2
sS'timestamp'
p12
cdatetime
datetime
p13
(S'\x07\xe2\x01\x1e\x16;!\x0e\x1dH'
p14
tp15
Rp16
sS'speed'
p17
g2
sS'cadence'
p18
g2
s.(dp0
S'blood_pressure'
p1
S'no data'
p2
sS'imu_head'
p3
(dp4
S'yaw'
p5
F7.663806305154839
sS'roll'
p6
F5.711987184054341
sS'pitch'
p7
F0.23493383552090075
ssS'heart_rate'
p8
F94.09285988692592
sS'imu_torso'
p9
(dp10
g5
F18.25384023938884
sg6
F14.804672203755722
sg7
F5.834347770362975
ssS'steplength'
p11
g2
sS'timestamp'
p12
cdatetime
datetime
p13
(S'\x07\xe2\x01\x1e\x16;"\x0e!0'
p14
tp15
Rp16
sS'speed'
p17
g2
sS'cadence'
p18
g2
s.(dp0
S'blood_pressure'
p1
S'no data'
p2
sS'imu_head'
p3
(dp4
S'yaw'
p5
F5.6842478943829144
sS'roll'
p6
F10.766216517608742
sS'pitch'
p7
F6.1846915786185885
ssS'heart_rate'
p8
F75.03268384867938
sS'imu_torso'
p9
(dp10
g5
F11.268366414553546
sg6
F6.459936496721164
sg7
F8.725705768629123
ssS'steplength'
p11
g2
sS'timestamp'
p12
cdatetime
datetime
p13
(S'\x07\xe2\x01\x1e\x16;#\x0e)\x00'
p14
tp15
Rp16
sS'speed'
p17
g2
sS'cadence'
p18
g2
s.(dp0
S'blood_pressure'
p1
S'no data'
p2
sS'imu_head'
p3
(dp4
S'yaw'
p5
F2.680518626957178
sS'roll'
p6
F14.785682095611081
sS'pitch'
p7
F6.196667624073633
ssS'heart_rate'
p8
F40.73978018122235
sS'imu_torso'
p9
(dp10
g5
F16.00558553453497
sg6
F18.691013347248283
sg7
F13.789989238492925
ssS'steplength'
p11
g2
sS'timestamp'
p12
cdatetime
datetime
p13
(S'\x07\xe2\x01\x1e\x16;$\x0e0\xd0'
p14
tp15
Rp16
sS'speed'
p17
g2
sS'cadence'
p18
g2
s.(dp0
S'blood_pressure'
p1
S'no data'
p2
sS'imu_head'
p3
(dp4
S'yaw'
p5
F6.916988558618698
sS'roll'
p6
F16.876751721395188
sS'pitch'
p7
F16.47256822385671
ssS'heart_rate'
p8
F43.09808491243851
sS'imu_torso'
p9
(dp10
g5
F14.13337935244588
sg6
F14.963126899301258
sg7
F10.491752437917384
ssS'steplength'
p11
g2
sS'timestamp'
p12
cdatetime
datetime
p13
(S'\x07\xe2\x01\x1e\x16;%\x0e@p'
p14
tp15
Rp16
sS'speed'
p17
g2
sS'cadence'
p18
g2
s.(dp0
S'blood_pressure'
p1
S'no data'
p2
sS'imu_head'
p3
(dp4
S'yaw'
p5
F4.593253310996834
sS'roll'
p6
F5.734489552775177
sS'pitch'
p7
F16.23931713944931
ssS'heart_rate'
p8
F72.70499550239549
sS'imu_torso'
p9
(dp10
g5
F18.538879332956256
sg6
F8.966071877116352
sg7
F2.3275961362125686
ssS'steplength'
p11
g2
sS'timestamp'
p12
cdatetime
datetime
p13
(S'\x07\xe2\x01\x1e\x16;&\x0eDX'
p14
tp15
Rp16
sS'speed'
p17
g2
sS'cadence'
p18
g2
s.(dp0
S'blood_pressure'
p1
S'no data'
p2
sS'imu_head'
p3
(dp4
S'yaw'
p5
F8.991261667553161
sS'roll'
p6
F12.431050432375557
sS'pitch'
p7
F2.8225722504686535
ssS'heart_rate'
p8
F55.916208764548394
sS'imu_torso'
p9
(dp10
g5
F12.39492596015269
sg6
F5.291007624387762
sg7
F10.318227206416186
ssS'steplength'
p11
g2
sS'timestamp'
p12
cdatetime
datetime
p13
(S"\x07\xe2\x01\x1e\x16;'\x0eP\x10"
p14
tp15
Rp16
sS'speed'
p17
g2
sS'cadence'
p18
g2
s.(dp0
S'blood_pressure'
p1
S'no data'
p2
sS'imu_head'
p3
(dp4
S'yaw'
p5
F16.441785111738533
sS'roll'
p6
F19.925727465039312
sS'pitch'
p7
F9.836604836075422
ssS'heart_rate'
p8
F83.29998176343996
sS'imu_torso'
p9
(dp10
g5
F19.387149506506145
sg6
F7.655915052877608
sg7
F14.42294269396384
ssS'steplength'
p11
g2
sS'timestamp'
p12
cdatetime
datetime
p13
(S'\x07\xe2\x01\x1e\x16;(\x0eW\xe0'
p14
tp15
Rp16
sS'speed'
p17
g2
sS'cadence'
p18
g2
s.(dp0
S'blood_pressure'
p1
S'no data'
p2
sS'imu_head'
p3
(dp4
S'yaw'
p5
F2.0814355347348923
sS'roll'
p6
F9.741092093558862
sS'pitch'
p7
F15.691456545473525
ssS'heart_rate'
p8
F85.41786573238487
sS'imu_torso'
p9
(dp10
g5
F0.2713998324943545
sg6
F11.394802865546618
sg7
F5.778762212237904
ssS'steplength'
p11
g2
sS'timestamp'
p12
cdatetime
datetime
p13
(S'\x07\xe2\x01\x1e\x16;)\x0e_\xb0'
p14
tp15
Rp16
sS'speed'
p17
g2
sS'cadence'
p18
g2
s.(dp0
S'blood_pressure'
p1
S'no data'
p2
sS'imu_head'
p3
(dp4
S'yaw'
p5
F6.833443356764284
sS'roll'
p6
F10.656175221233205
sS'pitch'
p7
F0.5347369142017633
ssS'heart_rate'
p8
F7.083690926260811
sS'imu_torso'
p9
(dp10
g5
F7.57964833575733
sg6
F10.707569820140122
sg7
F1.188755076514647
ssS'steplength'
p11
g2
sS'timestamp'
p12
cdatetime
datetime
p13
(S'\x07\xe2\x01\x1e\x16;*\x0eg\x80'
p14
tp15
Rp16
sS'speed'
p17
g2
sS'cadence'
p18
g2
s.(dp0
S'blood_pressure'
p1
S'no data'
p2
sS'imu_head'
p3
(dp4
S'yaw'
p5
F7.982301075705644
sS'roll'
p6
F7.651266366236509
sS'pitch'
p7
F11.213253648669184
ssS'heart_rate'
p8
F1.7756317057867954
sS'imu_torso'
p9
(dp10
g5
F11.25949917711771
sg6
F4.279702073601941
sg7
F3.0008508362659536
ssS'steplength'
p11
g2
sS'timestamp'
p12
cdatetime
datetime
p13
(S'\x07\xe2\x01\x1e\x16;+\x0es8'
p14
tp15
Rp16
sS'speed'
p17
g2
sS'cadence'
p18
g2
s.(dp0
S'blood_pressure'
p1
S'no data'
p2
sS'imu_head'
p3
(dp4
S'yaw'
p5
F12.16141474532677
sS'roll'
p6
F18.732621211866856
sS'pitch'
p7
F7.797728934757462
ssS'heart_rate'
p8
F41.31916192258315
sS'imu_torso'
p9
(dp10
g5
F8.619625828866027
sg6
F3.3363221699224455
sg7
F11.666744313300532
ssS'steplength'
p11
g2
sS'timestamp'
p12
cdatetime
datetime
p13
(S'\x07\xe2\x01\x1e\x16;,\x0e{\x08'
p14
tp15
Rp16
sS'speed'
p17
g2
sS'cadence'
p18
g2
s.(dp0
S'blood_pressure'
p1
S'no data'
p2
sS'imu_head'
p3
(dp4
S'yaw'
p5
F13.415386429779556
sS'roll'
p6
F7.154168785848745
sS'pitch'
p7
F14.800368348364398
ssS'heart_rate'
p8
F32.38099432919708
sS'imu_torso'
p9
(dp10
g5
F2.6816527282141323
sg6
F0.9926688546865958
sg7
F12.42297201601736
ssS'steplength'
p11
g2
sS'timestamp'
p12
cdatetime
datetime
p13
(S'\x07\xe2\x01\x1e\x16;-\x0e~\xf0'
p14
tp15
Rp16
sS'speed'
p17
g2
sS'cadence'
p18
g2
s.(dp0
S'blood_pressure'
p1
S'no data'
p2
sS'imu_head'
p3
(dp4
S'yaw'
p5
F5.220822255925135
sS'roll'
p6
F8.914541140998448
sS'pitch'
p7
F19.279457838145724
ssS'heart_rate'
p8
F34.03242452511489
sS'imu_torso'
p9
(dp10
g5
F15.612330361571424
sg6
F5.9565024539820755
sg7
F8.42183378027077
ssS'steplength'
p11
g2
sS'timestamp'
p12
cdatetime
datetime
p13
(S'\x07\xe2\x01\x1e\x16;.\x0e\x8a\xa8'
p14
tp15
Rp16
sS'speed'
p17
g2
sS'cadence'
p18
g2
s.(dp0
S'blood_pressure'
p1
S'no data'
p2
sS'imu_head'
p3
(dp4
S'yaw'
p5
F19.60114092552342
sS'roll'
p6
F13.021508155760396
sS'pitch'
p7
F6.7525592876164335
ssS'heart_rate'
p8
F87.45404676995989
sS'imu_torso'
p9
(dp10
g5
F8.982019922652215
sg6
F13.130431346393648
sg7
F1.7635302900672611
ssS'steplength'
p11
g2
sS'timestamp'
p12
cdatetime
datetime
p13
(S'\x07\xe2\x01\x1e\x16;/\x0e\x96`'
p14
tp15
Rp16
sS'speed'
p17
g2
sS'cadence'
p18
g2
s.(dp0
S'blood_pressure'
p1
S'no data'
p2
sS'imu_head'
p3
(dp4
S'yaw'
p5
F15.522295785719889
sS'roll'
p6
F6.720546928996094
sS'pitch'
p7
F15.996625353629184
ssS'heart_rate'
p8
F75.41035677552378
sS'imu_torso'
p9
(dp10
g5
F0.08138211701962605
sg6
F10.242449888799346
sg7
F15.001324448862206
ssS'steplength'
p11
g2
sS'timestamp'
p12
cdatetime
datetime
p13
(S'\x07\xe2\x01\x1e\x16;0\x0e\x9aH'
p14
tp15
Rp16
sS'speed'
p17
g2
sS'cadence'
p18
g2
s.(dp0
S'blood_pressure'
p1
S'no data'
p2
sS'imu_head'
p3
(dp4
S'yaw'
p5
F18.118481820738552
sS'roll'
p6
F7.2484953312811236
sS'pitch'
p7
F10.347942379494281
ssS'heart_rate'
p8
F23.909588673059513
sS'imu_torso'
p9
(dp10
g5
F8.263500455087105
sg6
F16.714549174083043
sg7
F0.7700489473166483
ssS'steplength'
p11
g2
sS'timestamp'
p12
cdatetime
datetime
p13
(S'\x07\xe2\x01\x1e\x16;1\x0e\xa2\x18'
p14
tp15
Rp16
sS'speed'
p17
g2
sS'cadence'
p18
g2
s.(dp0
S'blood_pressure'
p1
S'no data'
p2
sS'imu_head'
p3
(dp4
S'yaw'
p5
F9.791683395027295
sS'roll'
p6
F3.433398178285778
sS'pitch'
p7
F10.495598770033705
ssS'heart_rate'
p8
F81.80167589291642
sS'imu_torso'
p9
(dp10
g5
F16.107205290493095
sg6
F11.166680817809233
sg7
F3.096962012741815
ssS'steplength'
p11
g2
sS'timestamp'
p12
cdatetime
datetime
p13
(S'\x07\xe2\x01\x1e\x16;2\x0e\xad\xd0'
p14
tp15
Rp16
sS'speed'
p17
g2
sS'cadence'
p18
g2
s.(dp0
S'blood_pressure'
p1
S'no data'
p2
sS'imu_head'
p3
(dp4
S'yaw'
p5
F3.623722285740525
sS'roll'
p6
F4.284082975604866
sS'pitch'
p7
F5.293892711015298
ssS'heart_rate'
p8
F14.341559203124987
sS'imu_torso'
p9
(dp10
g5
F6.933698496895808
sg6
F4.8432072607283665
sg7
F0.16159330817447248
ssS'steplength'
p11
g2
sS'timestamp'
p12
cdatetime
datetime
p13
(S'\x07\xe2\x01\x1e\x16;3\x0e\xb5\xa0'
p14
tp15
Rp16
sS'speed'
p17
g2
sS'cadence'
p18
g2
s.(dp0
S'blood_pressure'
p1
S'no data'
p2
sS'imu_head'
p3
(dp4
S'yaw'
p5
F12.733264481254254
sS'roll'
p6
F8.628113182850697
sS'pitch'
p7
F5.534392045416839
ssS'heart_rate'
p8
F21.917732342419594
sS'imu_torso'
p9
(dp10
g5
F19.42945276403971
sg6
F1.2757672331614511
sg7
F2.4666878215251375
ssS'steplength'
p11
g2
sS'timestamp'
p12
cdatetime
datetime
p13
(S'\x07\xe2\x01\x1e\x16;4\x0e\xc1X'
p14
tp15
Rp16
sS'speed'
p17
g2
sS'cadence'
p18
g2
s.(dp0
S'blood_pressure'
p1
S'no data'
p2
sS'imu_head'
p3
(dp4
S'yaw'
p5
F13.504877766537744
sS'roll'
p6
F5.275730874824682
sS'pitch'
p7
F11.098913983476077
ssS'heart_rate'
p8
F33.0884930711383
sS'imu_torso'
p9
(dp10
g5
F9.889803465396533
sg6
F10.990996186644178
sg7
F5.010127479538216
ssS'steplength'
p11
g2
sS'timestamp'
p12
cdatetime
datetime
p13
(S'\x07\xe2\x01\x1e\x16;5\x0e\xc9('
p14
tp15
Rp16
sS'speed'
p17
g2
sS'cadence'
p18
g2
s.(dp0
S'blood_pressure'
p1
S'no data'
p2
sS'imu_head'
p3
(dp4
S'yaw'
p5
F6.179191367282863
sS'roll'
p6
F16.897561604860982
sS'pitch'
p7
F0.27623629862670196
ssS'heart_rate'
p8
F78.69989169736168
sS'imu_torso'
p9
(dp10
g5
F7.157030696785622
sg6
F18.24757941091942
sg7
F0.9750661162459262
ssS'steplength'
p11
g2
sS'timestamp'
p12
cdatetime
datetime
p13
(S'\x07\xe2\x01\x1e\x16;6\x0e\xd0\xf8'
p14
tp15
Rp16
sS'speed'
p17
g2
sS'cadence'
p18
g2
s.(dp0
S'blood_pressure'
p1
S'no data'
p2
sS'imu_head'
p3
(dp4
S'yaw'
p5
F11.227558296628839
sS'roll'
p6
F6.274407980721534
sS'pitch'
p7
F18.073492816940888
ssS'heart_rate'
p8
F75.67862177457654
sS'imu_torso'
p9
(dp10
g5
F5.834830183477429
sg6
F5.785894882114329
sg7
F18.823316770465773
ssS'steplength'
p11
g2
sS'timestamp'
p12
cdatetime
datetime
p13
(S'\x07\xe2\x01\x1e\x16;7\x0e\xd8\xc8'
p14
tp15
Rp16
sS'speed'
p17
g2
sS'cadence'
p18
g2
s.(dp0
S'blood_pressure'
p1
S'no data'
p2
sS'imu_head'
p3
(dp4
S'yaw'
p5
F14.055794266886483
sS'roll'
p6
F8.940528973987679
sS'pitch'
p7
F18.71419897292451
ssS'heart_rate'
p8
F56.1021076395555
sS'imu_torso'
p9
(dp10
g5
F2.924941051271477
sg6
F4.719438505925046
sg7
F5.962647010056765
ssS'steplength'
p11
g2
sS'timestamp'
p12
cdatetime
datetime
p13
(S'\x07\xe2\x01\x1e\x16;8\x0e\xe8h'
p14
tp15
Rp16
sS'speed'
p17
g2
sS'cadence'
p18
g2
s.(dp0
S'blood_pressure'
p1
S'no data'
p2
sS'imu_head'
p3
(dp4
S'yaw'
p5
F4.193881306074387
sS'roll'
p6
F4.9335154312297735
sS'pitch'
p7
F6.776609532338713
ssS'heart_rate'
p8
F26.056414179447664
sS'imu_torso'
p9
(dp10
g5
F2.3555335418194323
sg6
F6.922384929227652
sg7
F7.638379928010528
ssS'steplength'
p11
g2
sS'timestamp'
p12
cdatetime
datetime
p13
(S'\x07\xe2\x01\x1e\x16;9\x0e\xf08'
p14
tp15
Rp16
sS'speed'
p17
g2
sS'cadence'
p18
g2
s.(dp0
S'blood_pressure'
p1
S'no data'
p2
sS'imu_head'
p3
(dp4
S'yaw'
p5
F16.262321534084144
sS'roll'
p6
F11.40900178738091
sS'pitch'
p7
F16.467289054210074
ssS'heart_rate'
p8
F22.037979035084977
sS'imu_torso'
p9
(dp10
g5
F13.998895449931158
sg6
F1.7622452873017358
sg7
F17.268265652718434
ssS'steplength'
p11
g2
sS'timestamp'
p12
cdatetime
datetime
p13
(S'\x07\xe2\x01\x1e\x16;:\x0e\xfb\xf0'
p14
tp15
Rp16
sS'speed'
p17
g2
sS'cadence'
p18
g2
s.(dp0
S'blood_pressure'
p1
S'no data'
p2
sS'imu_head'
p3
(dp4
S'yaw'
p5
F17.972434402069005
sS'roll'
p6
F3.43534783277351
sS'pitch'
p7
F8.816894037690124
ssS'heart_rate'
p8
F7.194348902146741
sS'imu_torso'
p9
(dp10
g5
F16.932754536135935
sg6
F18.902495142809496
sg7
F9.678485905347689
ssS'steplength'
p11
g2
sS'timestamp'
p12
cdatetime
datetime
p13
(S'\x07\xe2\x01\x1e\x16;;\x0f\x07\xa8'
p14
tp15
Rp16
sS'speed'
p17
g2
sS'cadence'
p18
g2
s.(dp0
S'blood_pressure'
p1
S'no data'
p2
sS'imu_head'
p3
(dp4
S'yaw'
p5
F9.647243015520395
sS'roll'
p6
F6.1054907902328015
sS'pitch'
p7
F0.017919422059855528
ssS'heart_rate'
p8
F53.472477948932905
sS'imu_torso'
p9
(dp10
g5
F14.347155281877132
sg6
F15.888932598033719
sg7
F6.281898091872986
ssS'steplength'
p11
g2
sS'timestamp'
p12
cdatetime
datetime
p13
(S'\x07\xe2\x01\x1e\x17\x00\x00\x0f\x0b\x90'
p14
tp15
Rp16
sS'speed'
p17
g2
sS'cadence'
p18
g2
s.(dp0
S'blood_pressure'
p1
S'no data'
p2
sS'imu_head'
p3
(dp4
S'yaw'
p5
F4.164873961145412
sS'roll'
p6
F0.27092675104979813
sS'pitch'
p7
F18.337096111495686
ssS'heart_rate'
p8
F70.41044628753068
sS'imu_torso'
p9
(dp10
g5
F10.054810891732568
sg6
F10.398043123377615
sg7
F15.991864591161367
ssS'steplength'
p11
g2
sS'timestamp'
p12
cdatetime
datetime
p13
(S'\x07\xe2\x01\x1e\x17\x00\x01\x0f\x17H'
p14
tp15
Rp16
sS'speed'
p17
g2
sS'cadence'
p18
g2
s.(dp0
S'blood_pressure'
p1
S'no data'
p2
sS'imu_head'
p3
(dp4
S'yaw'
p5
F1.0532927367041323
sS'roll'
p6
F1.140008829231789
sS'pitch'
p7
F15.896110350823285
ssS'heart_rate'
p8
F0.8059255679786048
sS'imu_torso'
p9
(dp10
g5
F15.003860340336795
sg6
F12.969884125021082
sg7
F5.990808389136197
ssS'steplength'
p11
g2
sS'timestamp'
p12
cdatetime
datetime
p13
(S'\x07\xe2\x01\x1e\x17\x00\x02\x0f\x1f\x18'
p14
tp15
Rp16
sS'speed'
p17
g2
sS'cadence'
p18
g2
s.(dp0
S'blood_pressure'
p1
S'no data'
p2
sS'imu_head'
p3
(dp4
S'yaw'
p5
F0.33695466599441337
sS'roll'
p6
F4.831319278954311
sS'pitch'
p7
F11.418246587985259
ssS'heart_rate'
p8
F20.541475204905336
sS'imu_torso'
p9
(dp10
g5
F0.9713072403574041
sg6
F18.512166603648645
sg7
F9.849318922185784
ssS'steplength'
p11
g2
sS'timestamp'
p12
cdatetime
datetime
p13
(S'\x07\xe2\x01\x1e\x17\x00\x03\x0f&\xe8'
p14
tp15
Rp16
sS'speed'
p17
g2
sS'cadence'
p18
g2
s.(dp0
S'blood_pressure'
p1
S'no data'
p2
sS'imu_head'
p3
(dp4
S'yaw'
p5
F19.313219600227175
sS'roll'
p6
F3.6792569253315754
sS'pitch'
p7
F10.687246193479972
ssS'heart_rate'
p8
F3.367863749492239
sS'imu_torso'
p9
(dp10
g5
F15.029471952626565
sg6
F8.417811715382157
sg7
F9.674442737693168
ssS'steplength'
p11
g2
sS'timestamp'
p12
cdatetime
datetime
p13
(S'\x07\xe2\x01\x1e\x17\x00\x04\x0f.\xb8'
p14
tp15
Rp16
sS'speed'
p17
g2
sS'cadence'
p18
g2
s.(dp0
S'blood_pressure'
p1
S'no data'
p2
sS'imu_head'
p3
(dp4
S'yaw'
p5
F19.524952871187256
sS'roll'
p6
F9.949718593745427
sS'pitch'
p7
F0.7872620338473713
ssS'heart_rate'
p8
F25.316957302362585
sS'imu_torso'
p9
(dp10
g5
F16.727958033102354
sg6
F3.3580029563214486
sg7
F13.483278180083717
ssS'steplength'
p11
g2
sS'timestamp'
p12
cdatetime
datetime
p13
(S'\x07\xe2\x01\x1e\x17\x00\x05\x0f6\x88'
p14
tp15
Rp16
sS'speed'
p17
g2
sS'cadence'
p18
g2
s.(dp0
S'blood_pressure'
p1
S'no data'
p2
sS'imu_head'
p3
(dp4
S'yaw'
p5
F15.196858625289316
sS'roll'
p6
F3.157691513450611
sS'pitch'
p7
F11.753533967763225
ssS'heart_rate'
p8
F85.20126100886762
sS'imu_torso'
p9
(dp10
g5
F19.85294344636998
sg6
F19.101852319327296
sg7
F7.2119562365673335
ssS'steplength'
p11
g2
sS'timestamp'
p12
cdatetime
datetime
p13
(S'\x07\xe2\x01\x1e\x17\x00\x07\x00\x03\xe8'
p14
tp15
Rp16
sS'speed'
p17
g2
sS'cadence'
p18
g2
s.(dp0
S'blood_pressure'
p1
S'no data'
p2
sS'imu_head'
p3
(dp4
S'yaw'
p5
F9.286988679278513
sS'roll'
p6
F14.450339494789542
sS'pitch'
p7
F7.219962811289324
ssS'heart_rate'
p8
F52.461961447780226
sS'imu_torso'
p9
(dp10
g5
F14.645844459140939
sg6
F9.212840384670695
sg7
F8.795362184100684
ssS'steplength'
p11
g2
sS'timestamp'
p12
cdatetime
datetime
p13
(S'\x07\xe2\x01\x1e\x17\x00\x08\x00\x07\xd0'
p14
tp15
Rp16
sS'speed'
p17
g2
sS'cadence'
p18
g2
s.(dp0
S'blood_pressure'
p1
S'no data'
p2
sS'imu_head'
p3
(dp4
S'yaw'
p5
F18.87352027193298
sS'roll'
p6
F2.3832039627250245
sS'pitch'
p7
F1.281729295618561
ssS'heart_rate'
p8
F31.103115944839978
sS'imu_torso'
p9
(dp10
g5
F7.30718444707761
sg6
F6.534929447529079
sg7
F14.051345925869786
ssS'steplength'
p11
g2
sS'timestamp'
p12
cdatetime
datetime
p13
(S'\x07\xe2\x01\x1e\x17\x00\t\x00\x0b\xb8'
p14
tp15
Rp16
sS'speed'
p17
g2
sS'cadence'
p18
g2
s.(dp0
S'blood_pressure'
p1
S'no data'
p2
sS'imu_head'
p3
(dp4
S'yaw'
p5
F9.730403994960682
sS'roll'
p6
F0.7036627794162298
sS'pitch'
p7
F14.30780043705779
ssS'heart_rate'
p8
F55.59849337127102
sS'imu_torso'
p9
(dp10
g5
F19.032790783713992
sg6
F7.1867032214047555
sg7
F4.996068611066038
ssS'steplength'
p11
g2
sS'timestamp'
p12
cdatetime
datetime
p13
(S'\x07\xe2\x01\x1e\x17\x00\n\x00\x0f\xa0'
p14
tp15
Rp16
sS'speed'
p17
g2
sS'cadence'
p18
g2
s.(dp0
S'blood_pressure'
p1
S'no data'
p2
sS'imu_head'
p3
(dp4
S'yaw'
p5
F13.933305328830778
sS'roll'
p6
F4.649002937830358
sS'pitch'
p7
F15.91266478683852
ssS'heart_rate'
p8
F85.75267559392968
sS'imu_torso'
p9
(dp10
g5
F1.6687676092679626
sg6
F5.726403474838868
sg7
F14.914648884529134
ssS'steplength'
p11
g2
sS'timestamp'
p12
cdatetime
datetime
p13
(S'\x07\xe2\x01\x1e\x17\x00\x0b\x00\x17p'
p14
tp15
Rp16
sS'speed'
p17
g2
sS'cadence'
p18
g2
s.(dp0
S'blood_pressure'
p1
S'no data'
p2
sS'imu_head'
p3
(dp4
S'yaw'
p5
F13.652197748940969
sS'roll'
p6
F18.65816265326955
sS'pitch'
p7
F3.4454528017536834
ssS'heart_rate'
p8
F10.395295526534454
sS'imu_torso'
p9
(dp10
g5
F13.707912072512645
sg6
F1.432695249206004
sg7
F15.7224726737933
ssS'steplength'
p11
g2
sS'timestamp'
p12
cdatetime
datetime
p13
(S'\x07\xe2\x01\x1e\x17\x00\x0c\x00\x1bX'
p14
tp15
Rp16
sS'speed'
p17
g2
sS'cadence'
p18
g2
s.(dp0
S'blood_pressure'
p1
S'no data'
p2
sS'imu_head'
p3
(dp4
S'yaw'
p5
F11.145464453513336
sS'roll'
p6
F8.974350233590318
sS'pitch'
p7
F4.499884675708278
ssS'heart_rate'
p8
F35.47439645405609
sS'imu_torso'
p9
(dp10
g5
F15.396866388936463
sg6
F10.215306843725457
sg7
F12.656367754680133
ssS'steplength'
p11
g2
sS'timestamp'
p12
cdatetime
datetime
p13
(S'\x07\xe2\x01\x1e\x17\x00\r\x00#('
p14
tp15
Rp16
sS'speed'
p17
g2
sS'cadence'
p18
g2
s.(dp0
S'blood_pressure'
p1
S'no data'
p2
sS'imu_head'
p3
(dp4
S'yaw'
p5
F15.759350847297636
sS'roll'
p6
F10.164153840413437
sS'pitch'
p7
F17.871247377856385
ssS'heart_rate'
p8
F61.104448372490616
sS'imu_torso'
p9
(dp10
g5
F18.182923932019847
sg6
F7.934514682191409
sg7
F12.267448265786395
ssS'steplength'
p11
g2
sS'timestamp'
p12
cdatetime
datetime
p13
(S'\x07\xe2\x01\x1e\x17\x00\x0e\x00*\xf8'
p14
tp15
Rp16
sS'speed'
p17
g2
sS'cadence'
p18
g2
s.(dp0
S'blood_pressure'
p1
S'no data'
p2
sS'imu_head'
p3
(dp4
S'yaw'
p5
F9.010366146842095
sS'roll'
p6
F16.669791452954797
sS'pitch'
p7
F1.7780165760766309
ssS'heart_rate'
p8
F76.52943921797554
sS'imu_torso'
p9
(dp10
g5
F18.79722036498071
sg6
F4.834100469771241
sg7
F5.158251883760716
ssS'steplength'
p11
g2
sS'timestamp'
p12
cdatetime
datetime
p13
(S'\x07\xe2\x01\x1e\x17\x00\x0f\x00*\xf8'
p14
tp15
Rp16
sS'speed'
p17
g2
sS'cadence'
p18
g2
s.(dp0
S'blood_pressure'
p1
S'no data'
p2
sS'imu_head'
p3
(dp4
S'yaw'
p5
F9.324084098156744
sS'roll'
p6
F6.664350180960145
sS'pitch'
p7
F19.92081085170485
ssS'heart_rate'
p8
F15.69348586167777
sS'imu_torso'
p9
(dp10
g5
F5.733887633976591
sg6
F10.751109614108227
sg7
F8.267194662343897
ssS'steplength'
p11
g2
sS'timestamp'
p12
cdatetime
datetime
p13
(S'\x07\xe2\x01\x1e\x17\x00\x10\x00.\xe0'
p14
tp15
Rp16
sS'speed'
p17
g2
sS'cadence'
p18
g2
s.(dp0
S'blood_pressure'
p1
S'no data'
p2
sS'imu_head'
p3
(dp4
S'yaw'
p5
F11.796794081407775
sS'roll'
p6
F6.718751062916328
sS'pitch'
p7
F10.01514800252854
ssS'heart_rate'
p8
F7.340051534322612
sS'imu_torso'
p9
(dp10
g5
F4.640634012239586
sg6
F13.68189295883257
sg7
F1.7561999973236775
ssS'steplength'
p11
g2
sS'timestamp'
p12
cdatetime
datetime
p13
(S'\x07\xe2\x01\x1e\x17\x00\x11\x006\xb0'
p14
tp15
Rp16
sS'speed'
p17
g2
sS'cadence'
p18
g2
s.(dp0
S'blood_pressure'
p1
S'no data'
p2
sS'imu_head'
p3
(dp4
S'yaw'
p5
F9.745979826477667
sS'roll'
p6
F0.5836639486089412
sS'pitch'
p7
F16.618220353804915
ssS'heart_rate'
p8
F39.92235466314709
sS'imu_torso'
p9
(dp10
g5
F1.5167468715116539
sg6
F15.26557106239795
sg7
F9.075360157300604
ssS'steplength'
p11
g2
sS'timestamp'
p12
cdatetime
datetime
p13
(S'\x07\xe2\x01\x1e\x17\x00\x12\x00>\x80'
p14
tp15
Rp16
sS'speed'
p17
g2
sS'cadence'
p18
g2
s.(dp0
S'blood_pressure'
p1
S'no data'
p2
sS'imu_head'
p3
(dp4
S'yaw'
p5
F9.081126890391545
sS'roll'
p6
F5.200367993033854
sS'pitch'
p7
F8.11468240053885
ssS'heart_rate'
p8
F81.31280395049275
sS'imu_torso'
p9
(dp10
g5
F0.9542195382480756
sg6
F0.7768332019462187
sg7
F2.304686916144163
ssS'steplength'
p11
g2
sS'timestamp'
p12
cdatetime
datetime
p13
(S'\x07\xe2\x01\x1e\x17\x00\x13\x00R\x08'
p14
tp15
Rp16
sS'speed'
p17
g2
sS'cadence'
p18
g2
s.(dp0
S'blood_pressure'
p1
S'no data'
p2
sS'imu_head'
p3
(dp4
S'yaw'
p5
F11.222068694702603
sS'roll'
p6
F7.797768778346706
sS'pitch'
p7
F10.423256705748917
ssS'heart_rate'
p8
F61.10686809360257
sS'imu_torso'
p9
(dp10
g5
F6.147503008256487
sg6
F14.850445537515442
sg7
F10.973726455670734
ssS'steplength'
p11
g2
sS'timestamp'
p12
cdatetime
datetime
p13
(S'\x07\xe2\x01\x1e\x17\x00\x14\x00N '
p14
tp15
Rp16
sS'speed'
p17
g2
sS'cadence'
p18
g2
s.(dp0
S'blood_pressure'
p1
S'no data'
p2
sS'imu_head'
p3
(dp4
S'yaw'
p5
F2.0896159159233685
sS'roll'
p6
F3.3690402673384146
sS'pitch'
p7
F9.376619645870187
ssS'heart_rate'
p8
F31.30011206398271
sS'imu_torso'
p9
(dp10
g5
F17.71672558206224
sg6
F16.760894473288968
sg7
F10.965668080036464
ssS'steplength'
p11
g2
sS'timestamp'
p12
cdatetime
datetime
p13
(S'\x07\xe2\x01\x1e\x17\x00\x15\x00U\xf0'
p14
tp15
Rp16
sS'speed'
p17
g2
sS'cadence'
p18
g2
s.(dp0
S'blood_pressure'
p1
S'no data'
p2
sS'imu_head'
p3
(dp4
S'yaw'
p5
F14.471798350139704
sS'roll'
p6
F7.200953652794113
sS'pitch'
p7
F5.994715992212001
ssS'heart_rate'
p8
F85.67487077627166
sS'imu_torso'
p9
(dp10
g5
F19.08985376348061
sg6
F3.147840041162171
sg7
F8.850702366121368
ssS'steplength'
p11
g2
sS'timestamp'
p12
cdatetime
datetime
p13
(S'\x07\xe2\x01\x1e\x17\x00\x16\x00Y\xd8'
p14
tp15
Rp16
sS'speed'
p17
g2
sS'cadence'
p18
g2
s.(dp0
S'blood_pressure'
p1
S'no data'
p2
sS'imu_head'
p3
(dp4
S'yaw'
p5
F4.496229384333783
sS'roll'
p6
F1.2527000829773294
sS'pitch'
p7
F16.615688136107952
ssS'heart_rate'
p8
F6.628411159765957
sS'imu_torso'
p9
(dp10
g5
F4.821260868165198
sg6
F17.86286924063822
sg7
F17.838077179787764
ssS'steplength'
p11
g2
sS'timestamp'
p12
cdatetime
datetime
p13
(S'\x07\xe2\x01\x1e\x17\x00\x17\x00]\xc0'
p14
tp15
Rp16
sS'speed'
p17
g2
sS'cadence'
p18
g2
s.(dp0
S'blood_pressure'
p1
S'no data'
p2
sS'imu_head'
p3
(dp4
S'yaw'
p5
F19.931482236274608
sS'roll'
p6
F8.193674462272213
sS'pitch'
p7
F13.158264242010002
ssS'heart_rate'
p8
F82.05995773133601
sS'imu_torso'
p9
(dp10
g5
F13.666745308458752
sg6
F12.801720849017746
sg7
F17.025293124449824
ssS'steplength'
p11
g2
sS'timestamp'
p12
cdatetime
datetime
p13
(S'\x07\xe2\x01\x1e\x17\x00\x18\x00ix'
p14
tp15
Rp16
sS'speed'
p17
g2
sS'cadence'
p18
g2
s.(dp0
S'blood_pressure'
p1
S'no data'
p2
sS'imu_head'
p3
(dp4
S'yaw'
p5
F5.8307112409359
sS'roll'
p6
F2.9101522965956805
sS'pitch'
p7
F10.336925512604093
ssS'heart_rate'
p8
F3.5862565261203017
sS'imu_torso'
p9
(dp10
g5
F17.858676356179583
sg6
F18.930760913478608
sg7
F1.6356569686335742
ssS'steplength'
p11
g2
sS'timestamp'
p12
cdatetime
datetime
p13
(S'\x07\xe2\x01\x1e\x17\x00\x19\x00m`'
p14
tp15
Rp16
sS'speed'
p17
g2
sS'cadence'
p18
g2
s.(dp0
S'blood_pressure'
p1
S'no data'
p2
sS'imu_head'
p3
(dp4
S'yaw'
p5
F8.44250172643351
sS'roll'
p6
F7.807758842052888
sS'pitch'
p7
F19.131344382363825
ssS'heart_rate'
p8
F58.13461786136839
sS'imu_torso'
p9
(dp10
g5
F3.366551082023763
sg6
F5.040479403689131
sg7
F5.81250266824534
ssS'steplength'
p11
g2
sS'timestamp'
p12
cdatetime
datetime
p13
(S'\x07\xe2\x01\x1e\x17\x00\x1a\x00qH'
p14
tp15
Rp16
sS'speed'
p17
g2
sS'cadence'
p18
g2
s.(dp0
S'blood_pressure'
p1
S'no data'
p2
sS'imu_head'
p3
(dp4
S'yaw'
p5
F15.697249481925873
sS'roll'
p6
F15.475018693001088
sS'pitch'
p7
F2.575956970183071
ssS'heart_rate'
p8
F30.006828670039244
sS'imu_torso'
p9
(dp10
g5
F2.3594529061437486
sg6
F15.597989432210248
sg7
F0.2202380457176467
ssS'steplength'
p11
g2
sS'timestamp'
p12
cdatetime
datetime
p13
(S'\x07\xe2\x01\x1e\x17\x00\x1b\x00u0'
p14
tp15
Rp16
sS'speed'
p17
g2
sS'cadence'
p18
g2
s.(dp0
S'blood_pressure'
p1
S'no data'
p2
sS'imu_head'
p3
(dp4
S'yaw'
p5
F17.43278711335374
sS'roll'
p6
F17.956337712826496
sS'pitch'
p7
F17.851138673708615
ssS'heart_rate'
p8
F92.83623887115797
sS'imu_torso'
p9
(dp10
g5
F0.5432964340024093
sg6
F14.794362782238613
sg7
F10.587101766936291
ssS'steplength'
p11
g2
sS'timestamp'
p12
cdatetime
datetime
p13
(S'\x07\xe2\x01\x1e\x17\x00\x1c\x00}\x00'
p14
tp15
Rp16
sS'speed'
p17
g2
sS'cadence'
p18
g2
s.(dp0
S'blood_pressure'
p1
S'no data'
p2
sS'imu_head'
p3
(dp4
S'yaw'
p5
F1.0395129592583863
sS'roll'
p6
F17.28967168663503
sS'pitch'
p7
F7.804176552954408
ssS'heart_rate'
p8
F64.10261622401346
sS'imu_torso'
p9
(dp10
g5
F7.70089043916252
sg6
F12.106069959693453
sg7
F9.55651952121395
ssS'steplength'
p11
g2
sS'timestamp'
p12
cdatetime
datetime
p13
(S'\x07\xe2\x01\x1e\x17\x00\x1d\x00\x84\xd0'
p14
tp15
Rp16
sS'speed'
p17
g2
sS'cadence'
p18
g2
s.(dp0
S'blood_pressure'
p1
S'no data'
p2
sS'imu_head'
p3
(dp4
S'yaw'
p5
F5.916781770756911
sS'roll'
p6
F9.825019251003697
sS'pitch'
p7
F5.009597885754475
ssS'heart_rate'
p8
F10.37626022335284
sS'imu_torso'
p9
(dp10
g5
F8.045259077440408
sg6
F11.000821220361265
sg7
F7.534121729580474
ssS'steplength'
p11
g2
sS'timestamp'
p12
cdatetime
datetime
p13
(S'\x07\xe2\x01\x1e\x17\x00\x1e\x00\x88\xb8'
p14
tp15
Rp16
sS'speed'
p17
g2
sS'cadence'
p18
g2
s.(dp0
S'blood_pressure'
p1
S'no data'
p2
sS'imu_head'
p3
(dp4
S'yaw'
p5
F1.584486294573455
sS'roll'
p6
F7.936517699078074
sS'pitch'
p7
F14.010847865622331
ssS'heart_rate'
p8
F20.016677733919487
sS'imu_torso'
p9
(dp10
g5
F10.430069776559584
sg6
F11.57788332226483
sg7
F16.869390358444424
ssS'steplength'
p11
g2
sS'timestamp'
p12
cdatetime
datetime
p13
(S'\x07\xe2\x01\x1e\x17\x00\x1f\x00\x90\x88'
p14
tp15
Rp16
sS'speed'
p17
g2
sS'cadence'
p18
g2
s.(dp0
S'blood_pressure'
p1
S'no data'
p2
sS'imu_head'
p3
(dp4
S'yaw'
p5
F5.010386278785264
sS'roll'
p6
F4.266756489850618
sS'pitch'
p7
F13.53319452514529
ssS'heart_rate'
p8
F63.211404434974725
sS'imu_torso'
p9
(dp10
g5
F1.4931018244374594
sg6
F8.568096265751581
sg7
F12.6107313514682
ssS'steplength'
p11
g2
sS'timestamp'
p12
cdatetime
datetime
p13
(S'\x07\xe2\x01\x1e\x17\x00 \x00\x94p'
p14
tp15
Rp16
sS'speed'
p17
g2
sS'cadence'
p18
g2
s.(dp0
S'blood_pressure'
p1
S'no data'
p2
sS'imu_head'
p3
(dp4
S'yaw'
p5
F15.991124089535514
sS'roll'
p6
F6.901229216653406
sS'pitch'
p7
F12.016751935756515
ssS'heart_rate'
p8
F67.3107104965638
sS'imu_torso'
p9
(dp10
g5
F17.043647056931782
sg6
F17.95375082752512
sg7
F5.691230902624951
ssS'steplength'
p11
g2
sS'timestamp'
p12
cdatetime
datetime
p13
(S'\x07\xe2\x01\x1e\x17\x00!\x00\x9c@'
p14
tp15
Rp16
sS'speed'
p17
g2
sS'cadence'
p18
g2
s.(dp0
S'blood_pressure'
p1
S'no data'
p2
sS'imu_head'
p3
(dp4
S'yaw'
p5
F4.129956366910157
sS'roll'
p6
F13.566817072944106
sS'pitch'
p7
F10.324927720902872
ssS'heart_rate'
p8
F40.05336493458541
sS'imu_torso'
p9
(dp10
g5
F7.08355976416299
sg6
F12.284998458963855
sg7
F19.808860012727067
ssS'steplength'
p11
g2
sS'timestamp'
p12
cdatetime
datetime
p13
(S'\x07\xe2\x01\x1e\x17\x00"\x00\xa7\xf8'
p14
tp15
Rp16
sS'speed'
p17
g2
sS'cadence'
p18
g2
s.(dp0
S'blood_pressure'
p1
S'no data'
p2
sS'imu_head'
p3
(dp4
S'yaw'
p5
F11.48328976514687
sS'roll'
p6
F10.954501688324129
sS'pitch'
p7
F13.297682420547364
ssS'heart_rate'
p8
F76.00921399152894
sS'imu_torso'
p9
(dp10
g5
F6.862574249628777
sg6
F5.830588546286492
sg7
F5.961310631708789
ssS'steplength'
p11
g2
sS'timestamp'
p12
cdatetime
datetime
p13
(S'\x07\xe2\x01\x1e\x17\x00#\x00\xab\xe0'
p14
tp15
Rp16
sS'speed'
p17
g2
sS'cadence'
p18
g2
s.(dp0
S'blood_pressure'
p1
S'no data'
p2
sS'imu_head'
p3
(dp4
S'yaw'
p5
F13.159353544332644
sS'roll'
p6
F5.142619329483747
sS'pitch'
p7
F8.527707660038084
ssS'heart_rate'
p8
F37.57783233964267
sS'imu_torso'
p9
(dp10
g5
F3.275612340780598
sg6
F10.49194739708242
sg7
F9.090356822814643
ssS'steplength'
p11
g2
sS'timestamp'
p12
cdatetime
datetime
p13
(S'\x07\xe2\x01\x1e\x17\x00$\x00\xaf\xc8'
p14
tp15
Rp16
sS'speed'
p17
g2
sS'cadence'
p18
g2
s.(dp0
S'blood_pressure'
p1
S'no data'
p2
sS'imu_head'
p3
(dp4
S'yaw'
p5
F7.367410817762625
sS'roll'
p6
F3.7596905297326444
sS'pitch'
p7
F10.2152010609096
ssS'heart_rate'
p8
F55.36219528678039
sS'imu_torso'
p9
(dp10
g5
F1.4027131221011868
sg6
F15.004954467076047
sg7
F9.586643994482753
ssS'steplength'
p11
g2
sS'timestamp'
p12
cdatetime
datetime
p13
(S'\x07\xe2\x01\x1e\x17\x00%\x00\xb3\xb0'
p14
tp15
Rp16
sS'speed'
p17
g2
sS'cadence'
p18
g2
s.(dp0
S'blood_pressure'
p1
S'no data'
p2
sS'imu_head'
p3
(dp4
S'yaw'
p5
F14.19757016535764
sS'roll'
p6
F4.694353016322976
sS'pitch'
p7
F15.69415712933668
ssS'heart_rate'
p8
F58.38895399655279
sS'imu_torso'
p9
(dp10
g5
F15.926697185236204
sg6
F1.7081098320626609
sg7
F15.0156987355054
ssS'steplength'
p11
g2
sS'timestamp'
p12
cdatetime
datetime
p13
(S'\x07\xe2\x01\x1e\x17\x00&\x00\xbb\x80'
p14
tp15
Rp16
sS'speed'
p17
g2
sS'cadence'
p18
g2
s.(dp0
S'blood_pressure'
p1
S'no data'
p2
sS'imu_head'
p3
(dp4
S'yaw'
p5
F9.209187148874701
sS'roll'
p6
F1.7597381283532298
sS'pitch'
p7
F4.221369737484761
ssS'heart_rate'
p8
F6.006654139103729
sS'imu_torso'
p9
(dp10
g5
F10.437711513525393
sg6
F19.254204078461164
sg7
F0.11300909021715988
ssS'steplength'
p11
g2
sS'timestamp'
p12
cdatetime
datetime
p13
(S"\x07\xe2\x01\x1e\x17\x00'\x00\xbfh"
p14
tp15
Rp16
sS'speed'
p17
g2
sS'cadence'
p18
g2
s.(dp0
S'blood_pressure'
p1
S'no data'
p2
sS'imu_head'
p3
(dp4
S'yaw'
p5
F6.34381949349544
sS'roll'
p6
F10.029756952096285
sS'pitch'
p7
F13.084830320697362
ssS'heart_rate'
p8
F69.22983799772524
sS'imu_torso'
p9
(dp10
g5
F11.463894670965448
sg6
F13.625006809055794
sg7
F2.7606449851483728
ssS'steplength'
p11
g2
sS'timestamp'
p12
cdatetime
datetime
p13
(S'\x07\xe2\x01\x1e\x17\x00(\x00\xc78'
p14
tp15
Rp16
sS'speed'
p17
g2
sS'cadence'
p18
g2
s.(dp0
S'blood_pressure'
p1
S'no data'
p2
sS'imu_head'
p3
(dp4
S'yaw'
p5
F13.642231441441455
sS'roll'
p6
F7.541665314248052
sS'pitch'
p7
F7.045023073216008
ssS'heart_rate'
p8
F9.163278411305864
sS'imu_torso'
p9
(dp10
g5
F4.986753930135994
sg6
F6.218028637770196
sg7
F10.981381062126815
ssS'steplength'
p11
g2
sS'timestamp'
p12
cdatetime
datetime
p13
(S'\x07\xe2\x01\x1e\x17\x00)\x00\xcf\x08'
p14
tp15
Rp16
sS'speed'
p17
g2
sS'cadence'
p18
g2
s.(dp0
S'blood_pressure'
p1
S'no data'
p2
sS'imu_head'
p3
(dp4
S'yaw'
p5
F16.346719114555363
sS'roll'
p6
F13.737780906182271
sS'pitch'
p7
F14.65875480900836
ssS'heart_rate'
p8
F16.839828946719816
sS'imu_torso'
p9
(dp10
g5
F1.959332413661401
sg6
F13.918095461496627
sg7
F17.310735052495218
ssS'steplength'
p11
g2
sS'timestamp'
p12
cdatetime
datetime
p13
(S'\x07\xe2\x01\x1e\x17\x00*\x00\xd6\xd8'
p14
tp15
Rp16
sS'speed'
p17
g2
sS'cadence'
p18
g2
s.(dp0
S'blood_pressure'
p1
S'no data'
p2
sS'imu_head'
p3
(dp4
S'yaw'
p5
F0.4442589457214785
sS'roll'
p6
F15.026323694703272
sS'pitch'
p7
F13.179757052097134
ssS'heart_rate'
p8
F3.4640964903059346
sS'imu_torso'
p9
(dp10
g5
F19.500153363675043
sg6
F16.85433348841514
sg7
F4.646788599143243
ssS'steplength'
p11
g2
sS'timestamp'
p12
cdatetime
datetime
p13
(S'\x07\xe2\x01\x1e\x17\x00+\x00\xe2\x90'
p14
tp15
Rp16
sS'speed'
p17
g2
sS'cadence'
p18
g2
s.(dp0
S'blood_pressure'
p1
S'no data'
p2
sS'imu_head'
p3
(dp4
S'yaw'
p5
F17.155607858164068
sS'roll'
p6
F1.2191860906198926
sS'pitch'
p7
F7.2820281703801655
ssS'heart_rate'
p8
F34.3103948195818
sS'imu_torso'
p9
(dp10
g5
F17.920051218393166
sg6
F14.856967562956777
sg7
F6.5433756266341225
ssS'steplength'
p11
g2
sS'timestamp'
p12
cdatetime
datetime
p13
(S'\x07\xe2\x01\x1e\x17\x00,\x00\xe6x'
p14
tp15
Rp16
sS'speed'
p17
g2
sS'cadence'
p18
g2
s.(dp0
S'blood_pressure'
p1
S'no data'
p2
sS'imu_head'
p3
(dp4
S'yaw'
p5
F11.642573811150843
sS'roll'
p6
F19.20910702159327
sS'pitch'
p7
F8.87426375197869
ssS'heart_rate'
p8
F69.41537538026998
sS'imu_torso'
p9
(dp10
g5
F7.143193395132483
sg6
F19.05525713025469
sg7
F0.4468437045654894
ssS'steplength'
p11
g2
sS'timestamp'
p12
cdatetime
datetime
p13
(S'\x07\xe2\x01\x1e\x17\x00-\x00\xeeH'
p14
tp15
Rp16
sS'speed'
p17
g2
sS'cadence'
p18
g2
s.(dp0
S'blood_pressure'
p1
S'no data'
p2
sS'imu_head'
p3
(dp4
S'yaw'
p5
F13.36688155414192
sS'roll'
p6
F14.46555238659105
sS'pitch'
p7
F10.249474630814678
ssS'heart_rate'
p8
F82.98476553583455
sS'imu_torso'
p9
(dp10
g5
F5.280961548180263
sg6
F6.517285890267166
sg7
F3.5087156227057847
ssS'steplength'
p11
g2
sS'timestamp'
p12
cdatetime
datetime
p13
(S'\x07\xe2\x01\x1e\x17\x00.\x00\xf6\x18'
p14
tp15
Rp16
sS'speed'
p17
g2
sS'cadence'
p18
g2
s.(dp0
S'blood_pressure'
p1
S'no data'
p2
sS'imu_head'
p3
(dp4
S'yaw'
p5
F15.284501351369409
sS'roll'
p6
F9.523847573750647
sS'pitch'
p7
F2.9479929035807317
ssS'heart_rate'
p8
F30.67207286449839
sS'imu_torso'
p9
(dp10
g5
F4.5011019292654115
sg6
F6.291042000544076
sg7
F0.7077239382075673
ssS'steplength'
p11
g2
sS'timestamp'
p12
cdatetime
datetime
p13
(S'\x07\xe2\x01\x1e\x17\x00/\x00\xfd\xe8'
p14
tp15
Rp16
sS'speed'
p17
g2
sS'cadence'
p18
g2
s.(dp0
S'blood_pressure'
p1
S'no data'
p2
sS'imu_head'
p3
(dp4
S'yaw'
p5
F4.226082133092756
sS'roll'
p6
F4.736359624572806
sS'pitch'
p7
F8.126705765312455
ssS'heart_rate'
p8
F91.46602004567708
sS'imu_torso'
p9
(dp10
g5
F3.855452867800968
sg6
F10.330600089839145
sg7
F17.648688478887625
ssS'steplength'
p11
g2
sS'timestamp'
p12
cdatetime
datetime
p13
(S'\x07\xe2\x01\x1e\x17\x000\x01\x05\xb8'
p14
tp15
Rp16
sS'speed'
p17
g2
sS'cadence'
p18
g2
s.(dp0
S'blood_pressure'
p1
S'no data'
p2
sS'imu_head'
p3
(dp4
S'yaw'
p5
F17.071646060704943
sS'roll'
p6
F1.0980481384815888
sS'pitch'
p7
F13.894712763311523
ssS'heart_rate'
p8
F0.9950760667005842
sS'imu_torso'
p9
(dp10
g5
F12.855461827233954
sg6
F14.800005239192956
sg7
F12.073476589311994
ssS'steplength'
p11
g2
sS'timestamp'
p12
cdatetime
datetime
p13
(S'\x07\xe2\x01\x1e\x17\x001\x01\t\xa0'
p14
tp15
Rp16
sS'speed'
p17
g2
sS'cadence'
p18
g2
s.(dp0
S'blood_pressure'
p1
S'no data'
p2
sS'imu_head'
p3
(dp4
S'yaw'
p5
F6.245959586017634
sS'roll'
p6
F7.664959369727924
sS'pitch'
p7
F7.258183032814854
ssS'heart_rate'
p8
F20.063711324944745
sS'imu_torso'
p9
(dp10
g5
F14.708544668361064
sg6
F2.54138435978406
sg7
F14.57581663032477
ssS'steplength'
p11
g2
sS'timestamp'
p12
cdatetime
datetime
p13
(S'\x07\xe2\x01\x1e\x17\x002\x01\x11p'
p14
tp15
Rp16
sS'speed'
p17
g2
sS'cadence'
p18
g2
s.(dp0
S'blood_pressure'
p1
S'no data'
p2
sS'imu_head'
p3
(dp4
S'yaw'
p5
F15.485733146723879
sS'roll'
p6
F3.414763204755351
sS'pitch'
p7
F3.7444547040168175
ssS'heart_rate'
p8
F66.5095601602619
sS'imu_torso'
p9
(dp10
g5
F11.059708285284085
sg6
F2.185261363065838
sg7
F10.40909868319927
ssS'steplength'
p11
g2
sS'timestamp'
p12
cdatetime
datetime
p13
(S'\x07\xe2\x01\x1e\x17\x003\x01\x19@'
p14
tp15
Rp16
sS'speed'
p17
g2
sS'cadence'
p18
g2
s.(dp0
S'blood_pressure'
p1
S'no data'
p2
sS'imu_head'
p3
(dp4
S'yaw'
p5
F11.519831624784347
sS'roll'
p6
F9.103791965512118
sS'pitch'
p7
F19.44746140396749
ssS'heart_rate'
p8
F13.778415329054827
sS'imu_torso'
p9
(dp10
g5
F19.447962048748145
sg6
F4.345768847591356
sg7
F7.469647921908278
ssS'steplength'
p11
g2
sS'timestamp'
p12
cdatetime
datetime
p13
(S'\x07\xe2\x01\x1e\x17\x004\x01!\x10'
p14
tp15
Rp16
sS'speed'
p17
g2
sS'cadence'
p18
g2
s.(dp0
S'blood_pressure'
p1
S'no data'
p2
sS'imu_head'
p3
(dp4
S'yaw'
p5
F2.9421837131265427
sS'roll'
p6
F10.115158900554595
sS'pitch'
p7
F11.18278268270486
ssS'heart_rate'
p8
F17.666932015308344
sS'imu_torso'
p9
(dp10
g5
F0.8710671354395494
sg6
F14.564316816451054
sg7
F16.236250007199516
ssS'steplength'
p11
g2
sS'timestamp'
p12
cdatetime
datetime
p13
(S'\x07\xe2\x01\x1e\x17\x005\x01(\xe0'
p14
tp15
Rp16
sS'speed'
p17
g2
sS'cadence'
p18
g2
s.(dp0
S'blood_pressure'
p1
S'no data'
p2
sS'imu_head'
p3
(dp4
S'yaw'
p5
F11.156150289263973
sS'roll'
p6
F9.467352783388016
sS'pitch'
p7
F2.980561562270305
ssS'heart_rate'
p8
F92.31010649574169
sS'imu_torso'
p9
(dp10
g5
F18.50606127374576
sg6
F5.558502747305589
sg7
F0.4519266013696499
ssS'steplength'
p11
g2
sS'timestamp'
p12
cdatetime
datetime
p13
(S'\x07\xe2\x01\x1e\x17\x006\x010\xb0'
p14
tp15
Rp16
sS'speed'
p17
g2
sS'cadence'
p18
g2
s.(dp0
S'blood_pressure'
p1
S'no data'
p2
sS'imu_head'
p3
(dp4
S'yaw'
p5
F19.183130713462354
sS'roll'
p6
F4.540041636284384
sS'pitch'
p7
F15.271040236881374
ssS'heart_rate'
p8
F23.939479000586772
sS'imu_torso'
p9
(dp10
g5
F2.7394948483843717
sg6
F9.090608077191673
sg7
F19.811874949225558
ssS'steplength'
p11
g2
sS'timestamp'
p12
cdatetime
datetime
p13
(S'\x07\xe2\x01\x1e\x17\x007\x01<h'
p14
tp15
Rp16
sS'speed'
p17
g2
sS'cadence'
p18
g2
s.(dp0
S'blood_pressure'
p1
S'no data'
p2
sS'imu_head'
p3
(dp4
S'yaw'
p5
F14.887134410928544
sS'roll'
p6
F15.15426819570466
sS'pitch'
p7
F5.565725392000463
ssS'heart_rate'
p8
F67.47622432561961
sS'imu_torso'
p9
(dp10
g5
F2.3781947592429398
sg6
F9.271433965535712
sg7
F10.902509719567561
ssS'steplength'
p11
g2
sS'timestamp'
p12
cdatetime
datetime
p13
(S'\x07\xe2\x01\x1e\x17\x008\x01D8'
p14
tp15
Rp16
sS'speed'
p17
g2
sS'cadence'
p18
g2
s.(dp0
S'blood_pressure'
p1
S'no data'
p2
sS'imu_head'
p3
(dp4
S'yaw'
p5
F13.597421696168524
sS'roll'
p6
F8.013161094037484
sS'pitch'
p7
F9.921276373668206
ssS'heart_rate'
p8
F35.42604550809614
sS'imu_torso'
p9
(dp10
g5
F12.068429045127317
sg6
F16.333970961233433
sg7
F17.658922599491266
ssS'steplength'
p11
g2
sS'timestamp'
p12
cdatetime
datetime
p13
(S'\x07\xe2\x01\x1e\x17\x009\x01O\xf0'
p14
tp15
Rp16
sS'speed'
p17
g2
sS'cadence'
p18
g2
s.(dp0
S'blood_pressure'
p1
S'no data'
p2
sS'imu_head'
p3
(dp4
S'yaw'
p5
F1.58455511751328
sS'roll'
p6
F2.6536136145535094
sS'pitch'
p7
F8.587299671053428
ssS'heart_rate'
p8
F24.941895065150767
sS'imu_torso'
p9
(dp10
g5
F2.8274425194706088
sg6
F12.178335019005429
sg7
F1.554650001042892
ssS'steplength'
p11
g2
sS'timestamp'
p12
cdatetime
datetime
p13
(S'\x07\xe2\x01\x1e\x17\x00:\x01W\xc0'
p14
tp15
Rp16
sS'speed'
p17
g2
sS'cadence'
p18
g2
s.(dp0
S'blood_pressure'
p1
S'no data'
p2
sS'imu_head'
p3
(dp4
S'yaw'
p5
F10.57184801626131
sS'roll'
p6
F9.676098070711172
sS'pitch'
p7
F13.10016455450635
ssS'heart_rate'
p8
F48.39162668663198
sS'imu_torso'
p9
(dp10
g5
F18.093013671845878
sg6
F9.91352138025597
sg7
F5.014540450652813
ssS'steplength'
p11
g2
sS'timestamp'
p12
cdatetime
datetime
p13
(S'\x07\xe2\x01\x1e\x17\x00;\x01_\x90'
p14
tp15
Rp16
sS'speed'
p17
g2
sS'cadence'
p18
g2
s.(dp0
S'blood_pressure'
p1
S'no data'
p2
sS'imu_head'
p3
(dp4
S'yaw'
p5
F0.43318118363993907
sS'roll'
p6
F2.254777563653023
sS'pitch'
p7
F11.954693152798958
ssS'heart_rate'
p8
F39.44607805410341
sS'imu_torso'
p9
(dp10
g5
F6.566515823743055
sg6
F12.901225344708365
sg7
F3.480844740749478
ssS'steplength'
p11
g2
sS'timestamp'
p12
cdatetime
datetime
p13
(S'\x07\xe2\x01\x1e\x17\x01\x00\x01cx'
p14
tp15
Rp16
sS'speed'
p17
g2
sS'cadence'
p18
g2
s.(dp0
S'blood_pressure'
p1
S'no data'
p2
sS'imu_head'
p3
(dp4
S'yaw'
p5
F6.982326871374404
sS'roll'
p6
F5.191435170341007
sS'pitch'
p7
F14.833392005150923
ssS'heart_rate'
p8
F39.11795887545926
sS'imu_torso'
p9
(dp10
g5
F4.3346852984222695
sg6
F2.219287264287566
sg7
F10.417047512069871
ssS'steplength'
p11
g2
sS'timestamp'
p12
cdatetime
datetime
p13
(S'\x07\xe2\x01\x1e\x17\x01\x01\x01o0'
p14
tp15
Rp16
sS'speed'
p17
g2
sS'cadence'
p18
g2
s.(dp0
S'blood_pressure'
p1
S'no data'
p2
sS'imu_head'
p3
(dp4
S'yaw'
p5
F6.1498775883718615
sS'roll'
p6
F17.332385523689815
sS'pitch'
p7
F8.650873626845556
ssS'heart_rate'
p8
F85.60344202007781
sS'imu_torso'
p9
(dp10
g5
F5.735766978068422
sg6
F16.711810025413925
sg7
F1.679996854382153
ssS'steplength'
p11
g2
sS'timestamp'
p12
cdatetime
datetime
p13
(S'\x07\xe2\x01\x1e\x17\x01\x02\x01w\x00'
p14
tp15
Rp16
sS'speed'
p17
g2
sS'cadence'
p18
g2
s.(dp0
S'blood_pressure'
p1
S'no data'
p2
sS'imu_head'
p3
(dp4
S'yaw'
p5
F6.1998750846625565
sS'roll'
p6
F9.905155684431115
sS'pitch'
p7
F12.60682481761895
ssS'heart_rate'
p8
F63.520921212844485
sS'imu_torso'
p9
(dp10
g5
F10.817243093008756
sg6
F6.4532933545106435
sg7
F9.175756304594847
ssS'steplength'
p11
g2
sS'timestamp'
p12
cdatetime
datetime
p13
(S'\x07\xe2\x01\x1e\x17\x01\x03\x01~\xd0'
p14
tp15
Rp16
sS'speed'
p17
g2
sS'cadence'
p18
g2
s.(dp0
S'blood_pressure'
p1
S'no data'
p2
sS'imu_head'
p3
(dp4
S'yaw'
p5
F2.6934859248559406
sS'roll'
p6
F10.901785951143715
sS'pitch'
p7
F10.087846772359516
ssS'heart_rate'
p8
F57.93722584122371
sS'imu_torso'
p9
(dp10
g5
F15.103724243669665
sg6
F10.216387624361381
sg7
F6.1799812614273915
ssS'steplength'
p11
g2
sS'timestamp'
p12
cdatetime
datetime
p13
(S'\x07\xe2\x01\x1e\x17\x01\x04\x01\x86\xa0'
p14
tp15
Rp16
sS'speed'
p17
g2
sS'cadence'
p18
g2
s.(dp0
S'blood_pressure'
p1
S'no data'
p2
sS'imu_head'
p3
(dp4
S'yaw'
p5
F2.6569262411410444
sS'roll'
p6
F5.680290700522543
sS'pitch'
p7
F5.477373445712271
ssS'heart_rate'
p8
F5.825469611753942
sS'imu_torso'
p9
(dp10
g5
F5.4969214802384325
sg6
F3.7524599740100473
sg7
F17.151153182041014
ssS'steplength'
p11
g2
sS'timestamp'
p12
cdatetime
datetime
p13
(S'\x07\xe2\x01\x1e\x17\x01\x05\x01\x92X'
p14
tp15
Rp16
sS'speed'
p17
g2
sS'cadence'
p18
g2
s.(dp0
S'blood_pressure'
p1
S'no data'
p2
sS'imu_head'
p3
(dp4
S'yaw'
p5
F1.4508509980117923
sS'roll'
p6
F16.278092051535506
sS'pitch'
p7
F6.962173850941376
ssS'heart_rate'
p8
F27.22117293673779
sS'imu_torso'
p9
(dp10
g5
F18.53528797326362
sg6
F1.930668353677214
sg7
F18.99184690211969
ssS'steplength'
p11
g2
sS'timestamp'
p12
cdatetime
datetime
p13
(S'\x07\xe2\x01\x1e\x17\x01\x06\x01\x9a('
p14
tp15
Rp16
sS'speed'
p17
g2
sS'cadence'
p18
g2
s.(dp0
S'blood_pressure'
p1
S'no data'
p2
sS'imu_head'
p3
(dp4
S'yaw'
p5
F0.27234468234158093
sS'roll'
p6
F18.635744647362674
sS'pitch'
p7
F5.206920333463357
ssS'heart_rate'
p8
F81.70157479806527
sS'imu_torso'
p9
(dp10
g5
F6.593882567722629
sg6
F4.8152437804519455
sg7
F9.5075207519709
ssS'steplength'
p11
g2
sS'timestamp'
p12
cdatetime
datetime
p13
(S'\x07\xe2\x01\x1e\x17\x01\x07\x01\xa5\xe0'
p14
tp15
Rp16
sS'speed'
p17
g2
sS'cadence'
p18
g2
s.(dp0
S'blood_pressure'
p1
S'no data'
p2
sS'imu_head'
p3
(dp4
S'yaw'
p5
F0.7316725402145119
sS'roll'
p6
F13.285785231707393
sS'pitch'
p7
F3.0755207564110454
ssS'heart_rate'
p8
F76.083375273674
sS'imu_torso'
p9
(dp10
g5
F4.582429527913858
sg6
F10.778847155879522
sg7
F19.020375752351196
ssS'steplength'
p11
g2
sS'timestamp'
p12
cdatetime
datetime
p13
(S'\x07\xe2\x01\x1e\x17\x01\x08\x01\xb1\x98'
p14
tp15
Rp16
sS'speed'
p17
g2
sS'cadence'
p18
g2
s.(dp0
S'blood_pressure'
p1
S'no data'
p2
sS'imu_head'
p3
(dp4
S'yaw'
p5
F0.14815109350661437
sS'roll'
p6
F3.068192293834
sS'pitch'
p7
F6.609567962859444
ssS'heart_rate'
p8
F35.075060762963304
sS'imu_torso'
p9
(dp10
g5
F19.48413449225832
sg6
F2.977339062382318
sg7
F12.449599616164985
ssS'steplength'
p11
g2
sS'timestamp'
p12
cdatetime
datetime
p13
(S'\x07\xe2\x01\x1e\x17\x01\t\x01\xb9h'
p14
tp15
Rp16
sS'speed'
p17
g2
sS'cadence'
p18
g2
s.(dp0
S'blood_pressure'
p1
S'no data'
p2
sS'imu_head'
p3
(dp4
S'yaw'
p5
F1.919416346720364
sS'roll'
p6
F7.83433930645846
sS'pitch'
p7
F17.214297063099227
ssS'heart_rate'
p8
F6.392568513140551
sS'imu_torso'
p9
(dp10
g5
F5.287962920579949
sg6
F0.11376824179889944
sg7
F2.9620175353808698
ssS'steplength'
p11
g2
sS'timestamp'
p12
cdatetime
datetime
p13
(S'\x07\xe2\x01\x1e\x17\x01\n\x01\xc18'
p14
tp15
Rp16
sS'speed'
p17
g2
sS'cadence'
p18
g2
s.(dp0
S'blood_pressure'
p1
S'no data'
p2
sS'imu_head'
p3
(dp4
S'yaw'
p5
F8.460486258352926
sS'roll'
p6
F17.153558664763132
sS'pitch'
p7
F1.5688379910716699
ssS'heart_rate'
p8
F98.61836003064724
sS'imu_torso'
p9
(dp10
g5
F19.862298386758933
sg6
F15.568535544824893
sg7
F5.32621330163479
ssS'steplength'
p11
g2
sS'timestamp'
p12
cdatetime
datetime
p13
(S'\x07\xe2\x01\x1e\x17\x01\x0b\x01\xcc\xf0'
p14
tp15
Rp16
sS'speed'
p17
g2
sS'cadence'
p18
g2
s.(dp0
S'blood_pressure'
p1
S'no data'
p2
sS'imu_head'
p3
(dp4
S'yaw'
p5
F18.36925394868479
sS'roll'
p6
F19.77772780861458
sS'pitch'
p7
F18.262678318202767
ssS'heart_rate'
p8
F46.37289011107961
sS'imu_torso'
p9
(dp10
g5
F7.410736680828109
sg6
F7.048525683851052
sg7
F2.8692618930627645
ssS'steplength'
p11
g2
sS'timestamp'
p12
cdatetime
datetime
p13
(S'\x07\xe2\x01\x1e\x17\x01\x0c\x01\xcc\xf0'
p14
tp15
Rp16
sS'speed'
p17
g2
sS'cadence'
p18
g2
s.(dp0
S'blood_pressure'
p1
S'no data'
p2
sS'imu_head'
p3
(dp4
S'yaw'
p5
F0.9728385642201975
sS'roll'
p6
F16.806710013001144
sS'pitch'
p7
F2.3271724457061516
ssS'heart_rate'
p8
F74.24102443678801
sS'imu_torso'
p9
(dp10
g5
F3.5904681531816007
sg6
F5.496116568527405
sg7
F17.688449595586874
ssS'steplength'
p11
g2
sS'timestamp'
p12
cdatetime
datetime
p13
(S'\x07\xe2\x01\x1e\x17\x01\r\x01\xd0\xd8'
p14
tp15
Rp16
sS'speed'
p17
g2
sS'cadence'
p18
g2
s.(dp0
S'blood_pressure'
p1
S'no data'
p2
sS'imu_head'
p3
(dp4
S'yaw'
p5
F3.043987251798521
sS'roll'
p6
F0.7543857689490308
sS'pitch'
p7
F14.808173204784262
ssS'heart_rate'
p8
F72.51871749017029
sS'imu_torso'
p9
(dp10
g5
F6.7525350065793965
sg6
F16.96410434661223
sg7
F13.712359288997522
ssS'steplength'
p11
g2
sS'timestamp'
p12
cdatetime
datetime
p13
(S'\x07\xe2\x01\x1e\x17\x01\x0e\x01\xd4\xc0'
p14
tp15
Rp16
sS'speed'
p17
g2
sS'cadence'
p18
g2
s.(dp0
S'blood_pressure'
p1
S'no data'
p2
sS'imu_head'
p3
(dp4
S'yaw'
p5
F12.519040984041927
sS'roll'
p6
F13.967730365120829
sS'pitch'
p7
F9.992026290731905
ssS'heart_rate'
p8
F7.62567796210829
sS'imu_torso'
p9
(dp10
g5
F12.595004427677418
sg6
F9.816521452460904
sg7
F0.17591840537478198
ssS'steplength'
p11
g2
sS'timestamp'
p12
cdatetime
datetime
p13
(S'\x07\xe2\x01\x1e\x17\x01\x0f\x01\xdc\x90'
p14
tp15
Rp16
sS'speed'
p17
g2
sS'cadence'
p18
g2
s.(dp0
S'blood_pressure'
p1
S'no data'
p2
sS'imu_head'
p3
(dp4
S'yaw'
p5
F3.0208418318944275
sS'roll'
p6
F1.650826609592615
sS'pitch'
p7
F1.56672385336591
ssS'heart_rate'
p8
F24.012607409762833
sS'imu_torso'
p9
(dp10
g5
F5.858342027480806
sg6
F6.119873589557471
sg7
F18.025559049641483
ssS'steplength'
p11
g2
sS'timestamp'
p12
cdatetime
datetime
p13
(S'\x07\xe2\x01\x1e\x17\x01\x10\x01\xe4`'
p14
tp15
Rp16
sS'speed'
p17
g2
sS'cadence'
p18
g2
s.(dp0
S'blood_pressure'
p1
S'no data'
p2
sS'imu_head'
p3
(dp4
S'yaw'
p5
F8.339999720031246
sS'roll'
p6
F3.906422175210218
sS'pitch'
p7
F12.405294608722455
ssS'heart_rate'
p8
F36.31969736689166
sS'imu_torso'
p9
(dp10
g5
F17.642869145509632
sg6
F1.0095916740524458
sg7
F3.3796943794076317
ssS'steplength'
p11
g2
sS'timestamp'
p12
cdatetime
datetime
p13
(S'\x07\xe2\x01\x1e\x17\x01\x11\x01\xec0'
p14
tp15
Rp16
sS'speed'
p17
g2
sS'cadence'
p18
g2
s.(dp0
S'blood_pressure'
p1
S'no data'
p2
sS'imu_head'
p3
(dp4
S'yaw'
p5
F5.754459689477256
sS'roll'
p6
F1.947536664018883
sS'pitch'
p7
F7.8630095560597475
ssS'heart_rate'
p8
F88.12106477311119
sS'imu_torso'
p9
(dp10
g5
F14.911181575610495
sg6
F3.3437483472216134
sg7
F1.9831189223844214
ssS'steplength'
p11
g2
sS'timestamp'
p12
cdatetime
datetime
p13
(S'\x07\xe2\x01\x1e\x17\x01\x12\x01\xf0\x18'
p14
tp15
Rp16
sS'speed'
p17
g2
sS'cadence'
p18
g2
s.(dp0
S'blood_pressure'
p1
S'no data'
p2
sS'imu_head'
p3
(dp4
S'yaw'
p5
F15.33282917573474
sS'roll'
p6
F8.991868941771624
sS'pitch'
p7
F3.0381383298043207
ssS'heart_rate'
p8
F57.921254548271584
sS'imu_torso'
p9
(dp10
g5
F10.534263676941789
sg6
F1.9959779208887718
sg7
F10.054430291124943
ssS'steplength'
p11
g2
sS'timestamp'
p12
cdatetime
datetime
p13
(S'\x07\xe2\x01\x1e\x17\x01\x13\x01\xf7\xe8'
p14
tp15
Rp16
sS'speed'
p17
g2
sS'cadence'
p18
g2
s.(dp0
S'blood_pressure'
p1
S'no data'
p2
sS'imu_head'
p3
(dp4
S'yaw'
p5
F2.2413763395493613
sS'roll'
p6
F4.248806008600489
sS'pitch'
p7
F1.4272605438347985
ssS'heart_rate'
p8
F82.44508362812172
sS'imu_torso'
p9
(dp10
g5
F1.8323652472171315
sg6
F2.305270413704603
sg7
F10.985536252739873
ssS'steplength'
p11
g2
sS'timestamp'
p12
cdatetime
datetime
p13
(S'\x07\xe2\x01\x1e\x17\x01\x14\x01\xff\xb8'
p14
tp15
Rp16
sS'speed'
p17
g2
sS'cadence'
p18
g2
s.(dp0
S'blood_pressure'
p1
S'no data'
p2
sS'imu_head'
p3
(dp4
S'yaw'
p5
F3.1883438804302977
sS'roll'
p6
F0.4836124121212193
sS'pitch'
p7
F3.8429987623138095
ssS'heart_rate'
p8
F19.389296198605955
sS'imu_torso'
p9
(dp10
g5
F9.345307092211579
sg6
F17.72719566588127
sg7
F8.805911869411778
ssS'steplength'
p11
g2
sS'timestamp'
p12
cdatetime
datetime
p13
(S'\x07\xe2\x01\x1e\x17\x01\x15\x02\x03\xa0'
p14
tp15
Rp16
sS'speed'
p17
g2
sS'cadence'
p18
g2
s.(dp0
S'blood_pressure'
p1
S'no data'
p2
sS'imu_head'
p3
(dp4
S'yaw'
p5
F7.047623853893706
sS'roll'
p6
F8.182620951536428
sS'pitch'
p7
F2.007690476894277
ssS'heart_rate'
p8
F34.54510653365811
sS'imu_torso'
p9
(dp10
g5
F10.164001888125506
sg6
F2.3057818459098867
sg7
F19.7503688617633
ssS'steplength'
p11
g2
sS'timestamp'
p12
cdatetime
datetime
p13
(S'\x07\xe2\x01\x1e\x17\x01\x16\x02\x0bp'
p14
tp15
Rp16
sS'speed'
p17
g2
sS'cadence'
p18
g2
s.(dp0
S'blood_pressure'
p1
S'no data'
p2
sS'imu_head'
p3
(dp4
S'yaw'
p5
F14.444349744404024
sS'roll'
p6
F16.356048691972426
sS'pitch'
p7
F6.216248356095799
ssS'heart_rate'
p8
F38.51801379260795
sS'imu_torso'
p9
(dp10
g5
F7.729016002853326
sg6
F1.3091896135869963
sg7
F8.08465071494661
ssS'steplength'
p11
g2
sS'timestamp'
p12
cdatetime
datetime
p13
(S'\x07\xe2\x01\x1e\x17\x01\x17\x02\x0fX'
p14
tp15
Rp16
sS'speed'
p17
g2
sS'cadence'
p18
g2
s.(dp0
S'blood_pressure'
p1
S'no data'
p2
sS'imu_head'
p3
(dp4
S'yaw'
p5
F18.20714292262252
sS'roll'
p6
F5.954128881718819
sS'pitch'
p7
F17.88110933564608
ssS'heart_rate'
p8
F66.35173881989499
sS'imu_torso'
p9
(dp10
g5
F7.473156900295724
sg6
F10.259581814790145
sg7
F16.56155749703546
ssS'steplength'
p11
g2
sS'timestamp'
p12
cdatetime
datetime
p13
(S'\x07\xe2\x01\x1e\x17\x01\x18\x02\x17('
p14
tp15
Rp16
sS'speed'
p17
g2
sS'cadence'
p18
g2
s.(dp0
S'blood_pressure'
p1
S'no data'
p2
sS'imu_head'
p3
(dp4
S'yaw'
p5
F2.348957006136192
sS'roll'
p6
F10.728342255200392
sS'pitch'
p7
F11.268270816503508
ssS'heart_rate'
p8
F42.88232717978925
sS'imu_torso'
p9
(dp10
g5
F2.3995582026611495
sg6
F14.953698665123675
sg7
F9.930142051567826
ssS'steplength'
p11
g2
sS'timestamp'
p12
cdatetime
datetime
p13
(S'\x07\xe2\x01\x1e\x17\x01\x19\x02\x1b\x10'
p14
tp15
Rp16
sS'speed'
p17
g2
sS'cadence'
p18
g2
s.(dp0
S'blood_pressure'
p1
S'no data'
p2
sS'imu_head'
p3
(dp4
S'yaw'
p5
F19.639651837037277
sS'roll'
p6
F14.42597785361588
sS'pitch'
p7
F9.969132355423984
ssS'heart_rate'
p8
F75.32941951118272
sS'imu_torso'
p9
(dp10
g5
F9.744598257145134
sg6
F16.96138701514666
sg7
F5.265018601661873
ssS'steplength'
p11
g2
sS'timestamp'
p12
cdatetime
datetime
p13
(S'\x07\xe2\x01\x1e\x17\x01\x1a\x02"\xe0'
p14
tp15
Rp16
sS'speed'
p17
g2
sS'cadence'
p18
g2
s.(dp0
S'blood_pressure'
p1
S'no data'
p2
sS'imu_head'
p3
(dp4
S'yaw'
p5
F6.2852308886357156
sS'roll'
p6
F14.733997669886563
sS'pitch'
p7
F3.482174377846161
ssS'heart_rate'
p8
F81.48595116922871
sS'imu_torso'
p9
(dp10
g5
F6.485325013333927
sg6
F0.8567322184617776
sg7
F16.838831223037634
ssS'steplength'
p11
g2
sS'timestamp'
p12
cdatetime
datetime
p13
(S'\x07\xe2\x01\x1e\x17\x01\x1b\x02.\x98'
p14
tp15
Rp16
sS'speed'
p17
g2
sS'cadence'
p18
g2
s.(dp0
S'blood_pressure'
p1
S'no data'
p2
sS'imu_head'
p3
(dp4
S'yaw'
p5
F10.993003582531342
sS'roll'
p6
F7.45698519466708
sS'pitch'
p7
F12.103539792977756
ssS'heart_rate'
p8
F14.721238652557012
sS'imu_torso'
p9
(dp10
g5
F4.75453771675848
sg6
F4.768073143126159
sg7
F7.346700480305925
ssS'steplength'
p11
g2
sS'timestamp'
p12
cdatetime
datetime
p13
(S'\x07\xe2\x01\x1e\x17\x01\x1c\x022\x80'
p14
tp15
Rp16
sS'speed'
p17
g2
sS'cadence'
p18
g2
s.(dp0
S'blood_pressure'
p1
S'no data'
p2
sS'imu_head'
p3
(dp4
S'yaw'
p5
F19.384617300269518
sS'roll'
p6
F14.964013559995328
sS'pitch'
p7
F10.241807559501595
ssS'heart_rate'
p8
F99.65074589033337
sS'imu_torso'
p9
(dp10
g5
F1.3233836363870033
sg6
F6.312533256962123
sg7
F3.75831654971982
ssS'steplength'
p11
g2
sS'timestamp'
p12
cdatetime
datetime
p13
(S'\x07\xe2\x01\x1e\x17\x01\x1d\x026h'
p14
tp15
Rp16
sS'speed'
p17
g2
sS'cadence'
p18
g2
s.(dp0
S'blood_pressure'
p1
S'no data'
p2
sS'imu_head'
p3
(dp4
S'yaw'
p5
F4.435491625549515
sS'roll'
p6
F10.267038396909918
sS'pitch'
p7
F0.34703403054298754
ssS'heart_rate'
p8
F10.290948234646557
sS'imu_torso'
p9
(dp10
g5
F14.846729101000776
sg6
F11.656073354735677
sg7
F17.830000903095424
ssS'steplength'
p11
g2
sS'timestamp'
p12
cdatetime
datetime
p13
(S'\x07\xe2\x01\x1e\x17\x01\x1e\x02:P'
p14
tp15
Rp16
sS'speed'
p17
g2
sS'cadence'
p18
g2
s.(dp0
S'blood_pressure'
p1
S'no data'
p2
sS'imu_head'
p3
(dp4
S'yaw'
p5
F2.158204595662585
sS'roll'
p6
F4.108762538668871
sS'pitch'
p7
F7.628685628533216
ssS'heart_rate'
p8
F49.11002693711658
sS'imu_torso'
p9
(dp10
g5
F8.913137160793678
sg6
F14.956320279035012
sg7
F6.865355079490816
ssS'steplength'
p11
g2
sS'timestamp'
p12
cdatetime
datetime
p13
(S'\x07\xe2\x01\x1e\x17\x01\x1f\x02>8'
p14
tp15
Rp16
sS'speed'
p17
g2
sS'cadence'
p18
g2
s.(dp0
S'blood_pressure'
p1
S'no data'
p2
sS'imu_head'
p3
(dp4
S'yaw'
p5
F17.8335069427632
sS'roll'
p6
F11.095019098636726
sS'pitch'
p7
F6.4632903746867125
ssS'heart_rate'
p8
F18.176042023173867
sS'imu_torso'
p9
(dp10
g5
F17.87381823011666
sg6
F6.435412304357535
sg7
F10.366449335958155
ssS'steplength'
p11
g2
sS'timestamp'
p12
cdatetime
datetime
p13
(S'\x07\xe2\x01\x1e\x17\x01 \x02F\x08'
p14
tp15
Rp16
sS'speed'
p17
g2
sS'cadence'
p18
g2
s.(dp0
S'blood_pressure'
p1
S'no data'
p2
sS'imu_head'
p3
(dp4
S'yaw'
p5
F3.127383505190726
sS'roll'
p6
F2.968523506241534
sS'pitch'
p7
F9.802572543159894
ssS'heart_rate'
p8
F22.415395066657705
sS'imu_torso'
p9
(dp10
g5
F6.140448565885757
sg6
F11.11878370110039
sg7
F2.840082033702813
ssS'steplength'
p11
g2
sS'timestamp'
p12
cdatetime
datetime
p13
(S'\x07\xe2\x01\x1e\x17\x01!\x02I\xf0'
p14
tp15
Rp16
sS'speed'
p17
g2
sS'cadence'
p18
g2
s.(dp0
S'blood_pressure'
p1
S'no data'
p2
sS'imu_head'
p3
(dp4
S'yaw'
p5
F4.900454487487336
sS'roll'
p6
F8.619214209067863
sS'pitch'
p7
F3.8465412223947237
ssS'heart_rate'
p8
F24.856886826138215
sS'imu_torso'
p9
(dp10
g5
F0.9268296620429317
sg6
F12.013639617822527
sg7
F13.63549717192707
ssS'steplength'
p11
g2
sS'timestamp'
p12
cdatetime
datetime
p13
(S'\x07\xe2\x01\x1e\x17\x01"\x02M\xd8'
p14
tp15
Rp16
sS'speed'
p17
g2
sS'cadence'
p18
g2
s.(dp0
S'blood_pressure'
p1
S'no data'
p2
sS'imu_head'
p3
(dp4
S'yaw'
p5
F3.8852764984272414
sS'roll'
p6
F2.969887159805451
sS'pitch'
p7
F16.942204965471568
ssS'heart_rate'
p8
F27.672299455883763
sS'imu_torso'
p9
(dp10
g5
F14.624838914764535
sg6
F17.26430158595147
sg7
F15.849485301846023
ssS'steplength'
p11
g2
sS'timestamp'
p12
cdatetime
datetime
p13
(S'\x07\xe2\x01\x1e\x17\x01#\x02Q\xc0'
p14
tp15
Rp16
sS'speed'
p17
g2
sS'cadence'
p18
g2
s.(dp0
S'blood_pressure'
p1
S'no data'
p2
sS'imu_head'
p3
(dp4
S'yaw'
p5
F10.834503049005043
sS'roll'
p6
F11.630921802204575
sS'pitch'
p7
F3.0451232460023214
ssS'heart_rate'
p8
F19.1934275869554
sS'imu_torso'
p9
(dp10
g5
F9.442983706969446
sg6
F1.7311635220663701
sg7
F10.623351517050114
ssS'steplength'
p11
g2
sS'timestamp'
p12
cdatetime
datetime
p13
(S'\x07\xe2\x01\x1e\x17\x01$\x02]x'
p14
tp15
Rp16
sS'speed'
p17
g2
sS'cadence'
p18
g2
s.(dp0
S'blood_pressure'
p1
S'no data'
p2
sS'imu_head'
p3
(dp4
S'yaw'
p5
F8.25499814052154
sS'roll'
p6
F2.4584157282962082
sS'pitch'
p7
F18.64930341217043
ssS'heart_rate'
p8
F76.56132793634899
sS'imu_torso'
p9
(dp10
g5
F18.509744623230933
sg6
F12.585716548827346
sg7
F1.378013037228496
ssS'steplength'
p11
g2
sS'timestamp'
p12
cdatetime
datetime
p13
(S'\x07\xe2\x01\x1e\x17\x01%\x02a`'
p14
tp15
Rp16
sS'speed'
p17
g2
sS'cadence'
p18
g2
s.(dp0
S'blood_pressure'
p1
S'no data'
p2
sS'imu_head'
p3
(dp4
S'yaw'
p5
F15.03413767373967
sS'roll'
p6
F3.435430862282687
sS'pitch'
p7
F18.93984359888807
ssS'heart_rate'
p8
F27.52365502472459
sS'imu_torso'
p9
(dp10
g5
F18.469940501031893
sg6
F8.538072342332587
sg7
F3.439830188775137
ssS'steplength'
p11
g2
sS'timestamp'
p12
cdatetime
datetime
p13
(S'\x07\xe2\x01\x1e\x17\x01&\x02eH'
p14
tp15
Rp16
sS'speed'
p17
g2
sS'cadence'
p18
g2
s.(dp0
S'blood_pressure'
p1
S'no data'
p2
sS'imu_head'
p3
(dp4
S'yaw'
p5
F19.517088233363847
sS'roll'
p6
F4.035177647501131
sS'pitch'
p7
F1.277475671535262
ssS'heart_rate'
p8
F57.70444066010797
sS'imu_torso'
p9
(dp10
g5
F15.877060246722483
sg6
F3.2724384049940625
sg7
F4.1172387926367815
ssS'steplength'
p11
g2
sS'timestamp'
p12
cdatetime
datetime
p13
(S"\x07\xe2\x01\x1e\x17\x01'\x02m\x18"
p14
tp15
Rp16
sS'speed'
p17
g2
sS'cadence'
p18
g2
s.(dp0
S'blood_pressure'
p1
S'no data'
p2
sS'imu_head'
p3
(dp4
S'yaw'
p5
F2.0340803489608983
sS'roll'
p6
F15.31935283041896
sS'pitch'
p7
F18.40119421938104
ssS'heart_rate'
p8
F96.15100914571117
sS'imu_torso'
p9
(dp10
g5
F3.6581602268225666
sg6
F12.538389575842013
sg7
F11.041845091537397
ssS'steplength'
p11
g2
sS'timestamp'
p12
cdatetime
datetime
p13
(S'\x07\xe2\x01\x1e\x17\x01(\x02t\xe8'
p14
tp15
Rp16
sS'speed'
p17
g2
sS'cadence'
p18
g2
s.(dp0
S'blood_pressure'
p1
S'no data'
p2
sS'imu_head'
p3
(dp4
S'yaw'
p5
F2.6100157334444996
sS'roll'
p6
F1.2165867493479832
sS'pitch'
p7
F12.567809564336955
ssS'heart_rate'
p8
F2.922170767766763
sS'imu_torso'
p9
(dp10
g5
F19.721565042395884
sg6
F5.981583457113
sg7
F12.936260667527597
ssS'steplength'
p11
g2
sS'timestamp'
p12
cdatetime
datetime
p13
(S'\x07\xe2\x01\x1e\x17\x01)\x02|\xb8'
p14
tp15
Rp16
sS'speed'
p17
g2
sS'cadence'
p18
g2
s.(dp0
S'blood_pressure'
p1
S'no data'
p2
sS'imu_head'
p3
(dp4
S'yaw'
p5
F12.920409181937833
sS'roll'
p6
F4.346222563834123
sS'pitch'
p7
F3.591199984227289
ssS'heart_rate'
p8
F9.073723043883763
sS'imu_torso'
p9
(dp10
g5
F10.51032804535225
sg6
F9.67747775144466
sg7
F5.781762001091854
ssS'steplength'
p11
g2
sS'timestamp'
p12
cdatetime
datetime
p13
(S'\x07\xe2\x01\x1e\x17\x01*\x02\x80\xa0'
p14
tp15
Rp16
sS'speed'
p17
g2
sS'cadence'
p18
g2
s.(dp0
S'blood_pressure'
p1
S'no data'
p2
sS'imu_head'
p3
(dp4
S'yaw'
p5
F4.48216968910335
sS'roll'
p6
F9.793474404905078
sS'pitch'
p7
F13.22236765302478
ssS'heart_rate'
p8
F78.89891874011967
sS'imu_torso'
p9
(dp10
g5
F6.110356287440897
sg6
F2.286704963272894
sg7
F4.777504259809375
ssS'steplength'
p11
g2
sS'timestamp'
p12
cdatetime
datetime
p13
(S'\x07\xe2\x01\x1e\x17\x01+\x02\x8cX'
p14
tp15
Rp16
sS'speed'
p17
g2
sS'cadence'
p18
g2
s.(dp0
S'blood_pressure'
p1
S'no data'
p2
sS'imu_head'
p3
(dp4
S'yaw'
p5
F3.5159101162938566
sS'roll'
p6
F14.66895197455781
sS'pitch'
p7
F18.027570518056063
ssS'heart_rate'
p8
F18.548069536996604
sS'imu_torso'
p9
(dp10
g5
F2.949778730996513
sg6
F1.1115528372651484
sg7
F16.094137888322667
ssS'steplength'
p11
g2
sS'timestamp'
p12
cdatetime
datetime
p13
(S'\x07\xe2\x01\x1e\x17\x01,\x02\x90@'
p14
tp15
Rp16
sS'speed'
p17
g2
sS'cadence'
p18
g2
s.(dp0
S'blood_pressure'
p1
S'no data'
p2
sS'imu_head'
p3
(dp4
S'yaw'
p5
F15.511494199378284
sS'roll'
p6
F4.388692185513873
sS'pitch'
p7
F17.790149856538072
ssS'heart_rate'
p8
F35.472774250102205
sS'imu_torso'
p9
(dp10
g5
F7.372264199561682
sg6
F14.813055683374646
sg7
F4.093434825486724
ssS'steplength'
p11
g2
sS'timestamp'
p12
cdatetime
datetime
p13
(S'\x07\xe2\x01\x1e\x17\x01-\x02\x98\x10'
p14
tp15
Rp16
sS'speed'
p17
g2
sS'cadence'
p18
g2
s.(dp0
S'blood_pressure'
p1
S'no data'
p2
sS'imu_head'
p3
(dp4
S'yaw'
p5
F6.293118031115799
sS'roll'
p6
F12.025845467743395
sS'pitch'
p7
F12.56735420477808
ssS'heart_rate'
p8
F35.97370215589708
sS'imu_torso'
p9
(dp10
g5
F1.2796080721998804
sg6
F16.51518133328566
sg7
F16.153141720767184
ssS'steplength'
p11
g2
sS'timestamp'
p12
cdatetime
datetime
p13
(S'\x07\xe2\x01\x1e\x17\x01.\x02\x9f\xe0'
p14
tp15
Rp16
sS'speed'
p17
g2
sS'cadence'
p18
g2
s.(dp0
S'blood_pressure'
p1
S'no data'
p2
sS'imu_head'
p3
(dp4
S'yaw'
p5
F0.17744650356656733
sS'roll'
p6
F15.285511565519194
sS'pitch'
p7
F4.700363742362786
ssS'heart_rate'
p8
F98.78789890334355
sS'imu_torso'
p9
(dp10
g5
F15.812977874707041
sg6
F0.751523358213575
sg7
F5.836827542756852
ssS'steplength'
p11
g2
sS'timestamp'
p12
cdatetime
datetime
p13
(S'\x07\xe2\x01\x1e\x17\x01/\x02\xa7\xb0'
p14
tp15
Rp16
sS'speed'
p17
g2
sS'cadence'
p18
g2
s.(dp0
S'blood_pressure'
p1
S'no data'
p2
sS'imu_head'
p3
(dp4
S'yaw'
p5
F10.622179752613475
sS'roll'
p6
F18.43343196077743
sS'pitch'
p7
F11.263010955737926
ssS'heart_rate'
p8
F26.025247173681876
sS'imu_torso'
p9
(dp10
g5
F3.4845143359907826
sg6
F11.633968329323583
sg7
F17.391535167626856
ssS'steplength'
p11
g2
sS'timestamp'
p12
cdatetime
datetime
p13
(S'\x07\xe2\x01\x1e\x17\x010\x02\xaf\x80'
p14
tp15
Rp16
sS'speed'
p17
g2
sS'cadence'
p18
g2
s.(dp0
S'blood_pressure'
p1
S'no data'
p2
sS'imu_head'
p3
(dp4
S'yaw'
p5
F13.31266032394935
sS'roll'
p6
F1.5582539869725975
sS'pitch'
p7
F1.8595105067883688
ssS'heart_rate'
p8
F66.92409218400977
sS'imu_torso'
p9
(dp10
g5
F2.23679080462474
sg6
F17.622155147740756
sg7
F14.661951033635678
ssS'steplength'
p11
g2
sS'timestamp'
p12
cdatetime
datetime
p13
(S'\x07\xe2\x01\x1e\x17\x011\x02\xb3h'
p14
tp15
Rp16
sS'speed'
p17
g2
sS'cadence'
p18
g2
s.(dp0
S'blood_pressure'
p1
S'no data'
p2
sS'imu_head'
p3
(dp4
S'yaw'
p5
F2.072461603060345
sS'roll'
p6
F18.144136173199875
sS'pitch'
p7
F7.923882033263627
ssS'heart_rate'
p8
F6.5737725174799255
sS'imu_torso'
p9
(dp10
g5
F16.04181662332059
sg6
F18.291178015157186
sg7
F1.517583573784007
ssS'steplength'
p11
g2
sS'timestamp'
p12
cdatetime
datetime
p13
(S'\x07\xe2\x01\x1e\x17\x012\x02\xbb8'
p14
tp15
Rp16
sS'speed'
p17
g2
sS'cadence'
p18
g2
s.(dp0
S'blood_pressure'
p1
S'no data'
p2
sS'imu_head'
p3
(dp4
S'yaw'
p5
F14.14379610944909
sS'roll'
p6
F19.096244439612565
sS'pitch'
p7
F14.98227605990409
ssS'heart_rate'
p8
F12.044431422337276
sS'imu_torso'
p9
(dp10
g5
F19.06790947454929
sg6
F15.60870249595057
sg7
F1.7347478322969145
ssS'steplength'
p11
g2
sS'timestamp'
p12
cdatetime
datetime
p13
(S'\x07\xe2\x01\x1e\x17\x013\x02\xc3\x08'
p14
tp15
Rp16
sS'speed'
p17
g2
sS'cadence'
p18
g2
s.(dp0
S'blood_pressure'
p1
S'no data'
p2
sS'imu_head'
p3
(dp4
S'yaw'
p5
F1.7226149122718315
sS'roll'
p6
F14.211225220436642
sS'pitch'
p7
F12.219797320446952
ssS'heart_rate'
p8
F85.3230115950627
sS'imu_torso'
p9
(dp10
g5
F12.27668231361694
sg6
F10.232017586035909
sg7
F12.751041973424666
ssS'steplength'
p11
g2
sS'timestamp'
p12
cdatetime
datetime
p13
(S'\x07\xe2\x01\x1e\x17\x014\x02\xc6\xf0'
p14
tp15
Rp16
sS'speed'
p17
g2
sS'cadence'
p18
g2
s.(dp0
S'blood_pressure'
p1
S'no data'
p2
sS'imu_head'
p3
(dp4
S'yaw'
p5
F3.095418076535972
sS'roll'
p6
F0.9993701962263901
sS'pitch'
p7
F0.04980493384018958
ssS'heart_rate'
p8
F9.980250036101646
sS'imu_torso'
p9
(dp10
g5
F6.5830311749843196
sg6
F18.652263279686483
sg7
F0.9086250912414218
ssS'steplength'
p11
g2
sS'timestamp'
p12
cdatetime
datetime
p13
(S'\x07\xe2\x01\x1e\x17\x015\x02\xce\xc0'
p14
tp15
Rp16
sS'speed'
p17
g2
sS'cadence'
p18
g2
s.(dp0
S'blood_pressure'
p1
S'no data'
p2
sS'imu_head'
p3
(dp4
S'yaw'
p5
F1.1328712647345118
sS'roll'
p6
F2.550524574971884
sS'pitch'
p7
F5.040207869497449
ssS'heart_rate'
p8
F68.94461374165378
sS'imu_torso'
p9
(dp10
g5
F1.9557809112477442
sg6
F0.30030901343264915
sg7
F16.061654807833147
ssS'steplength'
p11
g2
sS'timestamp'
p12
cdatetime
datetime
p13
(S'\x07\xe2\x01\x1e\x17\x016\x02\xd6\x90'
p14
tp15
Rp16
sS'speed'
p17
g2
sS'cadence'
p18
g2
s.(dp0
S'blood_pressure'
p1
S'no data'
p2
sS'imu_head'
p3
(dp4
S'yaw'
p5
F8.163571308977257
sS'roll'
p6
F17.512380442084204
sS'pitch'
p7
F9.133423009881291
ssS'heart_rate'
p8
F59.16781466050188
sS'imu_torso'
p9
(dp10
g5
F18.31882039731151
sg6
F4.312897680361962
sg7
F19.092956389595336
ssS'steplength'
p11
g2
sS'timestamp'
p12
cdatetime
datetime
p13
(S'\x07\xe2\x01\x1e\x17\x017\x02\xdax'
p14
tp15
Rp16
sS'speed'
p17
g2
sS'cadence'
p18
g2
s.(dp0
S'blood_pressure'
p1
S'no data'
p2
sS'imu_head'
p3
(dp4
S'yaw'
p5
F10.939115039186497
sS'roll'
p6
F7.0672852877135135
sS'pitch'
p7
F10.251301194796918
ssS'heart_rate'
p8
F27.17013653115975
sS'imu_torso'
p9
(dp10
g5
F12.308780601568321
sg6
F8.59326127205728
sg7
F9.005619308633062
ssS'steplength'
p11
g2
sS'timestamp'
p12
cdatetime
datetime
p13
(S'\x07\xe2\x01\x1e\x17\x018\x02\xe60'
p14
tp15
Rp16
sS'speed'
p17
g2
sS'cadence'
p18
g2
s.(dp0
S'blood_pressure'
p1
S'no data'
p2
sS'imu_head'
p3
(dp4
S'yaw'
p5
F13.431935609767018
sS'roll'
p6
F0.1760445007412903
sS'pitch'
p7
F1.168220436701135
ssS'heart_rate'
p8
F87.51812166565712
sS'imu_torso'
p9
(dp10
g5
F13.097226481686114
sg6
F6.234931454819044
sg7
F17.471843503747927
ssS'steplength'
p11
g2
sS'timestamp'
p12
cdatetime
datetime
p13
(S'\x07\xe2\x01\x1e\x17\x019\x02\xee\x00'
p14
tp15
Rp16
sS'speed'
p17
g2
sS'cadence'
p18
g2
s.(dp0
S'blood_pressure'
p1
S'no data'
p2
sS'imu_head'
p3
(dp4
S'yaw'
p5
F19.357885278249626
sS'roll'
p6
F0.1917148900705823
sS'pitch'
p7
F4.881759364875384
ssS'heart_rate'
p8
F51.94165013770883
sS'imu_torso'
p9
(dp10
g5
F16.545608387050816
sg6
F1.1348543606315675
sg7
F13.604384417456048
ssS'steplength'
p11
g2
sS'timestamp'
p12
cdatetime
datetime
p13
(S'\x07\xe2\x01\x1e\x17\x01:\x02\xf9\xb8'
p14
tp15
Rp16
sS'speed'
p17
g2
sS'cadence'
p18
g2
s.(dp0
S'blood_pressure'
p1
S'no data'
p2
sS'imu_head'
p3
(dp4
S'yaw'
p5
F18.790531970482903
sS'roll'
p6
F1.2833085958774881
sS'pitch'
p7
F9.968684692962276
ssS'heart_rate'
p8
F26.09148092766572
sS'imu_torso'
p9
(dp10
g5
F15.333768139345558
sg6
F4.063110223341684
sg7
F5.205032389665904
ssS'steplength'
p11
g2
sS'timestamp'
p12
cdatetime
datetime
p13
(S'\x07\xe2\x01\x1e\x17\x01;\x03\x01\x88'
p14
tp15
Rp16
sS'speed'
p17
g2
sS'cadence'
p18
g2
s.(dp0
S'blood_pressure'
p1
S'no data'
p2
sS'imu_head'
p3
(dp4
S'yaw'
p5
F5.118650395449816
sS'roll'
p6
F19.71933703900539
sS'pitch'
p7
F9.61940768509131
ssS'heart_rate'
p8
F14.39066915776156
sS'imu_torso'
p9
(dp10
g5
F2.1763493010992097
sg6
F15.701030310564864
sg7
F12.846846578754628
ssS'steplength'
p11
g2
sS'timestamp'
p12
cdatetime
datetime
p13
(S'\x07\xe2\x01\x1e\x17\x02\x00\x03\tX'
p14
tp15
Rp16
sS'speed'
p17
g2
sS'cadence'
p18
g2
s.(dp0
S'blood_pressure'
p1
S'no data'
p2
sS'imu_head'
p3
(dp4
S'yaw'
p5
F3.0830105790123907
sS'roll'
p6
F3.3799644733228917
sS'pitch'
p7
F1.2802807219265788
ssS'heart_rate'
p8
F5.327492394352706
sS'imu_torso'
p9
(dp10
g5
F11.360531347562688
sg6
F16.329631665543776
sg7
F10.748654882478561
ssS'steplength'
p11
g2
sS'timestamp'
p12
cdatetime
datetime
p13
(S'\x07\xe2\x01\x1e\x17\x02\x01\x03\x11('
p14
tp15
Rp16
sS'speed'
p17
g2
sS'cadence'
p18
g2
s.(dp0
S'blood_pressure'
p1
S'no data'
p2
sS'imu_head'
p3
(dp4
S'yaw'
p5
F2.788464226288354
sS'roll'
p6
F12.176596071534151
sS'pitch'
p7
F13.949370006923935
ssS'heart_rate'
p8
F10.53852641837436
sS'imu_torso'
p9
(dp10
g5
F9.46383033985639
sg6
F17.83706391362909
sg7
F15.027776778471297
ssS'steplength'
p11
g2
sS'timestamp'
p12
cdatetime
datetime
p13
(S'\x07\xe2\x01\x1e\x17\x02\x02\x03\x18\xf8'
p14
tp15
Rp16
sS'speed'
p17
g2
sS'cadence'
p18
g2
s.(dp0
S'blood_pressure'
p1
S'no data'
p2
sS'imu_head'
p3
(dp4
S'yaw'
p5
F10.8100899929891
sS'roll'
p6
F13.450540804847787
sS'pitch'
p7
F17.929505323642115
ssS'heart_rate'
p8
F8.807341418213765
sS'imu_torso'
p9
(dp10
g5
F18.064486875452996
sg6
F3.0550486812499456
sg7
F18.624861992999023
ssS'steplength'
p11
g2
sS'timestamp'
p12
cdatetime
datetime
p13
(S'\x07\xe2\x01\x1e\x17\x02\x03\x03$\xb0'
p14
tp15
Rp16
sS'speed'
p17
g2
sS'cadence'
p18
g2
s.(dp0
S'blood_pressure'
p1
S'no data'
p2
sS'imu_head'
p3
(dp4
S'yaw'
p5
F4.510701589907806
sS'roll'
p6
F19.204976581201535
sS'pitch'
p7
F17.782961627736462
ssS'heart_rate'
p8
F76.06986392884765
sS'imu_torso'
p9
(dp10
g5
F14.901988643949815
sg6
F3.4008693899815823
sg7
F15.42664722964334
ssS'steplength'
p11
g2
sS'timestamp'
p12
cdatetime
datetime
p13
(S'\x07\xe2\x01\x1e\x17\x02\x04\x03,\x80'
p14
tp15
Rp16
sS'speed'
p17
g2
sS'cadence'
p18
g2
s.(dp0
S'blood_pressure'
p1
S'no data'
p2
sS'imu_head'
p3
(dp4
S'yaw'
p5
F10.973572556763635
sS'roll'
p6
F0.8225175160111631
sS'pitch'
p7
F6.701723380757083
ssS'heart_rate'
p8
F2.2453654226613495
sS'imu_torso'
p9
(dp10
g5
F3.087287654391284
sg6
F2.3571969446154295
sg7
F4.46475242938374
ssS'steplength'
p11
g2
sS'timestamp'
p12
cdatetime
datetime
p13
(S'\x07\xe2\x01\x1e\x17\x02\x05\x034P'
p14
tp15
Rp16
sS'speed'
p17
g2
sS'cadence'
p18
g2
s.(dp0
S'blood_pressure'
p1
S'no data'
p2
sS'imu_head'
p3
(dp4
S'yaw'
p5
F6.821703178935488
sS'roll'
p6
F8.716620746015018
sS'pitch'
p7
F18.096272243270334
ssS'heart_rate'
p8
F35.592424986361884
sS'imu_torso'
p9
(dp10
g5
F8.650460509615645
sg6
F4.402587816367037
sg7
F12.232082744889032
ssS'steplength'
p11
g2
sS'timestamp'
p12
cdatetime
datetime
p13
(S'\x07\xe2\x01\x1e\x17\x02\x06\x0388'
p14
tp15
Rp16
sS'speed'
p17
g2
sS'cadence'
p18
g2
s.(dp0
S'blood_pressure'
p1
S'no data'
p2
sS'imu_head'
p3
(dp4
S'yaw'
p5
F17.57101120032572
sS'roll'
p6
F1.7692871215207129
sS'pitch'
p7
F15.987313140294193
ssS'heart_rate'
p8
F7.436580256716818
sS'imu_torso'
p9
(dp10
g5
F19.51180247801434
sg6
F10.962754921740114
sg7
F7.814671645401143
ssS'steplength'
p11
g2
sS'timestamp'
p12
cdatetime
datetime
p13
(S'\x07\xe2\x01\x1e\x17\x02\x07\x03@\x08'
p14
tp15
Rp16
sS'speed'
p17
g2
sS'cadence'
p18
g2
s.(dp0
S'blood_pressure'
p1
S'no data'
p2
sS'imu_head'
p3
(dp4
S'yaw'
p5
F6.374827063380282
sS'roll'
p6
F1.7331089681538048
sS'pitch'
p7
F2.848114693854662
ssS'heart_rate'
p8
F44.73372920305886
sS'imu_torso'
p9
(dp10
g5
F4.758628684298564
sg6
F1.182811882709487
sg7
F0.1167630690957866
ssS'steplength'
p11
g2
sS'timestamp'
p12
cdatetime
datetime
p13
(S'\x07\xe2\x01\x1e\x17\x02\x08\x03K\xc0'
p14
tp15
Rp16
sS'speed'
p17
g2
sS'cadence'
p18
g2
s.(dp0
S'blood_pressure'
p1
S'no data'
p2
sS'imu_head'
p3
(dp4
S'yaw'
p5
F19.905956390076774
sS'roll'
p6
F9.42548234824464
sS'pitch'
p7
F19.424144255893246
ssS'heart_rate'
p8
F97.2227483132061
sS'imu_torso'
p9
(dp10
g5
F7.170753248119393
sg6
F2.4133688683642474
sg7
F5.747067457770532
ssS'steplength'
p11
g2
sS'timestamp'
p12
cdatetime
datetime
p13
(S'\x07\xe2\x01\x1e\x17\x02\t\x03O\xa8'
p14
tp15
Rp16
sS'speed'
p17
g2
sS'cadence'
p18
g2
s.(dp0
S'blood_pressure'
p1
S'no data'
p2
sS'imu_head'
p3
(dp4
S'yaw'
p5
F10.928703038304374
sS'roll'
p6
F3.396789686982129
sS'pitch'
p7
F14.824827899939956
ssS'heart_rate'
p8
F5.62147411665217
sS'imu_torso'
p9
(dp10
g5
F2.781386735407496
sg6
F13.201332060152524
sg7
F7.875071279029844
ssS'steplength'
p11
g2
sS'timestamp'
p12
cdatetime
datetime
p13
(S'\x07\xe2\x01\x1e\x17\x02\n\x03[`'
p14
tp15
Rp16
sS'speed'
p17
g2
sS'cadence'
p18
g2
s.(dp0
S'blood_pressure'
p1
S'no data'
p2
sS'imu_head'
p3
(dp4
S'yaw'
p5
F16.50311595547143
sS'roll'
p6
F5.974648689031927
sS'pitch'
p7
F14.42971807983389
ssS'heart_rate'
p8
F4.965961314309297
sS'imu_torso'
p9
(dp10
g5
F10.710993518580965
sg6
F14.178527079632373
sg7
F0.0952677132590618
ssS'steplength'
p11
g2
sS'timestamp'
p12
cdatetime
datetime
p13
(S'\x07\xe2\x01\x1e\x17\x02\x0b\x03c0'
p14
tp15
Rp16
sS'speed'
p17
g2
sS'cadence'
p18
g2
s.(dp0
S'blood_pressure'
p1
S'no data'
p2
sS'imu_head'
p3
(dp4
S'yaw'
p5
F16.11648765621666
sS'roll'
p6
F6.66448692984628
sS'pitch'
p7
F3.162282965994352
ssS'heart_rate'
p8
F88.1998213835597
sS'imu_torso'
p9
(dp10
g5
F3.2292319241307754
sg6
F12.238512619795472
sg7
F12.52133557120391
ssS'steplength'
p11
g2
sS'timestamp'
p12
cdatetime
datetime
p13
(S'\x07\xe2\x01\x1e\x17\x02\x0c\x03g\x18'
p14
tp15
Rp16
sS'speed'
p17
g2
sS'cadence'
p18
g2
s.(dp0
S'blood_pressure'
p1
S'no data'
p2
sS'imu_head'
p3
(dp4
S'yaw'
p5
F16.508478993680114
sS'roll'
p6
F10.329254179512667
sS'pitch'
p7
F1.5017711118530674
ssS'heart_rate'
p8
F15.24919318079272
sS'imu_torso'
p9
(dp10
g5
F18.26220959080883
sg6
F4.603732821180526
sg7
F18.654553444894663
ssS'steplength'
p11
g2
sS'timestamp'
p12
cdatetime
datetime
p13
(S'\x07\xe2\x01\x1e\x17\x02\r\x03n\xe8'
p14
tp15
Rp16
sS'speed'
p17
g2
sS'cadence'
p18
g2
s.(dp0
S'blood_pressure'
p1
S'no data'
p2
sS'imu_head'
p3
(dp4
S'yaw'
p5
F1.984772683615006
sS'roll'
p6
F3.8517366040429635
sS'pitch'
p7
F5.388767087685212
ssS'heart_rate'
p8
F57.63181586989546
sS'imu_torso'
p9
(dp10
g5
F11.128960402891197
sg6
F7.537908355701233
sg7
F14.026428354971127
ssS'steplength'
p11
g2
sS'timestamp'
p12
cdatetime
datetime
p13
(S'\x07\xe2\x01\x1e\x17\x02\x0e\x03z\xa0'
p14
tp15
Rp16
sS'speed'
p17
g2
sS'cadence'
p18
g2
s.(dp0
S'blood_pressure'
p1
S'no data'
p2
sS'imu_head'
p3
(dp4
S'yaw'
p5
F11.074141947252658
sS'roll'
p6
F14.662870309937084
sS'pitch'
p7
F15.916070044871597
ssS'heart_rate'
p8
F95.2331726586604
sS'imu_torso'
p9
(dp10
g5
F0.15045413795714113
sg6
F9.909409913684073
sg7
F1.0459596862729281
ssS'steplength'
p11
g2
sS'timestamp'
p12
cdatetime
datetime
p13
(S'\x07\xe2\x01\x1e\x17\x02\x0f\x03\x82p'
p14
tp15
Rp16
sS'speed'
p17
g2
sS'cadence'
p18
g2
s.(dp0
S'blood_pressure'
p1
S'no data'
p2
sS'imu_head'
p3
(dp4
S'yaw'
p5
F12.867762138807306
sS'roll'
p6
F0.593575470304275
sS'pitch'
p7
F14.957233524090016
ssS'heart_rate'
p8
F53.64308584065839
sS'imu_torso'
p9
(dp10
g5
F16.020584198034037
sg6
F14.049445541679189
sg7
F5.522269474412944
ssS'steplength'
p11
g2
sS'timestamp'
p12
cdatetime
datetime
p13
(S'\x07\xe2\x01\x1e\x17\x02\x10\x03\x8e('
p14
tp15
Rp16
sS'speed'
p17
g2
sS'cadence'
p18
g2
s.(dp0
S'blood_pressure'
p1
S'no data'
p2
sS'imu_head'
p3
(dp4
S'yaw'
p5
F4.1156710742098905
sS'roll'
p6
F4.112523685688716
sS'pitch'
p7
F0.9510569385590673
ssS'heart_rate'
p8
F68.08920524553807
sS'imu_torso'
p9
(dp10
g5
F3.8747672691420854
sg6
F9.583373078753796
sg7
F4.134255637731434
ssS'steplength'
p11
g2
sS'timestamp'
p12
cdatetime
datetime
p13
(S'\x07\xe2\x01\x1e\x17\x02\x11\x03\x99\xe0'
p14
tp15
Rp16
sS'speed'
p17
g2
sS'cadence'
p18
g2
s.(dp0
S'blood_pressure'
p1
S'no data'
p2
sS'imu_head'
p3
(dp4
S'yaw'
p5
F3.5438789865309595
sS'roll'
p6
F5.364443706961661
sS'pitch'
p7
F10.950143345280354
ssS'heart_rate'
p8
F88.63530609459855
sS'imu_torso'
p9
(dp10
g5
F17.38518256744235
sg6
F14.441189705187227
sg7
F7.482471363789158
ssS'steplength'
p11
g2
sS'timestamp'
p12
cdatetime
datetime
p13
(S'\x07\xe2\x01\x1e\x17\x02\x12\x03\x9d\xc8'
p14
tp15
Rp16
sS'speed'
p17
g2
sS'cadence'
p18
g2
s.(dp0
S'blood_pressure'
p1
S'no data'
p2
sS'imu_head'
p3
(dp4
S'yaw'
p5
F8.016281227380473
sS'roll'
p6
F8.11706000863731
sS'pitch'
p7
F6.092438782027405
ssS'heart_rate'
p8
F68.13786976084943
sS'imu_torso'
p9
(dp10
g5
F11.887740109343905
sg6
F3.5177925592893455
sg7
F11.989065902671474
ssS'steplength'
p11
g2
sS'timestamp'
p12
cdatetime
datetime
p13
(S'\x07\xe2\x01\x1e\x17\x02\x13\x03\xa5\x98'
p14
tp15
Rp16
sS'speed'
p17
g2
sS'cadence'
p18
g2
s.(dp0
S'blood_pressure'
p1
S'no data'
p2
sS'imu_head'
p3
(dp4
S'yaw'
p5
F8.621595750404158
sS'roll'
p6
F17.88547514923829
sS'pitch'
p7
F8.950546621932354
ssS'heart_rate'
p8
F75.95080334302492
sS'imu_torso'
p9
(dp10
g5
F19.662650753758996
sg6
F13.687678097986787
sg7
F17.85568527226694
ssS'steplength'
p11
g2
sS'timestamp'
p12
cdatetime
datetime
p13
(S'\x07\xe2\x01\x1e\x17\x02\x14\x03\xa9\x80'
p14
tp15
Rp16
sS'speed'
p17
g2
sS'cadence'
p18
g2
s.(dp0
S'blood_pressure'
p1
S'no data'
p2
sS'imu_head'
p3
(dp4
S'yaw'
p5
F1.0832903866300403
sS'roll'
p6
F10.9996201332958
sS'pitch'
p7
F9.427579289594428
ssS'heart_rate'
p8
F2.4700153858548846
sS'imu_torso'
p9
(dp10
g5
F19.433339031338775
sg6
F1.95848044036818
sg7
F13.475792989394726
ssS'steplength'
p11
g2
sS'timestamp'
p12
cdatetime
datetime
p13
(S'\x07\xe2\x01\x1e\x17\x02\x15\x03\xb58'
p14
tp15
Rp16
sS'speed'
p17
g2
sS'cadence'
p18
g2
s.(dp0
S'blood_pressure'
p1
S'no data'
p2
sS'imu_head'
p3
(dp4
S'yaw'
p5
F1.6744302417237322
sS'roll'
p6
F12.347514613861552
sS'pitch'
p7
F8.644670684126936
ssS'heart_rate'
p8
F91.68225506559048
sS'imu_torso'
p9
(dp10
g5
F8.694102076682512
sg6
F14.524435476113569
sg7
F0.576663849292196
ssS'steplength'
p11
g2
sS'timestamp'
p12
cdatetime
datetime
p13
(S'\x07\xe2\x01\x1e\x17\x02\x16\x03\xbd\x08'
p14
tp15
Rp16
sS'speed'
p17
g2
sS'cadence'
p18
g2
s.(dp0
S'blood_pressure'
p1
S'no data'
p2
sS'imu_head'
p3
(dp4
S'yaw'
p5
F19.960081879007518
sS'roll'
p6
F9.848485844500775
sS'pitch'
p7
F19.063481772736704
ssS'heart_rate'
p8
F18.31092760234543
sS'imu_torso'
p9
(dp10
g5
F0.5627992423063555
sg6
F14.432631702318176
sg7
F2.3546444744937367
ssS'steplength'
p11
g2
sS'timestamp'
p12
cdatetime
datetime
p13
(S'\x07\xe2\x01\x1e\x17\x02\x17\x03\xcc\xa8'
p14
tp15
Rp16
sS'speed'
p17
g2
sS'cadence'
p18
g2
s.(dp0
S'blood_pressure'
p1
S'no data'
p2
sS'imu_head'
p3
(dp4
S'yaw'
p5
F18.68677274806093
sS'roll'
p6
F7.705259124186812
sS'pitch'
p7
F2.871475010703397
ssS'heart_rate'
p8
F96.39109834707482
sS'imu_torso'
p9
(dp10
g5
F18.44985959547452
sg6
F10.116450338551243
sg7
F17.447172672340642
ssS'steplength'
p11
g2
sS'timestamp'
p12
cdatetime
datetime
p13
(S'\x07\xe2\x01\x1e\x17\x02\x18\x03\xd0\x90'
p14
tp15
Rp16
sS'speed'
p17
g2
sS'cadence'
p18
g2
s.(dp0
S'blood_pressure'
p1
S'no data'
p2
sS'imu_head'
p3
(dp4
S'yaw'
p5
F10.893812561230325
sS'roll'
p6
F12.161298923049253
sS'pitch'
p7
F16.104114439043194
ssS'heart_rate'
p8
F20.228729121853174
sS'imu_torso'
p9
(dp10
g5
F12.710274356759788
sg6
F5.062183840145216
sg7
F5.315992235434441
ssS'steplength'
p11
g2
sS'timestamp'
p12
cdatetime
datetime
p13
(S'\x07\xe2\x01\x1e\x17\x02\x19\x03\xdcH'
p14
tp15
Rp16
sS'speed'
p17
g2
sS'cadence'
p18
g2
s.(dp0
S'blood_pressure'
p1
S'no data'
p2
sS'imu_head'
p3
(dp4
S'yaw'
p5
F11.902711126104421
sS'roll'
p6
F0.1095747655536794
sS'pitch'
p7
F8.703613791627063
ssS'heart_rate'
p8
F33.85793947236593
sS'imu_torso'
p9
(dp10
g5
F4.5607766617153755
sg6
F1.301216559877889
sg7
F2.710937801563642
ssS'steplength'
p11
g2
sS'timestamp'
p12
cdatetime
datetime
p13
(S'\x07\xe2\x01\x1e\x17\x02\x1a\x03\xe4\x18'
p14
tp15
Rp16
sS'speed'
p17
g2
sS'cadence'
p18
g2
s.(dp0
S'blood_pressure'
p1
S'no data'
p2
sS'imu_head'
p3
(dp4
S'yaw'
p5
F10.325791927129979
sS'roll'
p6
F17.591305562452344
sS'pitch'
p7
F16.605320977996286
ssS'heart_rate'
p8
F52.555807947070456
sS'imu_torso'
p9
(dp10
g5
F13.382316560905387
sg6
F2.904542488628661
sg7
F16.81801861031509
ssS'steplength'
p11
g2
sS'timestamp'
p12
cdatetime
datetime
p13
(S'\x07\xe2\x01\x1e\x17\x02\x1b\x03\xeb\xe8'
p14
tp15
Rp16
sS'speed'
p17
g2
sS'cadence'
p18
g2
s.(dp0
S'blood_pressure'
p1
S'no data'
p2
sS'imu_head'
p3
(dp4
S'yaw'
p5
F2.390690655988459
sS'roll'
p6
F3.5683702189721322
sS'pitch'
p7
F1.3495375050110914
ssS'heart_rate'
p8
F96.60711367408393
sS'imu_torso'
p9
(dp10
g5
F17.206828346223478
sg6
F1.6752356417205005
sg7
F6.085049024651523
ssS'steplength'
p11
g2
sS'timestamp'
p12
cdatetime
datetime
p13
(S'\x07\xe2\x01\x1e\x17\x02\x1c\x03\xf7\xa0'
p14
tp15
Rp16
sS'speed'
p17
g2
sS'cadence'
p18
g2
s.(dp0
S'blood_pressure'
p1
S'no data'
p2
sS'imu_head'
p3
(dp4
S'yaw'
p5
F17.530500140835198
sS'roll'
p6
F12.57300173792145
sS'pitch'
p7
F12.608033685911291
ssS'heart_rate'
p8
F21.84871896055318
sS'imu_torso'
p9
(dp10
g5
F7.258723664898074
sg6
F1.6290123954576319
sg7
F2.109469654146179
ssS'steplength'
p11
g2
sS'timestamp'
p12
cdatetime
datetime
p13
(S'\x07\xe2\x01\x1e\x17\x02\x1d\x04\x03X'
p14
tp15
Rp16
sS'speed'
p17
g2
sS'cadence'
p18
g2
s.(dp0
S'blood_pressure'
p1
S'no data'
p2
sS'imu_head'
p3
(dp4
S'yaw'
p5
F15.74303262937444
sS'roll'
p6
F12.221677890850577
sS'pitch'
p7
F4.663630321797596
ssS'heart_rate'
p8
F81.34229702763929
sS'imu_torso'
p9
(dp10
g5
F7.939357055731254
sg6
F1.7368874392906064
sg7
F14.712223385045329
ssS'steplength'
p11
g2
sS'timestamp'
p12
cdatetime
datetime
p13
(S'\x07\xe2\x01\x1e\x17\x02\x1e\x04\x07@'
p14
tp15
Rp16
sS'speed'
p17
g2
sS'cadence'
p18
g2
s.(dp0
S'blood_pressure'
p1
S'no data'
p2
sS'imu_head'
p3
(dp4
S'yaw'
p5
F9.274543350989646
sS'roll'
p6
F5.615756489812576
sS'pitch'
p7
F3.543387505656488
ssS'heart_rate'
p8
F46.58744325013203
sS'imu_torso'
p9
(dp10
g5
F0.06233434979048935
sg6
F14.277961580193564
sg7
F7.323956810886054
ssS'steplength'
p11
g2
sS'timestamp'
p12
cdatetime
datetime
p13
(S'\x07\xe2\x01\x1e\x17\x02\x1f\x04\x16\xe0'
p14
tp15
Rp16
sS'speed'
p17
g2
sS'cadence'
p18
g2
s.(dp0
S'blood_pressure'
p1
S'no data'
p2
sS'imu_head'
p3
(dp4
S'yaw'
p5
F10.744183997500734
sS'roll'
p6
F1.0045998289086189
sS'pitch'
p7
F6.928703150099212
ssS'heart_rate'
p8
F91.13218570239104
sS'imu_torso'
p9
(dp10
g5
F4.979988045044916
sg6
F7.4067580442427765
sg7
F2.3228386732142847
ssS'steplength'
p11
g2
sS'timestamp'
p12
cdatetime
datetime
p13
(S'\x07\xe2\x01\x1e\x17\x02 \x04\x1e\xb0'
p14
tp15
Rp16
sS'speed'
p17
g2
sS'cadence'
p18
g2
s.(dp0
S'blood_pressure'
p1
S'no data'
p2
sS'imu_head'
p3
(dp4
S'yaw'
p5
F19.30909062139871
sS'roll'
p6
F6.0951336122667925
sS'pitch'
p7
F9.15241730108368
ssS'heart_rate'
p8
F16.294661379849128
sS'imu_torso'
p9
(dp10
g5
F1.0273162137255865
sg6
F19.08092129199325
sg7
F11.828142243100054
ssS'steplength'
p11
g2
sS'timestamp'
p12
cdatetime
datetime
p13
(S'\x07\xe2\x01\x1e\x17\x02!\x04&\x80'
p14
tp15
Rp16
sS'speed'
p17
g2
sS'cadence'
p18
g2
s.(dp0
S'blood_pressure'
p1
S'no data'
p2
sS'imu_head'
p3
(dp4
S'yaw'
p5
F17.247831039415658
sS'roll'
p6
F16.653430218774304
sS'pitch'
p7
F5.244910356159385
ssS'heart_rate'
p8
F87.30059718252913
sS'imu_torso'
p9
(dp10
g5
F15.263401757971542
sg6
F18.3798995579463
sg7
F13.247341705902908
ssS'steplength'
p11
g2
sS'timestamp'
p12
cdatetime
datetime
p13
(S'\x07\xe2\x01\x1e\x17\x02"\x0428'
p14
tp15
Rp16
sS'speed'
p17
g2
sS'cadence'
p18
g2
s.(dp0
S'blood_pressure'
p1
S'no data'
p2
sS'imu_head'
p3
(dp4
S'yaw'
p5
F17.8992600618818
sS'roll'
p6
F10.588187173970095
sS'pitch'
p7
F8.274214109563331
ssS'heart_rate'
p8
F31.280046615811298
sS'imu_torso'
p9
(dp10
g5
F19.2672782435752
sg6
F12.464336045536527
sg7
F18.66872768429445
ssS'steplength'
p11
g2
sS'timestamp'
p12
cdatetime
datetime
p13
(S'\x07\xe2\x01\x1e\x17\x02#\x04:\x08'
p14
tp15
Rp16
sS'speed'
p17
g2
sS'cadence'
p18
g2
s.