(dp0
S'blood_pressure'
p1
S'no data'
p2
sS'imu_head'
p3
(dp4
S'yaw'
p5
F14.406385697401788
sS'roll'
p6
F2.9974926502195753
sS'pitch'
p7
F11.088700761045779
ssS'heart_rate'
p8
F15.245373009234452
sS'imu_torso'
p9
(dp10
g5
F17.313412851628662
sg6
F10.808240562752669
sg7
F4.375582002722287
ssS'steplength'
p11
g2
sS'timestamp'
p12
cdatetime
datetime
p13
(S'\x07\xe2\x01\x1e\x15;\x06\t\xc0\x18'
p14
tp15
Rp16
sS'speed'
p17
g2
sS'cadence'
p18
g2
s.(dp0
S'blood_pressure'
p1
S'no data'
p2
sS'imu_head'
p3
(dp4
S'yaw'
p5
F9.160841676985266
sS'roll'
p6
F13.75207926154694
sS'pitch'
p7
F12.075085923863488
ssS'heart_rate'
p8
F92.0831803319729
sS'imu_torso'
p9
(dp10
g5
F2.3108671888566867
sg6
F4.594810108375478
sg7
F9.125382706896248
ssS'steplength'
p11
g2
sS'timestamp'
p12
cdatetime
datetime
p13
(S'\x07\xe2\x01\x1e\x15;\x07\t\xb0x'
p14
tp15
Rp16
sS'speed'
p17
g2
sS'cadence'
p18
g2
s.(dp0
S'blood_pressure'
p1
S'no data'
p2
sS'imu_head'
p3
(dp4
S'yaw'
p5
F14.873010245251528
sS'roll'
p6
F5.893895497060704
sS'pitch'
p7
F16.283893179692967
ssS'heart_rate'
p8
F63.51512323946924
sS'imu_torso'
p9
(dp10
g5
F11.232531054881926
sg6
F3.347507949132096
sg7
F6.586399771577098
ssS'steplength'
p11
g2
sS'timestamp'
p12
cdatetime
datetime
p13
(S'\x07\xe2\x01\x1e\x15;\x08\t\xb8H'
p14
tp15
Rp16
sS'speed'
p17
g2
sS'cadence'
p18
g2
s.(dp0
S'blood_pressure'
p1
S'no data'
p2
sS'imu_head'
p3
(dp4
S'yaw'
p5
F6.007455787777429
sS'roll'
p6
F1.0187975051733433
sS'pitch'
p7
F18.843722372549028
ssS'heart_rate'
p8
F64.42015989199031
sS'imu_torso'
p9
(dp10
g5
F6.620163425011485
sg6
F18.731777797213866
sg7
F9.78623217856936
ssS'steplength'
p11
g2
sS'timestamp'
p12
cdatetime
datetime
p13
(S'\x07\xe2\x01\x1e\x15;\t\t\xc0\x18'
p14
tp15
Rp16
sS'speed'
p17
g2
sS'cadence'
p18
g2
s.(dp0
S'blood_pressure'
p1
S'no data'
p2
sS'imu_head'
p3
(dp4
S'yaw'
p5
F15.270135503205154
sS'roll'
p6
F17.930739639182526
sS'pitch'
p7
F3.0478312554362486
ssS'heart_rate'
p8
F74.47685093553024
sS'imu_torso'
p9
(dp10
g5
F9.613793561999923
sg6
F15.273815284758312
sg7
F13.785675069348805
ssS'steplength'
p11
g2
sS'timestamp'
p12
cdatetime
datetime
p13
(S'\x07\xe2\x01\x1e\x15;\n\t\xc4\x00'
p14
tp15
Rp16
sS'speed'
p17
g2
sS'cadence'
p18
g2
s.(dp0
S'blood_pressure'
p1
S'no data'
p2
sS'imu_head'
p3
(dp4
S'yaw'
p5
F16.279002639499115
sS'roll'
p6
F6.069218147759412
sS'pitch'
p7
F16.112541513976225
ssS'heart_rate'
p8
F7.332313362100374
sS'imu_torso'
p9
(dp10
g5
F7.562808468349398
sg6
F14.362437096320415
sg7
F18.254234956152732
ssS'steplength'
p11
g2
sS'timestamp'
p12
cdatetime
datetime
p13
(S'\x07\xe2\x01\x1e\x15;\x0b\t\xcb\xd0'
p14
tp15
Rp16
sS'speed'
p17
g2
sS'cadence'
p18
g2
s.(dp0
S'blood_pressure'
p1
S'no data'
p2
sS'imu_head'
p3
(dp4
S'yaw'
p5
F19.16610902844509
sS'roll'
p6
F9.58523869807041
sS'pitch'
p7
F2.934403426494976
ssS'heart_rate'
p8
F39.195784278342884
sS'imu_torso'
p9
(dp10
g5
F3.8617600746070035
sg6
F15.543573345149982
sg7
F3.163528083546867
ssS'steplength'
p11
g2
sS'timestamp'
p12
cdatetime
datetime
p13
(S'\x07\xe2\x01\x1e\x15;\x0c\t\xd3\xa0'
p14
tp15
Rp16
sS'speed'
p17
g2
sS'cadence'
p18
g2
s.(dp0
S'blood_pressure'
p1
S'no data'
p2
sS'imu_head'
p3
(dp4
S'yaw'
p5
F1.3116906230344583
sS'roll'
p6
F15.699363037582199
sS'pitch'
p7
F10.223555040587858
ssS'heart_rate'
p8
F30.168498757238694
sS'imu_torso'
p9
(dp10
g5
F13.578624352603118
sg6
F17.639032406436556
sg7
F0.926072622028713
ssS'steplength'
p11
g2
sS'timestamp'
p12
cdatetime
datetime
p13
(S'\x07\xe2\x01\x1e\x15;\r\t\xdfX'
p14
tp15
Rp16
sS'speed'
p17
g2
sS'cadence'
p18
g2
s.(dp0
S'blood_pressure'
p1
S'no data'
p2
sS'imu_head'
p3
(dp4
S'yaw'
p5
F15.25156235143498
sS'roll'
p6
F1.4565557123756423
sS'pitch'
p7
F9.262095383193698
ssS'heart_rate'
p8
F53.97645665346725
sS'imu_torso'
p9
(dp10
g5
F18.416795211362363
sg6
F19.853111045269113
sg7
F6.639984151810876
ssS'steplength'
p11
g2
sS'timestamp'
p12
cdatetime
datetime
p13
(S'\x07\xe2\x01\x1e\x15;\x0e\t\xeb\x10'
p14
tp15
Rp16
sS'speed'
p17
g2
sS'cadence'
p18
g2
s.(dp0
S'blood_pressure'
p1
S'no data'
p2
sS'imu_head'
p3
(dp4
S'yaw'
p5
F14.090322899055064
sS'roll'
p6
F0.7041727689643684
sS'pitch'
p7
F5.994975599703203
ssS'heart_rate'
p8
F65.38963573810565
sS'imu_torso'
p9
(dp10
g5
F15.409628267108868
sg6
F15.319384880967242
sg7
F8.378783003027571
ssS'steplength'
p11
g2
sS'timestamp'
p12
cdatetime
datetime
p13
(S'\x07\xe2\x01\x1e\x15;\x0f\t\xf6\xc8'
p14
tp15
Rp16
sS'speed'
p17
g2
sS'cadence'
p18
g2
s.(dp0
S'blood_pressure'
p1
S'no data'
p2
sS'imu_head'
p3
(dp4
S'yaw'
p5
F12.064243838202295
sS'roll'
p6
F15.429615633859408
sS'pitch'
p7
F0.5865578105271441
ssS'heart_rate'
p8
F27.304001780380773
sS'imu_torso'
p9
(dp10
g5
F0.3300892305153469
sg6
F14.595017344799935
sg7
F11.454390417919226
ssS'steplength'
p11
g2
sS'timestamp'
p12
cdatetime
datetime
p13
(S'\x07\xe2\x01\x1e\x15;\x10\t\xfa\xb0'
p14
tp15
Rp16
sS'speed'
p17
g2
sS'cadence'
p18
g2
s.(dp0
S'blood_pressure'
p1
S'no data'
p2
sS'imu_head'
p3
(dp4
S'yaw'
p5
F2.5568557901726496
sS'roll'
p6
F7.967770410622926
sS'pitch'
p7
F14.710491514155224
ssS'heart_rate'
p8
F91.0851490661411
sS'imu_torso'
p9
(dp10
g5
F8.427979107789287
sg6
F19.105771041010897
sg7
F11.287525049608657
ssS'steplength'
p11
g2
sS'timestamp'
p12
cdatetime
datetime
p13
(S'\x07\xe2\x01\x1e\x15;\x11\n\x06h'
p14
tp15
Rp16
sS'speed'
p17
g2
sS'cadence'
p18
g2
s.(dp0
S'blood_pressure'
p1
S'no data'
p2
sS'imu_head'
p3
(dp4
S'yaw'
p5
F4.617863311175863
sS'roll'
p6
F5.068640016926384
sS'pitch'
p7
F16.829676530684733
ssS'heart_rate'
p8
F9.599486564830617
sS'imu_torso'
p9
(dp10
g5
F18.378389462540063
sg6
F5.37963556723925
sg7
F18.06897058466226
ssS'steplength'
p11
g2
sS'timestamp'
p12
cdatetime
datetime
p13
(S'\x07\xe2\x01\x1e\x15;\x12\n\x12 '
p14
tp15
Rp16
sS'speed'
p17
g2
sS'cadence'
p18
g2
s.(dp0
S'blood_pressure'
p1
S'no data'
p2
sS'imu_head'
p3
(dp4
S'yaw'
p5
F16.668814240770406
sS'roll'
p6
F12.027610573548726
sS'pitch'
p7
F7.536836743224214
ssS'heart_rate'
p8
F91.8018809574003
sS'imu_torso'
p9
(dp10
g5
F17.916247072736525
sg6
F10.993212574785101
sg7
F7.547680631484177
ssS'steplength'
p11
g2
sS'timestamp'
p12
cdatetime
datetime
p13
(S'\x07\xe2\x01\x1e\x15;\x13\n\x12 '
p14
tp15
Rp16
sS'speed'
p17
g2
sS'cadence'
p18
g2
s.(dp0
S'blood_pressure'
p1
S'no data'
p2
sS'imu_head'
p3
(dp4
S'yaw'
p5
F2.3919902227090573
sS'roll'
p6
F13.86968619733098
sS'pitch'
p7
F16.335919941969507
ssS'heart_rate'
p8
F8.14595993817252
sS'imu_torso'
p9
(dp10
g5
F12.162548430338635
sg6
F5.741283487782023
sg7
F10.597347853723251
ssS'steplength'
p11
g2
sS'timestamp'
p12
cdatetime
datetime
p13
(S'\x07\xe2\x01\x1e\x15;\x14\n\x1d\xd8'
p14
tp15
Rp16
sS'speed'
p17
g2
sS'cadence'
p18
g2
s.