(dp0
S'blood_pressure'
p1
S'no data'
p2
sS'imu_head'
p3
(dp4
S'yaw'
p5
F6.530254199841316
sS'roll'
p6
F3.5225293069724084
sS'pitch'
p7
F2.8789913133956446
ssS'heart_rate'
p8
F98.06045052656322
sS'imu_torso'
p9
(dp10
g5
F17.773618801941396
sg6
F1.4913003196438956
sg7
F6.371282396994193
ssS'steplength'
p11
g2
sS'timestamp'
p12
cdatetime
datetime
p13
(S'\x07\xe2\x01\x1e\x1619\x0c\xe0\xe0'
p14
tp15
Rp16
sS'speed'
p17
g2
sS'cadence'
p18
g2
s.(dp0
S'blood_pressure'
p1
S'no data'
p2
sS'imu_head'
p3
(dp4
S'yaw'
p5
F9.672327974880448
sS'roll'
p6
F10.2577613145475
sS'pitch'
p7
F5.109810400885316
ssS'heart_rate'
p8
F45.533718941305736
sS'imu_torso'
p9
(dp10
g5
F2.0681401287064527
sg6
F10.561339365617169
sg7
F1.3700125206484515
ssS'steplength'
p11
g2
sS'timestamp'
p12
cdatetime
datetime
p13
(S'\x07\xe2\x01\x1e\x161:\x0c\xd5('
p14
tp15
Rp16
sS'speed'
p17
g2
sS'cadence'
p18
g2
s.(dp0
S'blood_pressure'
p1
S'no data'
p2
sS'imu_head'
p3
(dp4
S'yaw'
p5
F8.392521149325097
sS'roll'
p6
F12.554091522659657
sS'pitch'
p7
F19.530458364169046
ssS'heart_rate'
p8
F36.631302225955274
sS'imu_torso'
p9
(dp10
g5
F12.143431923333008
sg6
F17.84326006457394
sg7
F15.153737680862386
ssS'steplength'
p11
g2
sS'timestamp'
p12
cdatetime
datetime
p13
(S'\x07\xe2\x01\x1e\x161;\x0c\xdc\xf8'
p14
tp15
Rp16
sS'speed'
p17
g2
sS'cadence'
p18
g2
s.(dp0
S'blood_pressure'
p1
S'no data'
p2
sS'imu_head'
p3
(dp4
S'yaw'
p5
F3.0208325931487034
sS'roll'
p6
F18.51238356754395
sS'pitch'
p7
F17.59665633290024
ssS'heart_rate'
p8
F68.18609203979481
sS'imu_torso'
p9
(dp10
g5
F18.468985544677913
sg6
F9.931134066286734
sg7
F9.468441770833175
ssS'steplength'
p11
g2
sS'timestamp'
p12
cdatetime
datetime
p13
(S'\x07\xe2\x01\x1e\x162\x00\x0c\xec\x98'
p14
tp15
Rp16
sS'speed'
p17
g2
sS'cadence'
p18
g2
s.(dp0
S'blood_pressure'
p1
S'no data'
p2
sS'imu_head'
p3
(dp4
S'yaw'
p5
F10.424872680420485
sS'roll'
p6
F4.202982929131722
sS'pitch'
p7
F14.895547407841255
ssS'heart_rate'
p8
F71.87808574138398
sS'imu_torso'
p9
(dp10
g5
F8.535752191173406
sg6
F6.29600946050221
sg7
F19.018974402337715
ssS'steplength'
p11
g2
sS'timestamp'
p12
cdatetime
datetime
p13
(S'\x07\xe2\x01\x1e\x162\x01\x0c\xec\x98'
p14
tp15
Rp16
sS'speed'
p17
g2
sS'cadence'
p18
g2
s.(dp0
S'blood_pressure'
p1
S'no data'
p2
sS'imu_head'
p3
(dp4
S'yaw'
p5
F10.677506294460564
sS'roll'
p6
F14.265467262300472
sS'pitch'
p7
F3.0093136198541015
ssS'heart_rate'
p8
F62.53859540125145
sS'imu_torso'
p9
(dp10
g5
F8.28774030077804
sg6
F1.4697010250061293
sg7
F13.169167826054887
ssS'steplength'
p11
g2
sS'timestamp'
p12
cdatetime
datetime
p13
(S'\x07\xe2\x01\x1e\x162\x02\x0c\xf8P'
p14
tp15
Rp16
sS'speed'
p17
g2
sS'cadence'
p18
g2
s.(dp0
S'blood_pressure'
p1
S'no data'
p2
sS'imu_head'
p3
(dp4
S'yaw'
p5
F9.5153394493434
sS'roll'
p6
F14.39776210658318
sS'pitch'
p7
F2.043477073680491
ssS'heart_rate'
p8
F34.926237558349584
sS'imu_torso'
p9
(dp10
g5
F5.8822577655217305
sg6
F10.732313417551087
sg7
F1.2910678476002024
ssS'steplength'
p11
g2
sS'timestamp'
p12
cdatetime
datetime
p13
(S'\x07\xe2\x01\x1e\x162\x03\x0c\xfc8'
p14
tp15
Rp16
sS'speed'
p17
g2
sS'cadence'
p18
g2
s.(dp0
S'blood_pressure'
p1
S'no data'
p2
sS'imu_head'
p3
(dp4
S'yaw'
p5
F12.669704219508898
sS'roll'
p6
F13.973141535520611
sS'pitch'
p7
F1.4771376617446075
ssS'heart_rate'
p8
F58.01906326617717
sS'imu_torso'
p9
(dp10
g5
F3.279778681906498
sg6
F17.318009366793074
sg7
F15.342894183963278
ssS'steplength'
p11
g2
sS'timestamp'
p12
cdatetime
datetime
p13
(S'\x07\xe2\x01\x1e\x162\x04\r\x00 '
p14
tp15
Rp16
sS'speed'
p17
g2
sS'cadence'
p18
g2
s.(dp0
S'blood_pressure'
p1
S'no data'
p2
sS'imu_head'
p3
(dp4
S'yaw'
p5
F13.8612744371409
sS'roll'
p6
F10.516379687953656
sS'pitch'
p7
F17.94850131564711
ssS'heart_rate'
p8
F22.47002798701501
sS'imu_torso'
p9
(dp10
g5
F18.030919173974006
sg6
F12.494165307606051
sg7
F16.383199973945366
ssS'steplength'
p11
g2
sS'timestamp'
p12
cdatetime
datetime
p13
(S'\x07\xe2\x01\x1e\x162\x05\r\x07\xf0'
p14
tp15
Rp16
sS'speed'
p17
g2
sS'cadence'
p18
g2
s.(dp0
S'blood_pressure'
p1
S'no data'
p2
sS'imu_head'
p3
(dp4
S'yaw'
p5
F4.267055487612151
sS'roll'
p6
F15.2348164276635
sS'pitch'
p7
F2.2522193522436185
ssS'heart_rate'
p8
F69.28357265955769
sS'imu_torso'
p9
(dp10
g5
F17.745161788700518
sg6
F11.357622393329699
sg7
F5.732899218661811
ssS'steplength'
p11
g2
sS'timestamp'
p12
cdatetime
datetime
p13
(S'\x07\xe2\x01\x1e\x162\x06\r\x0b\xd8'
p14
tp15
Rp16
sS'speed'
p17
g2
sS'cadence'
p18
g2
s.(dp0
S'blood_pressure'
p1
S'no data'
p2
sS'imu_head'
p3
(dp4
S'yaw'
p5
F14.586931723919331
sS'roll'
p6
F7.987147165567253
sS'pitch'
p7
F17.640467179034314
ssS'heart_rate'
p8
F23.268969992917256
sS'imu_torso'
p9
(dp10
g5
F7.455004966858412
sg6
F10.312918464545158
sg7
F7.674369332448874
ssS'steplength'
p11
g2
sS'timestamp'
p12
cdatetime
datetime
p13
(S'\x07\xe2\x01\x1e\x162\x07\r\x0f\xc0'
p14
tp15
Rp16
sS'speed'
p17
g2
sS'cadence'
p18
g2
s.(dp0
S'blood_pressure'
p1
S'no data'
p2
sS'imu_head'
p3
(dp4
S'yaw'
p5
F3.5088332503163233
sS'roll'
p6
F19.738893781867233
sS'pitch'
p7
F0.7077467030140094
ssS'heart_rate'
p8
F99.66448136311669
sS'imu_torso'
p9
(dp10
g5
F4.21266010685202
sg6
F12.630187791795557
sg7
F10.600045702263412
ssS'steplength'
p11
g2
sS'timestamp'
p12
cdatetime
datetime
p13
(S'\x07\xe2\x01\x1e\x162\x08\r\x17\x90'
p14
tp15
Rp16
sS'speed'
p17
g2
sS'cadence'
p18
g2
s.(dp0
S'blood_pressure'
p1
S'no data'
p2
sS'imu_head'
p3
(dp4
S'yaw'
p5
F13.94288578902556
sS'roll'
p6
F17.203446672740593
sS'pitch'
p7
F1.2717707336479989
ssS'heart_rate'
p8
F45.03526561520433
sS'imu_torso'
p9
(dp10
g5
F9.392017337785838
sg6
F3.210774134281471
sg7
F19.430946076681664
ssS'steplength'
p11
g2
sS'timestamp'
p12
cdatetime
datetime
p13
(S'\x07\xe2\x01\x1e\x162\t\r\x1bx'
p14
tp15
Rp16
sS'speed'
p17
g2
sS'cadence'
p18
g2
s.(dp0
S'blood_pressure'
p1
S'no data'
p2
sS'imu_head'
p3
(dp4
S'yaw'
p5
F4.475024916018575
sS'roll'
p6
F10.089515203040104
sS'pitch'
p7
F0.5528993409376382
ssS'heart_rate'
p8
F96.23769462778876
sS'imu_torso'
p9
(dp10
g5
F7.571092562724426
sg6
F14.18053085070702
sg7
F18.4179593351409
ssS'steplength'
p11
g2
sS'timestamp'
p12
cdatetime
datetime
p13
(S'\x07\xe2\x01\x1e\x162\n\r#H'
p14
tp15
Rp16
sS'speed'
p17
g2
sS'cadence'
p18
g2
s.(dp0
S'blood_pressure'
p1
S'no data'
p2
sS'imu_head'
p3
(dp4
S'yaw'
p5
F14.908328420205592
sS'roll'
p6
F6.383402609550835
sS'pitch'
p7
F7.425466399402742
ssS'heart_rate'
p8
F86.04824673038529
sS'imu_torso'
p9
(dp10
g5
F9.17913006319389
sg6
F10.022865769773743
sg7
F11.40654154807496
ssS'steplength'
p11
g2
sS'timestamp'
p12
cdatetime
datetime
p13
(S'\x07\xe2\x01\x1e\x162\x0b\r+\x18'
p14
tp15
Rp16
sS'speed'
p17
g2
sS'cadence'
p18
g2
s.(dp0
S'blood_pressure'
p1
S'no data'
p2
sS'imu_head'
p3
(dp4
S'yaw'
p5
F5.85170927864004
sS'roll'
p6
F9.848054517973193
sS'pitch'
p7
F8.760722874265962
ssS'heart_rate'
p8
F57.18940204247889
sS'imu_torso'
p9
(dp10
g5
F11.385751998625492
sg6
F11.368270269822107
sg7
F13.44444208507992
ssS'steplength'
p11
g2
sS'timestamp'
p12
cdatetime
datetime
p13
(S'\x07\xe2\x01\x1e\x162\x0c\r6\xd0'
p14
tp15
Rp16
sS'speed'
p17
g2
sS'cadence'
p18
g2
s.(dp0
S'blood_pressure'
p1
S'no data'
p2
sS'imu_head'
p3
(dp4
S'yaw'
p5
F9.487985641574577
sS'roll'
p6
F3.1841563547735108
sS'pitch'
p7
F2.7036430982479054
ssS'heart_rate'
p8
F89.25819490680753
sS'imu_torso'
p9
(dp10
g5
F3.436270378660178
sg6
F17.187306334765093
sg7
F8.457799690643583
ssS'steplength'
p11
g2
sS'timestamp'
p12
cdatetime
datetime
p13
(S'\x07\xe2\x01\x1e\x162\r\r6\xd0'
p14
tp15
Rp16
sS'speed'
p17
g2
sS'cadence'
p18
g2
s.