(dp0
S'blood_pressure'
p1
S'nd'
p2
sS'imu_head'
p3
(dp4
S'yaw'
p5
F17.100255301155165
sS'roll'
p6
F14.721609324884646
sS'pitch'
p7
F18.61479734056974
ssS'heart_rate'
p8
F92.47600088029645
sS'imu_torso'
p9
(dp10
g5
F10.204723770781765
sg6
F17.016958958577412
sg7
F5.712024887803862
ssS'steplength'
p11
g2
sS'timestamp'
p12
cdatetime
datetime
p13
(S'\x07\xe2\x01\x18\x10\x0b\x13\x0e8\xa0'
p14
tp15
Rp16
sS'speed'
p17
g2
sS'cadence'
p18
g2
s.(dp0
S'blood_pressure'
p1
S'nd'
p2
sS'imu_head'
p3
(dp4
S'yaw'
p5
F11.063253605565038
sS'roll'
p6
F12.520909379462083
sS'pitch'
p7
F15.326269793031509
ssS'heart_rate'
p8
F54.160817187963396
sS'imu_torso'
p9
(dp10
g5
F12.351334773260714
sg6
F6.999080061841891
sg7
F10.335144999295128
ssS'steplength'
p11
g2
sS'timestamp'
p12
cdatetime
datetime
p13
(S'\x07\xe2\x01\x18\x10\x0b\x14\x0e4\xb8'
p14
tp15
Rp16
sS'speed'
p17
g2
sS'cadence'
p18
g2
s.(dp0
S'blood_pressure'
p1
S'nd'
p2
sS'imu_head'
p3
(dp4
S'yaw'
p5
F0.5411402214078032
sS'roll'
p6
F18.4104415700838
sS'pitch'
p7
F4.847975081483686
ssS'heart_rate'
p8
F57.72847517080575
sS'imu_torso'
p9
(dp10
g5
F18.897268154097432
sg6
F12.72713630188662
sg7
F7.64259218461752
ssS'steplength'
p11
g2
sS'timestamp'
p12
cdatetime
datetime
p13
(S'\x07\xe2\x01\x18\x10\x0b\x15\x0e@p'
p14
tp15
Rp16
sS'speed'
p17
g2
sS'cadence'
p18
g2
s.(dp0
S'blood_pressure'
p1
S'nd'
p2
sS'imu_head'
p3
(dp4
S'yaw'
p5
F5.557817033522299
sS'roll'
p6
F9.24673136690367
sS'pitch'
p7
F8.75391217459307
ssS'heart_rate'
p8
F8.15893232437671
sS'imu_torso'
p9
(dp10
g5
F5.467770649733545
sg6
F6.432575787519235
sg7
F10.077005620108379
ssS'steplength'
p11
g2
sS'timestamp'
p12
cdatetime
datetime
p13
(S'\x07\xe2\x01\x18\x10\x0b\x16\x0eH@'
p14
tp15
Rp16
sS'speed'
p17
g2
sS'cadence'
p18
g2
s.(dp0
S'blood_pressure'
p1
S'nd'
p2
sS'imu_head'
p3
(dp4
S'yaw'
p5
F14.03904261007861
sS'roll'
p6
F0.7758197160347535
sS'pitch'
p7
F12.509785349135514
ssS'heart_rate'
p8
F21.635031653696423
sS'imu_torso'
p9
(dp10
g5
F2.1156372330050077
sg6
F8.886519242819858
sg7
F4.2301408237200615
ssS'steplength'
p11
g2
sS'timestamp'
p12
cdatetime
datetime
p13
(S'\x07\xe2\x01\x18\x10\x0b\x17\x0eP\x10'
p14
tp15
Rp16
sS'speed'
p17
g2
sS'cadence'
p18
g2
s.(dp0
S'blood_pressure'
p1
S'nd'
p2
sS'imu_head'
p3
(dp4
S'yaw'
p5
F19.367618515367077
sS'roll'
p6
F14.427511467245349
sS'pitch'
p7
F17.00346856224166
ssS'heart_rate'
p8
F51.194161142843576
sS'imu_torso'
p9
(dp10
g5
F3.0851542235706364
sg6
F7.387044163698759
sg7
F18.32552878758764
ssS'steplength'
p11
g2
sS'timestamp'
p12
cdatetime
datetime
p13
(S'\x07\xe2\x01\x18\x10\x0b\x18\x0eS\xf8'
p14
tp15
Rp16
sS'speed'
p17
g2
sS'cadence'
p18
g2
s.(dp0
S'blood_pressure'
p1
S'nd'
p2
sS'imu_head'
p3
(dp4
S'yaw'
p5
F4.9834616814685155
sS'roll'
p6
F10.806345572918104
sS'pitch'
p7
F11.794507547354169
ssS'heart_rate'
p8
F8.081448736819418
sS'imu_torso'
p9
(dp10
g5
F13.022493659606136
sg6
F9.96724885021937
sg7
F4.863975911119081
ssS'steplength'
p11
g2
sS'timestamp'
p12
cdatetime
datetime
p13
(S'\x07\xe2\x01\x18\x10\x0b\x19\x0e[\xc8'
p14
tp15
Rp16
sS'speed'
p17
g2
sS'cadence'
p18
g2
s.(dp0
S'blood_pressure'
p1
S'nd'
p2
sS'imu_head'
p3
(dp4
S'yaw'
p5
F19.292197232361353
sS'roll'
p6
F19.002068264451264
sS'pitch'
p7
F18.139450252924693
ssS'heart_rate'
p8
F47.094050466006074
sS'imu_torso'
p9
(dp10
g5
F2.192038828879228
sg6
F5.820739178169514
sg7
F16.138946932809283
ssS'steplength'
p11
g2
sS'timestamp'
p12
cdatetime
datetime
p13
(S'\x07\xe2\x01\x18\x10\x0b\x1a\x0ec\x98'
p14
tp15
Rp16
sS'speed'
p17
g2
sS'cadence'
p18
g2
s.(dp0
S'blood_pressure'
p1
S'nd'
p2
sS'imu_head'
p3
(dp4
S'yaw'
p5
F6.414004185919486
sS'roll'
p6
F3.8653630060398148
sS'pitch'
p7
F14.976411921390438
ssS'heart_rate'
p8
F1.8094020938843713
sS'imu_torso'
p9
(dp10
g5
F8.21883716340324
sg6
F5.579819952039515
sg7
F14.613097137733229
ssS'steplength'
p11
g2
sS'timestamp'
p12
cdatetime
datetime
p13
(S'\x07\xe2\x01\x18\x10\x0b\x1b\x0ekh'
p14
tp15
Rp16
sS'speed'
p17
g2
sS'cadence'
p18
g2
s.(dp0
S'blood_pressure'
p1
S'nd'
p2
sS'imu_head'
p3
(dp4
S'yaw'
p5
F9.78534140250467
sS'roll'
p6
F11.240386477211405
sS'pitch'
p7
F15.99152971474876
ssS'heart_rate'
p8
F90.11326605480059
sS'imu_torso'
p9
(dp10
g5
F8.160288644250818
sg6
F18.7272382120508
sg7
F18.82743476218725
ssS'steplength'
p11
g2
sS'timestamp'
p12
cdatetime
datetime
p13
(S'\x07\xe2\x01\x18\x10\x0b\x1c\x0ew '
p14
tp15
Rp16
sS'speed'
p17
g2
sS'cadence'
p18
g2
s.