(dp0
S'blood_pressure'
p1
S'no data'
p2
sS'imu_head'
p3
(dp4
S'yaw'
p5
F7.288572306255279
sS'roll'
p6
F8.86120879822629
sS'pitch'
p7
F17.984086470562648
ssS'heart_rate'
p8
F45.74789991789957
sS'imu_torso'
p9
(dp10
g5
F13.02056119991234
sg6
F1.4022537942481894
sg7
F13.855819896323977
ssS'steplength'
p11
g2
sS'timestamp'
p12
cdatetime
datetime
p13
(S'\x07\xe2\x01\x1f\x14,&\x01\r\x88'
p14
tp15
Rp16
sS'speed'
p17
g2
sS'cadence'
p18
g2
s.(dp0
S'blood_pressure'
p1
S'no data'
p2
sS'imu_head'
p3
(dp4
S'yaw'
p5
F7.570488884756978
sS'roll'
p6
F2.00717022502078
sS'pitch'
p7
F12.964844003957243
ssS'heart_rate'
p8
F18.927944841283217
sS'imu_torso'
p9
(dp10
g5
F16.58699417989216
sg6
F9.355678370114628
sg7
F0.5789955363914001
ssS'steplength'
p11
g2
sS'timestamp'
p12
cdatetime
datetime
p13
(S"\x07\xe2\x01\x1f\x14,'\x00U\xf0"
p14
tp15
Rp16
sS'speed'
p17
g2
sS'cadence'
p18
g2
s.(dp0
S'blood_pressure'
p1
S'no data'
p2
sS'imu_head'
p3
(dp4
S'yaw'
p5
F1.469345623230407
sS'roll'
p6
F19.795298907974892
sS'pitch'
p7
F1.6402293178732519
ssS'heart_rate'
p8
F79.92227956898688
sS'imu_torso'
p9
(dp10
g5
F11.45636971024227
sg6
F17.349258605787558
sg7
F6.131150235863149
ssS'steplength'
p11
g2
sS'timestamp'
p12
cdatetime
datetime
p13
(S'\x07\xe2\x01\x1f\x14,(\x00e\x90'
p14
tp15
Rp16
sS'speed'
p17
g2
sS'cadence'
p18
g2
s.(dp0
S'blood_pressure'
p1
S'no data'
p2
sS'imu_head'
p3
(dp4
S'yaw'
p5
F7.7493417704128165
sS'roll'
p6
F15.989972723417463
sS'pitch'
p7
F7.385456488173494
ssS'heart_rate'
p8
F48.2654371330946
sS'imu_torso'
p9
(dp10
g5
F16.436449712297712
sg6
F0.6777951422592587
sg7
F17.734123412212202
ssS'steplength'
p11
g2
sS'timestamp'
p12
cdatetime
datetime
p13
(S'\x07\xe2\x01\x1f\x14,)\x00m`'
p14
tp15
Rp16
sS'speed'
p17
g2
sS'cadence'
p18
g2
s.(dp0
S'blood_pressure'
p1
S'no data'
p2
sS'imu_head'
p3
(dp4
S'yaw'
p5
F2.7605655681762853
sS'roll'
p6
F15.435514246306228
sS'pitch'
p7
F3.479301045933947
ssS'heart_rate'
p8
F73.0831558036652
sS'imu_torso'
p9
(dp10
g5
F17.183709795496778
sg6
F17.989237248321327
sg7
F5.088938574486026
ssS'steplength'
p11
g2
sS'timestamp'
p12
cdatetime
datetime
p13
(S'\x07\xe2\x01\x1f\x14,*\x00u0'
p14
tp15
Rp16
sS'speed'
p17
g2
sS'cadence'
p18
g2
s.(dp0
S'blood_pressure'
p1
S'no data'
p2
sS'imu_head'
p3
(dp4
S'yaw'
p5
F5.077454571609145
sS'roll'
p6
F8.36420465466827
sS'pitch'
p7
F6.186397401961996
ssS'heart_rate'
p8
F60.28983020869417
sS'imu_torso'
p9
(dp10
g5
F14.34892437816452
sg6
F3.4947962281166345
sg7
F8.300865449768501
ssS'steplength'
p11
g2
sS'timestamp'
p12
cdatetime
datetime
p13
(S'\x07\xe2\x01\x1f\x14,+\x00\x80\xe8'
p14
tp15
Rp16
sS'speed'
p17
g2
sS'cadence'
p18
g2
s.(dp0
S'blood_pressure'
p1
S'no data'
p2
sS'imu_head'
p3
(dp4
S'yaw'
p5
F3.5276735701730777
sS'roll'
p6
F12.80320212237202
sS'pitch'
p7
F3.5946097465754834
ssS'heart_rate'
p8
F96.91203562716872
sS'imu_torso'
p9
(dp10
g5
F15.841345144546114
sg6
F14.75546025895628
sg7
F5.6249094091593355
ssS'steplength'
p11
g2
sS'timestamp'
p12
cdatetime
datetime
p13
(S'\x07\xe2\x01\x1f\x14,,\x00\x8c\xa0'
p14
tp15
Rp16
sS'speed'
p17
g2
sS'cadence'
p18
g2
s.(dp0
S'blood_pressure'
p1
S'no data'
p2
sS'imu_head'
p3
(dp4
S'yaw'
p5
F8.055211281121569
sS'roll'
p6
F6.831098284217518
sS'pitch'
p7
F16.99234389611035
ssS'heart_rate'
p8
F42.82953307825829
sS'imu_torso'
p9
(dp10
g5
F5.384421084993409
sg6
F9.37465029316727
sg7
F14.74421703417817
ssS'steplength'
p11
g2
sS'timestamp'
p12
cdatetime
datetime
p13
(S'\x07\xe2\x01\x1f\x14,-\x00\x98X'
p14
tp15
Rp16
sS'speed'
p17
g2
sS'cadence'
p18
g2
s.(dp0
S'blood_pressure'
p1
S'no data'
p2
sS'imu_head'
p3
(dp4
S'yaw'
p5
F13.218858353220607
sS'roll'
p6
F16.656484178352954
sS'pitch'
p7
F9.146227431607823
ssS'heart_rate'
p8
F44.030850030645176
sS'imu_torso'
p9
(dp10
g5
F3.9437843085935276
sg6
F13.487633205459995
sg7
F15.464642664350617
ssS'steplength'
p11
g2
sS'timestamp'
p12
cdatetime
datetime
p13
(S'\x07\xe2\x01\x1f\x14,.\x00\xa7\xf8'
p14
tp15
Rp16
sS'speed'
p17
g2
sS'cadence'
p18
g2
s.(dp0
S'blood_pressure'
p1
S'no data'
p2
sS'imu_head'
p3
(dp4
S'yaw'
p5
F4.352733222991385
sS'roll'
p6
F3.718694061642207
sS'pitch'
p7
F8.207537511830267
ssS'heart_rate'
p8
F46.74252649131573
sS'imu_torso'
p9
(dp10
g5
F10.548008995666361
sg6
F11.942020984329195
sg7
F10.331993132140942
ssS'steplength'
p11
g2
sS'timestamp'
p12
cdatetime
datetime
p13
(S'\x07\xe2\x01\x1f\x14,/\x00\xb3\xb0'
p14
tp15
Rp16
sS'speed'
p17
g2
sS'cadence'
p18
g2
s.(dp0
S'blood_pressure'
p1
S'no data'
p2
sS'imu_head'
p3
(dp4
S'yaw'
p5
F12.142254015835476
sS'roll'
p6
F6.137925247223068
sS'pitch'
p7
F1.7768449410533904
ssS'heart_rate'
p8
F44.412850201045536
sS'imu_torso'
p9
(dp10
g5
F2.139875138240137
sg6
F4.833008533450503
sg7
F0.4954646802287832
ssS'steplength'
p11
g2
sS'timestamp'
p12
cdatetime
datetime
p13
(S'\x07\xe2\x01\x1f\x14,0\x00\xb7\x98'
p14
tp15
Rp16
sS'speed'
p17
g2
sS'cadence'
p18
g2
s.(dp0
S'blood_pressure'
p1
S'no data'
p2
sS'imu_head'
p3
(dp4
S'yaw'
p5
F4.529344425039634
sS'roll'
p6
F10.972753723632183
sS'pitch'
p7
F13.014032580293902
ssS'heart_rate'
p8
F11.674650150401655
sS'imu_torso'
p9
(dp10
g5
F8.596442250752476
sg6
F1.7236214508052239
sg7
F14.443233291962924
ssS'steplength'
p11
g2
sS'timestamp'
p12
cdatetime
datetime
p13
(S'\x07\xe2\x01\x1f\x14,1\x00\xcb '
p14
tp15
Rp16
sS'speed'
p17
g2
sS'cadence'
p18
g2
s.(dp0
S'blood_pressure'
p1
S'no data'
p2
sS'imu_head'
p3
(dp4
S'yaw'
p5
F13.853079972732624
sS'roll'
p6
F3.5457102544843844
sS'pitch'
p7
F0.017583530327696106
ssS'heart_rate'
p8
F57.897314013359235
sS'imu_torso'
p9
(dp10
g5
F4.43021011552853
sg6
F2.3253732798211457
sg7
F19.74827198197501
ssS'steplength'
p11
g2
sS'timestamp'
p12
cdatetime
datetime
p13
(S'\x07\xe2\x01\x1f\x14,2\x00\xd2\xf0'
p14
tp15
Rp16
sS'speed'
p17
g2
sS'cadence'
p18
g2
s.(dp0
S'blood_pressure'
p1
S'no data'
p2
sS'imu_head'
p3
(dp4
S'yaw'
p5
F8.92411916275217
sS'roll'
p6
F13.53452004877223
sS'pitch'
p7
F8.220196249626062
ssS'heart_rate'
p8
F59.72026032001171
sS'imu_torso'
p9
(dp10
g5
F17.701886784832126
sg6
F6.754992838546032
sg7
F6.289744314194204
ssS'steplength'
p11
g2
sS'timestamp'
p12
cdatetime
datetime
p13
(S'\x07\xe2\x01\x1f\x14,3\x00\xde\xa8'
p14
tp15
Rp16
sS'speed'
p17
g2
sS'cadence'
p18
g2
s.(dp0
S'blood_pressure'
p1
S'no data'
p2
sS'imu_head'
p3
(dp4
S'yaw'
p5
F18.783282426383398
sS'roll'
p6
F11.579804367432562
sS'pitch'
p7
F9.662703546798138
ssS'heart_rate'
p8
F93.13202170731554
sS'imu_torso'
p9
(dp10
g5
F8.97117563262398
sg6
F17.165807668079104
sg7
F8.58268198981275
ssS'steplength'
p11
g2
sS'timestamp'
p12
cdatetime
datetime
p13
(S'\x07\xe2\x01\x1f\x14,4\x00\xea`'
p14
tp15
Rp16
sS'speed'
p17
g2
sS'cadence'
p18
g2
s.(dp0
S'blood_pressure'
p1
S'no data'
p2
sS'imu_head'
p3
(dp4
S'yaw'
p5
F1.4603265275903432
sS'roll'
p6
F0.9754018175416856
sS'pitch'
p7
F9.149483489758989
ssS'heart_rate'
p8
F47.85641124789022
sS'imu_torso'
p9
(dp10
g5
F17.20523118742569
sg6
F15.23628650592013
sg7
F14.594419711146342
ssS'steplength'
p11
g2
sS'timestamp'
p12
cdatetime
datetime
p13
(S'\x07\xe2\x01\x1f\x14,5\x00\xf6\x18'
p14
tp15
Rp16
sS'speed'
p17
g2
sS'cadence'
p18
g2
s.(dp0
S'blood_pressure'
p1
S'no data'
p2
sS'imu_head'
p3
(dp4
S'yaw'
p5
F9.632960764587944
sS'roll'
p6
F3.4206164757591884
sS'pitch'
p7
F3.9056974762863628
ssS'heart_rate'
p8
F50.49348080445317
sS'imu_torso'
p9
(dp10
g5
F19.818669050017167
sg6
F11.871188189014939
sg7
F8.13703010217676
ssS'steplength'
p11
g2
sS'timestamp'
p12
cdatetime
datetime
p13
(S'\x07\xe2\x01\x1f\x14,6\x01\x05\xb8'
p14
tp15
Rp16
sS'speed'
p17
g2
sS'cadence'
p18
g2
s.(dp0
S'blood_pressure'
p1
S'no data'
p2
sS'imu_head'
p3
(dp4
S'yaw'
p5
F1.7239400526565873
sS'roll'
p6
F1.460796488220737
sS'pitch'
p7
F15.81164178969992
ssS'heart_rate'
p8
F46.1804468703165
sS'imu_torso'
p9
(dp10
g5
F1.9603999412867212
sg6
F15.889005349642932
sg7
F10.066520478405723
ssS'steplength'
p11
g2
sS'timestamp'
p12
cdatetime
datetime
p13
(S'\x07\xe2\x01\x1f\x14,7\x01\x11p'
p14
tp15
Rp16
sS'speed'
p17
g2
sS'cadence'
p18
g2
s.(dp0
S'blood_pressure'
p1
S'no data'
p2
sS'imu_head'
p3
(dp4
S'yaw'
p5
F6.3404817622734715
sS'roll'
p6
F6.74850255415522
sS'pitch'
p7
F14.86140595889633
ssS'heart_rate'
p8
F93.52180088435014
sS'imu_torso'
p9
(dp10
g5
F15.797399918191458
sg6
F11.674535662138029
sg7
F3.0649186260349737
ssS'steplength'
p11
g2
sS'timestamp'
p12
cdatetime
datetime
p13
(S'\x07\xe2\x01\x1f\x14,8\x01\x1d('
p14
tp15
Rp16
sS'speed'
p17
g2
sS'cadence'
p18
g2
s.(dp0
S'blood_pressure'
p1
S'no data'
p2
sS'imu_head'
p3
(dp4
S'yaw'
p5
F17.926676610973576
sS'roll'
p6
F3.747788875606828
sS'pitch'
p7
F2.5052749999307844
ssS'heart_rate'
p8
F96.04744885497242
sS'imu_torso'
p9
(dp10
g5
F1.4605705756959142
sg6
F6.200115758348987
sg7
F17.753899949866273
ssS'steplength'
p11
g2
sS'timestamp'
p12
cdatetime
datetime
p13
(S'\x07\xe2\x01\x1f\x14,9\x010\xb0'
p14
tp15
Rp16
sS'speed'
p17
g2
sS'cadence'
p18
g2
s.(dp0
S'blood_pressure'
p1
S'no data'
p2
sS'imu_head'
p3
(dp4
S'yaw'
p5
F1.3773752093126745
sS'roll'
p6
F5.076275614255847
sS'pitch'
p7
F13.84198643304815
ssS'heart_rate'
p8
F37.393367113881645
sS'imu_torso'
p9
(dp10
g5
F16.19796832729349
sg6
F6.287767117758731
sg7
F5.640684124222068
ssS'steplength'
p11
g2
sS'timestamp'
p12
cdatetime
datetime
p13
(S'\x07\xe2\x01\x1f\x14,:\x01<h'
p14
tp15
Rp16
sS'speed'
p17
g2
sS'cadence'
p18
g2
s.(dp0
S'blood_pressure'
p1
S'no data'
p2
sS'imu_head'
p3
(dp4
S'yaw'
p5
F6.510038644533392
sS'roll'
p6
F11.045926769475496
sS'pitch'
p7
F15.505210995563665
ssS'heart_rate'
p8
F0.27706244010980985
sS'imu_torso'
p9
(dp10
g5
F18.963722752296853
sg6
F4.178891636130324
sg7
F1.72749161494262
ssS'steplength'
p11
g2
sS'timestamp'
p12
cdatetime
datetime
p13
(S'\x07\xe2\x01\x1f\x14,;\x01H '
p14
tp15
Rp16
sS'speed'
p17
g2
sS'cadence'
p18
g2
s.(dp0
S'blood_pressure'
p1
S'no data'
p2
sS'imu_head'
p3
(dp4
S'yaw'
p5
F9.211838996844
sS'roll'
p6
F7.082796331137753
sS'pitch'
p7
F2.8802335591950246
ssS'heart_rate'
p8
F76.44691518332263
sS'imu_torso'
p9
(dp10
g5
F6.8510240999635075
sg6
F0.9073980395316905
sg7
F10.951017791715758
ssS'steplength'
p11
g2
sS'timestamp'
p12
cdatetime
datetime
p13
(S'\x07\xe2\x01\x1f\x14-\x00\x01S\xd8'
p14
tp15
Rp16
sS'speed'
p17
g2
sS'cadence'
p18
g2
s.(dp0
S'blood_pressure'
p1
S'no data'
p2
sS'imu_head'
p3
(dp4
S'yaw'
p5
F2.4512341351595945
sS'roll'
p6
F18.807341450327527
sS'pitch'
p7
F2.6856895879754616
ssS'heart_rate'
p8
F21.83297971149227
sS'imu_torso'
p9
(dp10
g5
F0.40525365114612244
sg6
F15.032433375422361
sg7
F0.06301272921651169
ssS'steplength'
p11
g2
sS'timestamp'
p12
cdatetime
datetime
p13
(S'\x07\xe2\x01\x1f\x14-\x01\x01S\xd8'
p14
tp15
Rp16
sS'speed'
p17
g2
sS'cadence'
p18
g2
s.(dp0
S'blood_pressure'
p1
S'no data'
p2
sS'imu_head'
p3
(dp4
S'yaw'
p5
F8.724154819128165
sS'roll'
p6
F6.819084367563352
sS'pitch'
p7
F6.319280138543699
ssS'heart_rate'
p8
F1.2953607672675171
sS'imu_torso'
p9
(dp10
g5
F2.7539823548189646
sg6
F4.866343490128298
sg7
F18.375171734830023
ssS'steplength'
p11
g2
sS'timestamp'
p12
cdatetime
datetime
p13
(S'\x07\xe2\x01\x1f\x14-\x02\x01_\x90'
p14
tp15
Rp16
sS'speed'
p17
g2
sS'cadence'
p18
g2
s.(dp0
S'blood_pressure'
p1
S'no data'
p2
sS'imu_head'
p3
(dp4
S'yaw'
p5
F3.293685271212803
sS'roll'
p6
F0.34502498117140457
sS'pitch'
p7
F9.686064388010063
ssS'heart_rate'
p8
F43.50495532107088
sS'imu_torso'
p9
(dp10
g5
F9.033469267169467
sg6
F12.497126025670422
sg7
F16.139413222961558
ssS'steplength'
p11
g2
sS'timestamp'
p12
cdatetime
datetime
p13
(S'\x07\xe2\x01\x1f\x14-\x03\x01g`'
p14
tp15
Rp16
sS'speed'
p17
g2
sS'cadence'
p18
g2
s.(dp0
S'blood_pressure'
p1
S'no data'
p2
sS'imu_head'
p3
(dp4
S'yaw'
p5
F16.882176327077826
sS'roll'
p6
F4.740080336600256
sS'pitch'
p7
F6.414890470534386
ssS'heart_rate'
p8
F58.73194202420067
sS'imu_torso'
p9
(dp10
g5
F17.450846798271485
sg6
F6.486491847988447
sg7
F15.212424408145019
ssS'steplength'
p11
g2
sS'timestamp'
p12
cdatetime
datetime
p13
(S'\x07\xe2\x01\x1f\x14-\x04\x01s\x18'
p14
tp15
Rp16
sS'speed'
p17
g2
sS'cadence'
p18
g2
s.(dp0
S'blood_pressure'
p1
S'no data'
p2
sS'imu_head'
p3
(dp4
S'yaw'
p5
F17.761239150454312
sS'roll'
p6
F9.45801182208314
sS'pitch'
p7
F14.58162541819483
ssS'heart_rate'
p8
F59.82064374338144
sS'imu_torso'
p9
(dp10
g5
F12.197832845946122
sg6
F0.9590994818531229
sg7
F12.41587172128143
ssS'steplength'
p11
g2
sS'timestamp'
p12
cdatetime
datetime
p13
(S'\x07\xe2\x01\x1f\x14-\x05\x01\x86\xa0'
p14
tp15
Rp16
sS'speed'
p17
g2
sS'cadence'
p18
g2
s.(dp0
S'blood_pressure'
p1
S'no data'
p2
sS'imu_head'
p3
(dp4
S'yaw'
p5
F6.7820495010995
sS'roll'
p6
F17.01627076406387
sS'pitch'
p7
F3.9287550719743636
ssS'heart_rate'
p8
F1.6546204703414502
sS'imu_torso'
p9
(dp10
g5
F10.495965342169637
sg6
F18.888988526150438
sg7
F15.34139135296239
ssS'steplength'
p11
g2
sS'timestamp'
p12
cdatetime
datetime
p13
(S'\x07\xe2\x01\x1f\x14-\x06\x01\x8ep'
p14
tp15
Rp16
sS'speed'
p17
g2
sS'cadence'
p18
g2
s.(dp0
S'blood_pressure'
p1
S'no data'
p2
sS'imu_head'
p3
(dp4
S'yaw'
p5
F10.727009690994937
sS'roll'
p6
F11.279743651589776
sS'pitch'
p7
F1.9541173312876703
ssS'heart_rate'
p8
F12.104800182601005
sS'imu_torso'
p9
(dp10
g5
F9.07904233754287
sg6
F12.640211582639454
sg7
F8.213916566714815
ssS'steplength'
p11
g2
sS'timestamp'
p12
cdatetime
datetime
p13
(S'\x07\xe2\x01\x1f\x14-\x07\x01\x96@'
p14
tp15
Rp16
sS'speed'
p17
g2
sS'cadence'
p18
g2
s.(dp0
S'blood_pressure'
p1
S'no data'
p2
sS'imu_head'
p3
(dp4
S'yaw'
p5
F1.4466911630502621
sS'roll'
p6
F16.28307934208124
sS'pitch'
p7
F14.392247951315495
ssS'heart_rate'
p8
F87.20654268170026
sS'imu_torso'
p9
(dp10
g5
F3.9125909724116203
sg6
F19.871978192359354
sg7
F2.402443385215627
ssS'steplength'
p11
g2
sS'timestamp'
p12
cdatetime
datetime
p13
(S'\x07\xe2\x01\x1f\x14-\x08\x01\xa5\xe0'
p14
tp15
Rp16
sS'speed'
p17
g2
sS'cadence'
p18
g2
s.(dp0
S'blood_pressure'
p1
S'no data'
p2
sS'imu_head'
p3
(dp4
S'yaw'
p5
F13.270733250851695
sS'roll'
p6
F2.625268225687396
sS'pitch'
p7
F10.882871696855283
ssS'heart_rate'
p8
F84.45396987190959
sS'imu_torso'
p9
(dp10
g5
F13.141942271669196
sg6
F7.561766858816831
sg7
F16.0759190981612
ssS'steplength'
p11
g2
sS'timestamp'
p12
cdatetime
datetime
p13
(S'\x07\xe2\x01\x1f\x14-\t\x01\xb5\x80'
p14
tp15
Rp16
sS'speed'
p17
g2
sS'cadence'
p18
g2
s.(dp0
S'blood_pressure'
p1
S'no data'
p2
sS'imu_head'
p3
(dp4
S'yaw'
p5
F3.599925706175864
sS'roll'
p6
F10.492063614319008
sS'pitch'
p7
F15.703003241274235
ssS'heart_rate'
p8
F17.998300705100412
sS'imu_torso'
p9
(dp10
g5
F16.596181592768254
sg6
F12.441355185019543
sg7
F18.25252535086914
ssS'steplength'
p11
g2
sS'timestamp'
p12
cdatetime
datetime
p13
(S'\x07\xe2\x01\x1f\x14-\n\x01\xbdP'
p14
tp15
Rp16
sS'speed'
p17
g2
sS'cadence'
p18
g2
s.(dp0
S'blood_pressure'
p1
S'no data'
p2
sS'imu_head'
p3
(dp4
S'yaw'
p5
F16.873924324227616
sS'roll'
p6
F4.7128296435254935
sS'pitch'
p7
F13.880294057745349
ssS'heart_rate'
p8
F23.40524564601676
sS'imu_torso'
p9
(dp10
g5
F17.933904996668616
sg6
F14.634708250938802
sg7
F8.783712410668326
ssS'steplength'
p11
g2
sS'timestamp'
p12
cdatetime
datetime
p13
(S'\x07\xe2\x01\x1f\x14-\x0b\x01\xc5 '
p14
tp15
Rp16
sS'speed'
p17
g2
sS'cadence'
p18
g2
s.(dp0
S'blood_pressure'
p1
S'no data'
p2
sS'imu_head'
p3
(dp4
S'yaw'
p5
F17.38342971468951
sS'roll'
p6
F10.9146987526236
sS'pitch'
p7
F15.787670365124365
ssS'heart_rate'
p8
F37.95003741883233
sS'imu_torso'
p9
(dp10
g5
F0.6976544527686857
sg6
F4.256407818105414
sg7
F4.359661713251715
ssS'steplength'
p11
g2
sS'timestamp'
p12
cdatetime
datetime
p13
(S'\x07\xe2\x01\x1f\x14-\x0c\x01\xd0\xd8'
p14
tp15
Rp16
sS'speed'
p17
g2
sS'cadence'
p18
g2
s.(dp0
S'blood_pressure'
p1
S'no data'
p2
sS'imu_head'
p3
(dp4
S'yaw'
p5
F7.464303746595382
sS'roll'
p6
F15.294354555319373
sS'pitch'
p7
F18.019082078320686
ssS'heart_rate'
p8
F50.71696571503962
sS'imu_torso'
p9
(dp10
g5
F10.793522929970687
sg6
F4.45298230617815
sg7
F8.267432763694945
ssS'steplength'
p11
g2
sS'timestamp'
p12
cdatetime
datetime
p13
(S'\x07\xe2\x01\x1f\x14-\r\x01\xe4`'
p14
tp15
Rp16
sS'speed'
p17
g2
sS'cadence'
p18
g2
s.(dp0
S'blood_pressure'
p1
S'no data'
p2
sS'imu_head'
p3
(dp4
S'yaw'
p5
F19.992798399220103
sS'roll'
p6
F14.255428719614553
sS'pitch'
p7
F7.32915511874249
ssS'heart_rate'
p8
F5.470178283178651
sS'imu_torso'
p9
(dp10
g5
F17.891445161642388
sg6
F3.8024939902096366
sg7
F19.46415032818591
ssS'steplength'
p11
g2
sS'timestamp'
p12
cdatetime
datetime
p13
(S'\x07\xe2\x01\x1f\x14-\x0e\x01\xf7\xe8'
p14
tp15
Rp16
sS'speed'
p17
g2
sS'cadence'
p18
g2
s.(dp0
S'blood_pressure'
p1
S'no data'
p2
sS'imu_head'
p3
(dp4
S'yaw'
p5
F19.976454689343363
sS'roll'
p6
F17.567663603349686
sS'pitch'
p7
F0.9954981527861073
ssS'heart_rate'
p8
F64.4443603936281
sS'imu_torso'
p9
(dp10
g5
F7.93289596240196
sg6
F2.1596827757933257
sg7
F12.289378653492822
ssS'steplength'
p11
g2
sS'timestamp'
p12
cdatetime
datetime
p13
(S'\x07\xe2\x01\x1f\x14-\x0f\x01\xff\xb8'
p14
tp15
Rp16
sS'speed'
p17
g2
sS'cadence'
p18
g2
s.(dp0
S'blood_pressure'
p1
S'no data'
p2
sS'imu_head'
p3
(dp4
S'yaw'
p5
F9.92924801508334
sS'roll'
p6
F9.010535863029041
sS'pitch'
p7
F10.285433388256756
ssS'heart_rate'
p8
F24.679267295694995
sS'imu_torso'
p9
(dp10
g5
F13.201483456974177
sg6
F16.850794935205684
sg7
F11.771102635784224
ssS'steplength'
p11
g2
sS'timestamp'
p12
cdatetime
datetime
p13
(S'\x07\xe2\x01\x1f\x14-\x10\x02\x0bp'
p14
tp15
Rp16
sS'speed'
p17
g2
sS'cadence'
p18
g2
s.(dp0
S'blood_pressure'
p1
S'no data'
p2
sS'imu_head'
p3
(dp4
S'yaw'
p5
F14.552661417226638
sS'roll'
p6
F14.36611970681312
sS'pitch'
p7
F0.49206384472403775
ssS'heart_rate'
p8
F23.425232125944184
sS'imu_torso'
p9
(dp10
g5
F13.674688681840315
sg6
F18.647764643052636
sg7
F7.767364960223329
ssS'steplength'
p11
g2
sS'timestamp'
p12
cdatetime
datetime
p13
(S'\x07\xe2\x01\x1f\x14-\x11\x02\x1b\x10'
p14
tp15
Rp16
sS'speed'
p17
g2
sS'cadence'
p18
g2
s.(dp0
S'blood_pressure'
p1
S'no data'
p2
sS'imu_head'
p3
(dp4
S'yaw'
p5
F13.947274382909933
sS'roll'
p6
F11.4355590445655
sS'pitch'
p7
F5.011387365468087
ssS'heart_rate'
p8
F65.67036159046367
sS'imu_torso'
p9
(dp10
g5
F5.590528908495271
sg6
F13.666992668860395
sg7
F4.038009829659417
ssS'steplength'
p11
g2
sS'timestamp'
p12
cdatetime
datetime
p13
(S'\x07\xe2\x01\x1f\x14-\x12\x02"\xe0'
p14
tp15
Rp16
sS'speed'
p17
g2
sS'cadence'
p18
g2
s.(dp0
S'blood_pressure'
p1
S'no data'
p2
sS'imu_head'
p3
(dp4
S'yaw'
p5
F13.608696134579652
sS'roll'
p6
F19.507384540549566
sS'pitch'
p7
F3.696578976206011
ssS'heart_rate'
p8
F25.727586218166888
sS'imu_torso'
p9
(dp10
g5
F12.88780869392939
sg6
F11.338394969436504
sg7
F18.163983063178247
ssS'steplength'
p11
g2
sS'timestamp'
p12
cdatetime
datetime
p13
(S'\x07\xe2\x01\x1f\x14-\x13\x02.\x98'
p14
tp15
Rp16
sS'speed'
p17
g2
sS'cadence'
p18
g2
s.(dp0
S'blood_pressure'
p1
S'no data'
p2
sS'imu_head'
p3
(dp4
S'yaw'
p5
F2.780216545595906
sS'roll'
p6
F8.930486127479828
sS'pitch'
p7
F13.35369565642056
ssS'heart_rate'
p8
F51.445878778155596
sS'imu_torso'
p9
(dp10
g5
F17.94315270647224
sg6
F1.8410990539457361
sg7
F16.653186642047096
ssS'steplength'
p11
g2
sS'timestamp'
p12
cdatetime
datetime
p13
(S'\x07\xe2\x01\x1f\x14-\x14\x02>8'
p14
tp15
Rp16
sS'speed'
p17
g2
sS'cadence'
p18
g2
s.(dp0
S'blood_pressure'
p1
S'no data'
p2
sS'imu_head'
p3
(dp4
S'yaw'
p5
F15.622020603523444
sS'roll'
p6
F13.918544465943947
sS'pitch'
p7
F7.288150645420554
ssS'heart_rate'
p8
F81.28001295148587
sS'imu_torso'
p9
(dp10
g5
F3.0403814071272106
sg6
F0.45848741326279363
sg7
F8.364466670066935
ssS'steplength'
p11
g2
sS'timestamp'
p12
cdatetime
datetime
p13
(S'\x07\xe2\x01\x1f\x14-\x15\x02F\x08'
p14
tp15
Rp16
sS'speed'
p17
g2
sS'cadence'
p18
g2
s.(dp0
S'blood_pressure'
p1
S'no data'
p2
sS'imu_head'
p3
(dp4
S'yaw'
p5
F1.4065749769639369
sS'roll'
p6
F15.288296720055111
sS'pitch'
p7
F12.026147308977464
ssS'heart_rate'
p8
F2.920774335290177
sS'imu_torso'
p9
(dp10
g5
F0.6440631967399879
sg6
F12.719688665705949
sg7
F8.992878985113714
ssS'steplength'
p11
g2
sS'timestamp'
p12
cdatetime
datetime
p13
(S'\x07\xe2\x01\x1f\x14-\x16\x02Q\xc0'
p14
tp15
Rp16
sS'speed'
p17
g2
sS'cadence'
p18
g2
s.(dp0
S'blood_pressure'
p1
S'no data'
p2
sS'imu_head'
p3
(dp4
S'yaw'
p5
F5.311499276245941
sS'roll'
p6
F17.68201154788605
sS'pitch'
p7
F2.539053924546053
ssS'heart_rate'
p8
F34.72143893689168
sS'imu_torso'
p9
(dp10
g5
F0.07878171016484137
sg6
F0.43187880794731015
sg7
F5.1610467294864515
ssS'steplength'
p11
g2
sS'timestamp'
p12
cdatetime
datetime
p13
(S'\x07\xe2\x01\x1f\x14-\x17\x02Y\x90'
p14
tp15
Rp16
sS'speed'
p17
g2
sS'cadence'
p18
g2
s.(dp0
S'blood_pressure'
p1
S'no data'
p2
sS'imu_head'
p3
(dp4
S'yaw'
p5
F13.83187171772195
sS'roll'
p6
F15.709680398047807
sS'pitch'
p7
F14.204211690710123
ssS'heart_rate'
p8
F4.500356294516994
sS'imu_torso'
p9
(dp10
g5
F9.773586284434428
sg6
F10.105320911905975
sg7
F17.398808148612275
ssS'steplength'
p11
g2
sS'timestamp'
p12
cdatetime
datetime
p13
(S'\x07\xe2\x01\x1f\x14-\x18\x02i0'
p14
tp15
Rp16
sS'speed'
p17
g2
sS'cadence'
p18
g2
s.(dp0
S'blood_pressure'
p1
S'no data'
p2
sS'imu_head'
p3
(dp4
S'yaw'
p5
F2.610912781897883
sS'roll'
p6
F5.022726389157322
sS'pitch'
p7
F6.810469239880764
ssS'heart_rate'
p8
F94.8010746628383
sS'imu_torso'
p9
(dp10
g5
F10.115458021251714
sg6
F10.059515342239724
sg7
F7.522372493551335
ssS'steplength'
p11
g2
sS'timestamp'
p12
cdatetime
datetime
p13
(S'\x07\xe2\x01\x1f\x14-\x19\x02|\xb8'
p14
tp15
Rp16
sS'speed'
p17
g2
sS'cadence'
p18
g2
s.(dp0
S'blood_pressure'
p1
S'no data'
p2
sS'imu_head'
p3
(dp4
S'yaw'
p5
F17.74230431937408
sS'roll'
p6
F12.958305358237205
sS'pitch'
p7
F19.05604875751092
ssS'heart_rate'
p8
F27.377617324808835
sS'imu_torso'
p9
(dp10
g5
F4.951045656024391
sg6
F10.139246260224478
sg7
F3.1506447221050693
ssS'steplength'
p11
g2
sS'timestamp'
p12
cdatetime
datetime
p13
(S'\x07\xe2\x01\x1f\x14-\x1a\x02\x84\x88'
p14
tp15
Rp16
sS'speed'
p17
g2
sS'cadence'
p18
g2
s.(dp0
S'blood_pressure'
p1
S'no data'
p2
sS'imu_head'
p3
(dp4
S'yaw'
p5
F7.471368004317254
sS'roll'
p6
F2.199714457561799
sS'pitch'
p7
F17.94414948444675
ssS'heart_rate'
p8
F71.50435104916856
sS'imu_torso'
p9
(dp10
g5
F4.998225245484327
sg6
F5.144054984227228
sg7
F14.598650678582397
ssS'steplength'
p11
g2
sS'timestamp'
p12
cdatetime
datetime
p13
(S'\x07\xe2\x01\x1f\x14-\x1b\x02\x90@'
p14
tp15
Rp16
sS'speed'
p17
g2
sS'cadence'
p18
g2
s.(dp0
S'blood_pressure'
p1
S'no data'
p2
sS'imu_head'
p3
(dp4
S'yaw'
p5
F7.786148424106507
sS'roll'
p6
F14.073425102074854
sS'pitch'
p7
F19.287687440562284
ssS'heart_rate'
p8
F62.41334236409737
sS'imu_torso'
p9
(dp10
g5
F19.017080545591497
sg6
F7.801251323772531
sg7
F14.181556724760583
ssS'steplength'
p11
g2
sS'timestamp'
p12
cdatetime
datetime
p13
(S'\x07\xe2\x01\x1f\x14-\x1c\x02\x9b\xf8'
p14
tp15
Rp16
sS'speed'
p17
g2
sS'cadence'
p18
g2
s.(dp0
S'blood_pressure'
p1
S'no data'
p2
sS'imu_head'
p3
(dp4
S'yaw'
p5
F1.3074212109238026
sS'roll'
p6
F1.2322304727201927
sS'pitch'
p7
F19.280903847276726
ssS'heart_rate'
p8
F87.4462091118021
sS'imu_torso'
p9
(dp10
g5
F7.306264750235818
sg6
F4.45971881022428
sg7
F8.844779393584242
ssS'steplength'
p11
g2
sS'timestamp'
p12
cdatetime
datetime
p13
(S'\x07\xe2\x01\x1f\x14-\x1d\x02\xa7\xb0'
p14
tp15
Rp16
sS'speed'
p17
g2
sS'cadence'
p18
g2
s.(dp0
S'blood_pressure'
p1
S'no data'
p2
sS'imu_head'
p3
(dp4
S'yaw'
p5
F1.9943698354563444
sS'roll'
p6
F13.779785820012894
sS'pitch'
p7
F17.53453546449374
ssS'heart_rate'
p8
F18.135620371371907
sS'imu_torso'
p9
(dp10
g5
F7.911292148223545
sg6
F16.309947498450196
sg7
F6.977479058101954
ssS'steplength'
p11
g2
sS'timestamp'
p12
cdatetime
datetime
p13
(S'\x07\xe2\x01\x1f\x14-\x1e\x02\xb7P'
p14
tp15
Rp16
sS'speed'
p17
g2
sS'cadence'
p18
g2
s.(dp0
S'blood_pressure'
p1
S'no data'
p2
sS'imu_head'
p3
(dp4
S'yaw'
p5
F3.2898475743594657
sS'roll'
p6
F9.802762558629299
sS'pitch'
p7
F14.94213479689355
ssS'heart_rate'
p8
F14.125162142778203
sS'imu_torso'
p9
(dp10
g5
F5.102093231646448
sg6
F18.549880604753206
sg7
F11.267911283812474
ssS'steplength'
p11
g2
sS'timestamp'
p12
cdatetime
datetime
p13
(S'\x07\xe2\x01\x1f\x14-\x1f\x02\xc3\x08'
p14
tp15
Rp16
sS'speed'
p17
g2
sS'cadence'
p18
g2
s.(dp0
S'blood_pressure'
p1
S'no data'
p2
sS'imu_head'
p3
(dp4
S'yaw'
p5
F9.342982613626807
sS'roll'
p6
F6.9802380480203
sS'pitch'
p7
F9.503148197585405
ssS'heart_rate'
p8
F11.915753185700284
sS'imu_torso'
p9
(dp10
g5
F6.981510880447088
sg6
F7.216859541119225
sg7
F12.60120856817306
ssS'steplength'
p11
g2
sS'timestamp'
p12
cdatetime
datetime
p13
(S'\x07\xe2\x01\x1f\x14- \x02\xd2\xa8'
p14
tp15
Rp16
sS'speed'
p17
g2
sS'cadence'
p18
g2
s.(dp0
S'blood_pressure'
p1
S'no data'
p2
sS'imu_head'
p3
(dp4
S'yaw'
p5
F19.230030905432344
sS'roll'
p6
F8.773054276671768
sS'pitch'
p7
F10.402461045331686
ssS'heart_rate'
p8
F4.464168202105768
sS'imu_torso'
p9
(dp10
g5
F8.636896578921906
sg6
F1.332611626747473
sg7
F1.1334195876042696
ssS'steplength'
p11
g2
sS'timestamp'
p12
cdatetime
datetime
p13
(S'\x07\xe2\x01\x1f\x14-!\x02\xdax'
p14
tp15
Rp16
sS'speed'
p17
g2
sS'cadence'
p18
g2
s.(dp0
S'blood_pressure'
p1
S'no data'
p2
sS'imu_head'
p3
(dp4
S'yaw'
p5
F6.009056928788414
sS'roll'
p6
F3.8437499787537632
sS'pitch'
p7
F13.217737659340807
ssS'heart_rate'
p8
F33.621133516010545
sS'imu_torso'
p9
(dp10
g5
F14.199425283653593
sg6
F4.912223002464351
sg7
F10.071107485939383
ssS'steplength'
p11
g2
sS'timestamp'
p12
cdatetime
datetime
p13
(S'\x07\xe2\x01\x1f\x14-"\x02\xe60'
p14
tp15
Rp16
sS'speed'
p17
g2
sS'cadence'
p18
g2
s.(dp0
S'blood_pressure'
p1
S'no data'
p2
sS'imu_head'
p3
(dp4
S'yaw'
p5
F0.509428209012508
sS'roll'
p6
F8.412864612854428
sS'pitch'
p7
F6.982091736082571
ssS'heart_rate'
p8
F94.57042507194552
sS'imu_torso'
p9
(dp10
g5
F0.6580409592584546
sg6
F14.38022173380616
sg7
F3.6804778823284057
ssS'steplength'
p11
g2
sS'timestamp'
p12
cdatetime
datetime
p13
(S'\x07\xe2\x01\x1f\x14-#\x02\xf5\xd0'
p14
tp15
Rp16
sS'speed'
p17
g2
sS'cadence'
p18
g2
s.(dp0
S'blood_pressure'
p1
S'no data'
p2
sS'imu_head'
p3
(dp4
S'yaw'
p5
F8.286000770035793
sS'roll'
p6
F0.8522723283028921
sS'pitch'
p7
F0.614760978357487
ssS'heart_rate'
p8
F46.135772667918786
sS'imu_torso'
p9
(dp10
g5
F3.967423290558647
sg6
F2.732154353124374
sg7
F8.85345273665271
ssS'steplength'
p11
g2
sS'timestamp'
p12
cdatetime
datetime
p13
(S'\x07\xe2\x01\x1f\x14-$\x02\xf5\xd0'
p14
tp15
Rp16
sS'speed'
p17
g2
sS'cadence'
p18
g2
s.(dp0
S'blood_pressure'
p1
S'no data'
p2
sS'imu_head'
p3
(dp4
S'yaw'
p5
F12.646516373513935
sS'roll'
p6
F1.004908071735986
sS'pitch'
p7
F0.9043681212069443
ssS'heart_rate'
p8
F33.11354225083749
sS'imu_torso'
p9
(dp10
g5
F8.438847353810976
sg6
F12.429312482988442
sg7
F17.35969820189706
ssS'steplength'
p11
g2
sS'timestamp'
p12
cdatetime
datetime
p13
(S'\x07\xe2\x01\x1f\x14-%\x03\tX'
p14
tp15
Rp16
sS'speed'
p17
g2
sS'cadence'
p18
g2
s.(dp0
S'blood_pressure'
p1
S'no data'
p2
sS'imu_head'
p3
(dp4
S'yaw'
p5
F14.552181233010671
sS'roll'
p6
F18.665850551246645
sS'pitch'
p7
F13.522809427662782
ssS'heart_rate'
p8
F8.059897852066245
sS'imu_torso'
p9
(dp10
g5
F2.2602736943749657
sg6
F5.68475004674577
sg7
F15.647133077232688
ssS'steplength'
p11
g2
sS'timestamp'
p12
cdatetime
datetime
p13
(S'\x07\xe2\x01\x1f\x14-&\x03\x11('
p14
tp15
Rp16
sS'speed'
p17
g2
sS'cadence'
p18
g2
s.(dp0
S'blood_pressure'
p1
S'no data'
p2
sS'imu_head'
p3
(dp4
S'yaw'
p5
F16.231342739490863
sS'roll'
p6
F12.759625700510943
sS'pitch'
p7
F13.226913125145144
ssS'heart_rate'
p8
F67.68305599142072
sS'imu_torso'
p9
(dp10
g5
F5.6496003161576125
sg6
F14.207202463098803
sg7
F10.299703612054014
ssS'steplength'
p11
g2
sS'timestamp'
p12
cdatetime
datetime
p13
(S"\x07\xe2\x01\x1f\x14-'\x03\x1c\xe0"
p14
tp15
Rp16
sS'speed'
p17
g2
sS'cadence'
p18
g2
s.(dp0
S'blood_pressure'
p1
S'no data'
p2
sS'imu_head'
p3
(dp4
S'yaw'
p5
F16.031614746373208
sS'roll'
p6
F19.21489513347779
sS'pitch'
p7
F8.474758619057374
ssS'heart_rate'
p8
F66.02761205746144
sS'imu_torso'
p9
(dp10
g5
F9.559916333917444
sg6
F5.077118840989778
sg7
F7.091185425087185
ssS'steplength'
p11
g2
sS'timestamp'
p12
cdatetime
datetime
p13
(S'\x07\xe2\x01\x1f\x14-(\x03(\x98'
p14
tp15
Rp16
sS'speed'
p17
g2
sS'cadence'
p18
g2
s.(dp0
S'blood_pressure'
p1
S'no data'
p2
sS'imu_head'
p3
(dp4
S'yaw'
p5
F17.65329330072236
sS'roll'
p6
F19.321421077400856
sS'pitch'
p7
F5.042004499449133
ssS'heart_rate'
p8
F28.499771154442065
sS'imu_torso'
p9
(dp10
g5
F7.387446277687295
sg6
F5.598492595249582
sg7
F10.696834569535179
ssS'steplength'
p11
g2
sS'timestamp'
p12
cdatetime
datetime
p13
(S'\x07\xe2\x01\x1f\x14-)\x034P'
p14
tp15
Rp16
sS'speed'
p17
g2
sS'cadence'
p18
g2
s.(dp0
S'blood_pressure'
p1
S'no data'
p2
sS'imu_head'
p3
(dp4
S'yaw'
p5
F18.22597763049493
sS'roll'
p6
F5.033181138519387
sS'pitch'
p7
F9.420349290414558
ssS'heart_rate'
p8
F4.661290661371109
sS'imu_torso'
p9
(dp10
g5
F15.430012789630567
sg6
F5.869386410154698
sg7
F4.119538029307586
ssS'steplength'
p11
g2
sS'timestamp'
p12
cdatetime
datetime
p13
(S'\x07\xe2\x01\x1f\x14-*\x03< '
p14
tp15
Rp16
sS'speed'
p17
g2
sS'cadence'
p18
g2
s.(dp0
S'blood_pressure'
p1
S'no data'
p2
sS'imu_head'
p3
(dp4
S'yaw'
p5
F10.400229108430686
sS'roll'
p6
F2.417461194759547
sS'pitch'
p7
F15.589906143867784
ssS'heart_rate'
p8
F9.864692708972022
sS'imu_torso'
p9
(dp10
g5
F6.707179171280602
sg6
F1.1770464524284607
sg7
F10.253297067444576
ssS'steplength'
p11
g2
sS'timestamp'
p12
cdatetime
datetime
p13
(S'\x07\xe2\x01\x1f\x14-+\x03G\xd8'
p14
tp15
Rp16
sS'speed'
p17
g2
sS'cadence'
p18
g2
s.(dp0
S'blood_pressure'
p1
S'no data'
p2
sS'imu_head'
p3
(dp4
S'yaw'
p5
F7.587205958652636
sS'roll'
p6
F13.198863463639812
sS'pitch'
p7
F4.724361772268219
ssS'heart_rate'
p8
F65.6271444437461
sS'imu_torso'
p9
(dp10
g5
F5.781711086305721
sg6
F17.89510759356667
sg7
F3.863555294955827
ssS'steplength'
p11
g2
sS'timestamp'
p12
cdatetime
datetime
p13
(S'\x07\xe2\x01\x1f\x14-,\x03Wx'
p14
tp15
Rp16
sS'speed'
p17
g2
sS'cadence'
p18
g2
s.(dp0
S'blood_pressure'
p1
S'no data'
p2
sS'imu_head'
p3
(dp4
S'yaw'
p5
F7.549650024826091
sS'roll'
p6
F2.809813264327339
sS'pitch'
p7
F8.920331589741814
ssS'heart_rate'
p8
F26.749836012621266
sS'imu_torso'
p9
(dp10
g5
F6.8476311683608015
sg6
F18.55561669436891
sg7
F5.409718172845115
ssS'steplength'
p11
g2
sS'timestamp'
p12
cdatetime
datetime
p13
(S'\x07\xe2\x01\x1f\x14--\x03_H'
p14
tp15
Rp16
sS'speed'
p17
g2
sS'cadence'
p18
g2
s.(dp0
S'blood_pressure'
p1
S'no data'
p2
sS'imu_head'
p3
(dp4
S'yaw'
p5
F18.398466071640357
sS'roll'
p6
F2.2261879766462256
sS'pitch'
p7
F6.758042174175067
ssS'heart_rate'
p8
F80.68829243679315
sS'imu_torso'
p9
(dp10
g5
F6.77025083089325
sg6
F12.503047083166894
sg7
F4.234997044511815
ssS'steplength'
p11
g2
sS'timestamp'
p12
cdatetime
datetime
p13
(S'\x07\xe2\x01\x1f\x14-.\x03n\xe8'
p14
tp15
Rp16
sS'speed'
p17
g2
sS'cadence'
p18
g2
s.(dp0
S'blood_pressure'
p1
S'no data'
p2
sS'imu_head'
p3
(dp4
S'yaw'
p5
F14.011398105766904
sS'roll'
p6
F8.667325051217906
sS'pitch'
p7
F16.365501575727674
ssS'heart_rate'
p8
F29.529541561292906
sS'imu_torso'
p9
(dp10
g5
F12.67999226192055
sg6
F13.618013471170885
sg7
F3.354193967374177
ssS'steplength'
p11
g2
sS'timestamp'
p12
cdatetime
datetime
p13
(S'\x07\xe2\x01\x1f\x14-/\x03v\xb8'
p14
tp15
Rp16
sS'speed'
p17
g2
sS'cadence'
p18
g2
s.(dp0
S'blood_pressure'
p1
S'no data'
p2
sS'imu_head'
p3
(dp4
S'yaw'
p5
F8.830259020048334
sS'roll'
p6
F7.783612270122866
sS'pitch'
p7
F3.579648735173051
ssS'heart_rate'
p8
F35.298742321868815
sS'imu_torso'
p9
(dp10
g5
F0.7184898469781476
sg6
F4.954103866419373
sg7
F14.267188080782793
ssS'steplength'
p11
g2
sS'timestamp'
p12
cdatetime
datetime
p13
(S'\x07\xe2\x01\x1f\x14-0\x03\x86X'
p14
tp15
Rp16
sS'speed'
p17
g2
sS'cadence'
p18
g2
s.(dp0
S'blood_pressure'
p1
S'no data'
p2
sS'imu_head'
p3
(dp4
S'yaw'
p5
F14.871766734109555
sS'roll'
p6
F17.049447612825574
sS'pitch'
p7
F2.620388892839336
ssS'heart_rate'
p8
F32.63036657104297
sS'imu_torso'
p9
(dp10
g5
F14.777446176745116
sg6
F1.7457983158792922
sg7
F3.8371612767684726
ssS'steplength'
p11
g2
sS'timestamp'
p12
cdatetime
datetime
p13
(S'\x07\xe2\x01\x1f\x14-1\x03\x8e('
p14
tp15
Rp16
sS'speed'
p17
g2
sS'cadence'
p18
g2
s.(dp0
S'blood_pressure'
p1
S'no data'
p2
sS'imu_head'
p3
(dp4
S'yaw'
p5
F16.64873299685827
sS'roll'
p6
F19.70618459831678
sS'pitch'
p7
F7.57996589457322
ssS'heart_rate'
p8
F29.711398386465248
sS'imu_torso'
p9
(dp10
g5
F0.9204186939666936
sg6
F0.6098254710771256
sg7
F19.07300251569827
ssS'steplength'
p11
g2
sS'timestamp'
p12
cdatetime
datetime
p13
(S'\x07\xe2\x01\x1f\x14-2\x03\x9d\xc8'
p14
tp15
Rp16
sS'speed'
p17
g2
sS'cadence'
p18
g2
s.(dp0
S'blood_pressure'
p1
S'no data'
p2
sS'imu_head'
p3
(dp4
S'yaw'
p5
F17.29236242882957
sS'roll'
p6
F11.859527152328333
sS'pitch'
p7
F12.914766936144588
ssS'heart_rate'
p8
F87.61696357397629
sS'imu_torso'
p9
(dp10
g5
F3.5012934868613943
sg6
F6.102783124384274
sg7
F18.400699299959836
ssS'steplength'
p11
g2
sS'timestamp'
p12
cdatetime
datetime
p13
(S'\x07\xe2\x01\x1f\x14-3\x03\xa9\x80'
p14
tp15
Rp16
sS'speed'
p17
g2
sS'cadence'
p18
g2
s.(dp0
S'blood_pressure'
p1
S'no data'
p2
sS'imu_head'
p3
(dp4
S'yaw'
p5
F19.53556771504279
sS'roll'
p6
F13.126449300252274
sS'pitch'
p7
F19.377701846522054
ssS'heart_rate'
p8
F55.4938677792007
sS'imu_torso'
p9
(dp10
g5
F9.687556625440145
sg6
F18.725216802717476
sg7
F4.446223894933892
ssS'steplength'
p11
g2
sS'timestamp'
p12
cdatetime
datetime
p13
(S'\x07\xe2\x01\x1f\x14-4\x03\xb58'
p14
tp15
Rp16
sS'speed'
p17
g2
sS'cadence'
p18
g2
s.(dp0
S'blood_pressure'
p1
S'no data'
p2
sS'imu_head'
p3
(dp4
S'yaw'
p5
F16.322435831040178
sS'roll'
p6
F5.059232578406574
sS'pitch'
p7
F17.53907570748637
ssS'heart_rate'
p8
F50.79770415976911
sS'imu_torso'
p9
(dp10
g5
F13.661557442320893
sg6
F16.751061744170602
sg7
F3.410534784015986
ssS'steplength'
p11
g2
sS'timestamp'
p12
cdatetime
datetime
p13
(S'\x07\xe2\x01\x1f\x14-5\x03\xb9 '
p14
tp15
Rp16
sS'speed'
p17
g2
sS'cadence'
p18
g2
s.(dp0
S'blood_pressure'
p1
S'no data'
p2
sS'imu_head'
p3
(dp4
S'yaw'
p5
F15.654416261810159
sS'roll'
p6
F19.172163992202066
sS'pitch'
p7
F2.8474397169037613
ssS'heart_rate'
p8
F31.566851013468355
sS'imu_torso'
p9
(dp10
g5
F10.347814844064771
sg6
F8.834804313885591
sg7
F16.489633082856194
ssS'steplength'
p11
g2
sS'timestamp'
p12
cdatetime
datetime
p13
(S'\x07\xe2\x01\x1f\x14-6\x03\xc8\xc0'
p14
tp15
Rp16
sS'speed'
p17
g2
sS'cadence'
p18
g2
s.(dp0
S'blood_pressure'
p1
S'no data'
p2
sS'imu_head'
p3
(dp4
S'yaw'
p5
F0.9915585066342247
sS'roll'
p6
F17.747328910112426
sS'pitch'
p7
F8.795485273315464
ssS'heart_rate'
p8
F89.45359564650623
sS'imu_torso'
p9
(dp10
g5
F2.0583700394366344
sg6
F7.186043215028459
sg7
F17.134180160953743
ssS'steplength'
p11
g2
sS'timestamp'
p12
cdatetime
datetime
p13
(S'\x07\xe2\x01\x1f\x14-7\x03\xd8`'
p14
tp15
Rp16
sS'speed'
p17
g2
sS'cadence'
p18
g2
s.(dp0
S'blood_pressure'
p1
S'no data'
p2
sS'imu_head'
p3
(dp4
S'yaw'
p5
F8.67426348441954
sS'roll'
p6
F17.91234307106378
sS'pitch'
p7
F19.15226795345976
ssS'heart_rate'
p8
F32.307900458864836
sS'imu_torso'
p9
(dp10
g5
F16.4354054398207
sg6
F14.744499663543014
sg7
F15.408295881650176
ssS'steplength'
p11
g2
sS'timestamp'
p12
cdatetime
datetime
p13
(S'\x07\xe2\x01\x1f\x14-8\x03\xe4\x18'
p14
tp15
Rp16
sS'speed'
p17
g2
sS'cadence'
p18
g2
s.(dp0
S'blood_pressure'
p1
S'no data'
p2
sS'imu_head'
p3
(dp4
S'yaw'
p5
F1.5540311656044414
sS'roll'
p6
F13.853218161658232
sS'pitch'
p7
F17.35969335633453
ssS'heart_rate'
p8
F58.08053188737349
sS'imu_torso'
p9
(dp10
g5
F16.44914520807536
sg6
F11.937082432584896
sg7
F3.647162879457486
ssS'steplength'
p11
g2
sS'timestamp'
p12
cdatetime
datetime
p13
(S'\x07\xe2\x01\x1f\x14-9\x03\xef\xd0'
p14
tp15
Rp16
sS'speed'
p17
g2
sS'cadence'
p18
g2
s.(dp0
S'blood_pressure'
p1
S'no data'
p2
sS'imu_head'
p3
(dp4
S'yaw'
p5
F9.456908255508857
sS'roll'
p6
F8.679366205906124
sS'pitch'
p7
F19.6056770025556
ssS'heart_rate'
p8
F66.64999760347958
sS'imu_torso'
p9
(dp10
g5
F13.458845041043812
sg6
F0.435053189225032
sg7
F2.41250685971085
ssS'steplength'
p11
g2
sS'timestamp'
p12
cdatetime
datetime
p13
(S'\x07\xe2\x01\x1f\x14-:\x03\xfb\x88'
p14
tp15
Rp16
sS'speed'
p17
g2
sS'cadence'
p18
g2
s.(dp0
S'blood_pressure'
p1
S'no data'
p2
sS'imu_head'
p3
(dp4
S'yaw'
p5
F6.098250153234355
sS'roll'
p6
F17.873872263621944
sS'pitch'
p7
F16.004628053119816
ssS'heart_rate'
p8
F24.64535074573022
sS'imu_torso'
p9
(dp10
g5
F19.405563864021527
sg6
F0.9754506257996476
sg7
F7.959060369963256
ssS'steplength'
p11
g2
sS'timestamp'
p12
cdatetime
datetime
p13
(S'\x07\xe2\x01\x1f\x14-;\x04\x0b('
p14
tp15
Rp16
sS'speed'
p17
g2
sS'cadence'
p18
g2
s.(dp0
S'blood_pressure'
p1
S'no data'
p2
sS'imu_head'
p3
(dp4
S'yaw'
p5
F16.4471723123303
sS'roll'
p6
F10.718925715384382
sS'pitch'
p7
F1.8469139153948078
ssS'heart_rate'
p8
F18.927116683785673
sS'imu_torso'
p9
(dp10
g5
F1.408344025241386
sg6
F7.136148377495188
sg7
F7.548329283647702
ssS'steplength'
p11
g2
sS'timestamp'
p12
cdatetime
datetime
p13
(S'\x07\xe2\x01\x1f\x14.\x00\x04\x1a\xc8'
p14
tp15
Rp16
sS'speed'
p17
g2
sS'cadence'
p18
g2
s.(dp0
S'blood_pressure'
p1
S'no data'
p2
sS'imu_head'
p3
(dp4
S'yaw'
p5
F0.5296580652784955
sS'roll'
p6
F8.898401300620197
sS'pitch'
p7
F5.763238943266047
ssS'heart_rate'
p8
F91.31145977266675
sS'imu_torso'
p9
(dp10
g5
F7.6046937556443694
sg6
F13.332334765416995
sg7
F7.655695184465785
ssS'steplength'
p11
g2
sS'timestamp'
p12
cdatetime
datetime
p13
(S'\x07\xe2\x01\x1f\x14.\x01\x04"\x98'
p14
tp15
Rp16
sS'speed'
p17
g2
sS'cadence'
p18
g2
s.(dp0
S'blood_pressure'
p1
S'no data'
p2
sS'imu_head'
p3
(dp4
S'yaw'
p5
F14.725622975780528
sS'roll'
p6
F9.545039018792412
sS'pitch'
p7
F16.155219469611055
ssS'heart_rate'
p8
F23.625376657978524
sS'imu_torso'
p9
(dp10
g5
F4.646317070253905
sg6
F12.898071513714092
sg7
F15.642090765555567
ssS'steplength'
p11
g2
sS'timestamp'
p12
cdatetime
datetime
p13
(S'\x07\xe2\x01\x1f\x14.\x02\x04.P'
p14
tp15
Rp16
sS'speed'
p17
g2
sS'cadence'
p18
g2
s.(dp0
S'blood_pressure'
p1
S'no data'
p2
sS'imu_head'
p3
(dp4
S'yaw'
p5
F3.4895028738682
sS'roll'
p6
F3.8473268326811128
sS'pitch'
p7
F16.331252041727808
ssS'heart_rate'
p8
F61.58417944561225
sS'imu_torso'
p9
(dp10
g5
F3.989094336642034
sg6
F2.4380790404689634
sg7
F3.497895025037796
ssS'steplength'
p11
g2
sS'timestamp'
p12
cdatetime
datetime
p13
(S'\x07\xe2\x01\x1f\x14.\x03\x046 '
p14
tp15
Rp16
sS'speed'
p17
g2
sS'cadence'
p18
g2
s.(dp0
S'blood_pressure'
p1
S'no data'
p2
sS'imu_head'
p3
(dp4
S'yaw'
p5
F17.554354619999454
sS'roll'
p6
F15.963128768652947
sS'pitch'
p7
F5.378475424948512
ssS'heart_rate'
p8
F29.278122160499308
sS'imu_torso'
p9
(dp10
g5
F10.699546032538736
sg6
F12.056938856673696
sg7
F18.281691045168362
ssS'steplength'
p11
g2
sS'timestamp'
p12
cdatetime
datetime
p13
(S'\x07\xe2\x01\x1f\x14.\x04\x04E\xc0'
p14
tp15
Rp16
sS'speed'
p17
g2
sS'cadence'
p18
g2
s.(dp0
S'blood_pressure'
p1
S'no data'
p2
sS'imu_head'
p3
(dp4
S'yaw'
p5
F2.195272256081462
sS'roll'
p6
F4.933691415758659
sS'pitch'
p7
F13.544882523123087
ssS'heart_rate'
p8
F36.145003303505355
sS'imu_torso'
p9
(dp10
g5
F19.31559230815106
sg6
F3.421458444059302
sg7
F11.770108077961478
ssS'steplength'
p11
g2
sS'timestamp'
p12
cdatetime
datetime
p13
(S'\x07\xe2\x01\x1f\x14.\x05\x04Qx'
p14
tp15
Rp16
sS'speed'
p17
g2
sS'cadence'
p18
g2
s.(dp0
S'blood_pressure'
p1
S'no data'
p2
sS'imu_head'
p3
(dp4
S'yaw'
p5
F7.943566321649202
sS'roll'
p6
F14.174970077571338
sS'pitch'
p7
F10.631949060122
ssS'heart_rate'
p8
F52.13232546555307
sS'imu_torso'
p9
(dp10
g5
F13.908627115714257
sg6
F7.619346443309354
sg7
F12.345248937251089
ssS'steplength'
p11
g2
sS'timestamp'
p12
cdatetime
datetime
p13
(S'\x07\xe2\x01\x1f\x14.\x06\x04a\x18'
p14
tp15
Rp16
sS'speed'
p17
g2
sS'cadence'
p18
g2
s.(dp0
S'blood_pressure'
p1
S'no data'
p2
sS'imu_head'
p3
(dp4
S'yaw'
p5
F11.005665863619372
sS'roll'
p6
F18.680558319676003
sS'pitch'
p7
F13.154143115465812
ssS'heart_rate'
p8
F38.46022501899306
sS'imu_torso'
p9
(dp10
g5
F1.8234027772635164
sg6
F10.174049879584619
sg7
F8.613700629466209
ssS'steplength'
p11
g2
sS'timestamp'
p12
cdatetime
datetime
p13
(S'\x07\xe2\x01\x1f\x14.\x07\x04l\xd0'
p14
tp15
Rp16
sS'speed'
p17
g2
sS'cadence'
p18
g2
s.(dp0
S'blood_pressure'
p1
S'no data'
p2
sS'imu_head'
p3
(dp4
S'yaw'
p5
F17.17000707196376
sS'roll'
p6
F12.218697814199281
sS'pitch'
p7
F13.31299497024063
ssS'heart_rate'
p8
F0.6411867870212973
sS'imu_torso'
p9
(dp10
g5
F3.35161469520606
sg6
F17.069848235936718
sg7
F15.350456232226016
ssS'steplength'
p11
g2
sS'timestamp'
p12
cdatetime
datetime
p13
(S'\x07\xe2\x01\x1f\x14.\x08\x04t\xa0'
p14
tp15
Rp16
sS'speed'
p17
g2
sS'cadence'
p18
g2
s.(dp0
S'blood_pressure'
p1
S'no data'
p2
sS'imu_head'
p3
(dp4
S'yaw'
p5
F15.869966215526032
sS'roll'
p6
F1.5224495837677554
sS'pitch'
p7
F2.269976689964399
ssS'heart_rate'
p8
F90.2568590222278
sS'imu_torso'
p9
(dp10
g5
F16.51629189284775
sg6
F11.827122762519192
sg7
F14.80412871486677
ssS'steplength'
p11
g2
sS'timestamp'
p12
cdatetime
datetime
p13
(S'\x07\xe2\x01\x1f\x14.\t\x04\x84@'
p14
tp15
Rp16
sS'speed'
p17
g2
sS'cadence'
p18
g2
s.(dp0
S'blood_pressure'
p1
S'no data'
p2
sS'imu_head'
p3
(dp4
S'yaw'
p5
F4.44412135398869
sS'roll'
p6
F6.971918192863804
sS'pitch'
p7
F18.474404184015416
ssS'heart_rate'
p8
F40.529074187705525
sS'imu_torso'
p9
(dp10
g5
F1.1260342994255401
sg6
F0.784006850882466
sg7
F0.9199216365325125
ssS'steplength'
p11
g2
sS'timestamp'
p12
cdatetime
datetime
p13
(S'\x07\xe2\x01\x1f\x14.\n\x04\x93\xe0'
p14
tp15
Rp16
sS'speed'
p17
g2
sS'cadence'
p18
g2
s.(dp0
S'blood_pressure'
p1
S'no data'
p2
sS'imu_head'
p3
(dp4
S'yaw'
p5
F6.083029447901458
sS'roll'
p6
F9.437768280994037
sS'pitch'
p7
F2.027422777338874
ssS'heart_rate'
p8
F97.94307816467395
sS'imu_torso'
p9
(dp10
g5
F15.976984506797614
sg6
F8.18286589697932
sg7
F11.057020705269327
ssS'steplength'
p11
g2
sS'timestamp'
p12
cdatetime
datetime
p13
(S'\x07\xe2\x01\x1f\x14.\x0b\x04\x9f\x98'
p14
tp15
Rp16
sS'speed'
p17
g2
sS'cadence'
p18
g2
s.(dp0
S'blood_pressure'
p1
S'no data'
p2
sS'imu_head'
p3
(dp4
S'yaw'
p5
F7.915353391861717
sS'roll'
p6
F19.870910197901843
sS'pitch'
p7
F8.623551440909626
ssS'heart_rate'
p8
F78.83694842300604
sS'imu_torso'
p9
(dp10
g5
F7.221499369723492
sg6
F6.3618009465891685
sg7
F15.017165581268907
ssS'steplength'
p11
g2
sS'timestamp'
p12
cdatetime
datetime
p13
(S'\x07\xe2\x01\x1f\x14.\x0c\x04\xabP'
p14
tp15
Rp16
sS'speed'
p17
g2
sS'cadence'
p18
g2
s.(dp0
S'blood_pressure'
p1
S'no data'
p2
sS'imu_head'
p3
(dp4
S'yaw'
p5
F8.38751973758006
sS'roll'
p6
F14.873616688904486
sS'pitch'
p7
F13.987160234257875
ssS'heart_rate'
p8
F12.5773617116809
sS'imu_torso'
p9
(dp10
g5
F0.20259365705163734
sg6
F16.721449729889365
sg7
F10.509989110857545
ssS'steplength'
p11
g2
sS'timestamp'
p12
cdatetime
datetime
p13
(S'\x07\xe2\x01\x1f\x14.\r\x04\xb3 '
p14
tp15
Rp16
sS'speed'
p17
g2
sS'cadence'
p18
g2
s.(dp0
S'blood_pressure'
p1
S'no data'
p2
sS'imu_head'
p3
(dp4
S'yaw'
p5
F2.2149990578143663
sS'roll'
p6
F7.614249904533795
sS'pitch'
p7
F2.8151089726516854
ssS'heart_rate'
p8
F10.872685573351893
sS'imu_torso'
p9
(dp10
g5
F7.779761879042145
sg6
F1.8756332099526762
sg7
F2.691035308044951
ssS'steplength'
p11
g2
sS'timestamp'
p12
cdatetime
datetime
p13
(S'\x07\xe2\x01\x1f\x14.\x0e\x04\xc6\xa8'
p14
tp15
Rp16
sS'speed'
p17
g2
sS'cadence'
p18
g2
s.(dp0
S'blood_pressure'
p1
S'no data'
p2
sS'imu_head'
p3
(dp4
S'yaw'
p5
F5.669575918223179
sS'roll'
p6
F3.5260856739208957
sS'pitch'
p7
F12.726193082095921
ssS'heart_rate'
p8
F88.32401923253781
sS'imu_torso'
p9
(dp10
g5
F2.4274869913145958
sg6
F0.26004073047003473
sg7
F0.12894358832659325
ssS'steplength'
p11
g2
sS'timestamp'
p12
cdatetime
datetime
p13
(S'\x07\xe2\x01\x1f\x14.\x0f\x04\xd2`'
p14
tp15
Rp16
sS'speed'
p17
g2
sS'cadence'
p18
g2
s.(dp0
S'blood_pressure'
p1
S'no data'
p2
sS'imu_head'
p3
(dp4
S'yaw'
p5
F13.752620126335895
sS'roll'
p6
F9.645040090384311
sS'pitch'
p7
F7.880756843376638
ssS'heart_rate'
p8
F3.362029200707606
sS'imu_torso'
p9
(dp10
g5
F9.437250575676032
sg6
F6.378100476456274
sg7
F12.038969948412262
ssS'steplength'
p11
g2
sS'timestamp'
p12
cdatetime
datetime
p13
(S'\x07\xe2\x01\x1f\x14.\x10\x04\xde\x18'
p14
tp15
Rp16
sS'speed'
p17
g2
sS'cadence'
p18
g2
s.(dp0
S'blood_pressure'
p1
S'no data'
p2
sS'imu_head'
p3
(dp4
S'yaw'
p5
F16.15524577234437
sS'roll'
p6
F5.133190653245105
sS'pitch'
p7
F8.181783335482466
ssS'heart_rate'
p8
F85.1070153761459
sS'imu_torso'
p9
(dp10
g5
F12.74848744969648
sg6
F5.498584792600683
sg7
F18.259422026760173
ssS'steplength'
p11
g2
sS'timestamp'
p12
cdatetime
datetime
p13
(S'\x07\xe2\x01\x1f\x14.\x11\x04\xe9\xd0'
p14
tp15
Rp16
sS'speed'
p17
g2
sS'cadence'
p18
g2
s.(dp0
S'blood_pressure'
p1
S'no data'
p2
sS'imu_head'
p3
(dp4
S'yaw'
p5
F19.065948834442587
sS'roll'
p6
F10.928040079074375
sS'pitch'
p7
F19.33785087951986
ssS'heart_rate'
p8
F28.262769840999656
sS'imu_torso'
p9
(dp10
g5
F19.75485876191306
sg6
F11.289980367428072
sg7
F11.076905885214607
ssS'steplength'
p11
g2
sS'timestamp'
p12
cdatetime
datetime
p13
(S'\x07\xe2\x01\x1f\x14.\x12\x04\xf5\x88'
p14
tp15
Rp16
sS'speed'
p17
g2
sS'cadence'
p18
g2
s.(dp0
S'blood_pressure'
p1
S'no data'
p2
sS'imu_head'
p3
(dp4
S'yaw'
p5
F17.272003131100135
sS'roll'
p6
F7.7337201983390536
sS'pitch'
p7
F4.328685278140827
ssS'heart_rate'
p8
F10.433116808596655
sS'imu_torso'
p9
(dp10
g5
F15.245190332842405
sg6
F1.6543994277533414
sg7
F9.320694205888302
ssS'steplength'
p11
g2
sS'timestamp'
p12
cdatetime
datetime
p13
(S'\x07\xe2\x01\x1f\x14.\x13\x04\xfdX'
p14
tp15
Rp16
sS'speed'
p17
g2
sS'cadence'
p18
g2
s.(dp0
S'blood_pressure'
p1
S'no data'
p2
sS'imu_head'
p3
(dp4
S'yaw'
p5
F1.1715365925373566
sS'roll'
p6
F19.25678569217409
sS'pitch'
p7
F10.157978307105832
ssS'heart_rate'
p8
F55.35930245207242
sS'imu_torso'
p9
(dp10
g5
F14.17806529064882
sg6
F10.286202783507557
sg7
F0.8363421468361976
ssS'steplength'
p11
g2
sS'timestamp'
p12
cdatetime
datetime
p13
(S'\x07\xe2\x01\x1f\x14.\x14\x05\x0c\xf8'
p14
tp15
Rp16
sS'speed'
p17
g2
sS'cadence'
p18
g2
s.(dp0
S'blood_pressure'
p1
S'no data'
p2
sS'imu_head'
p3
(dp4
S'yaw'
p5
F11.033387569042102
sS'roll'
p6
F1.45640775053421
sS'pitch'
p7
F1.9410346964984582
ssS'heart_rate'
p8
F77.47915471967902
sS'imu_torso'
p9
(dp10
g5
F0.16467644303644002
sg6
F4.006946832258036
sg7
F14.089796367300663
ssS'steplength'
p11
g2
sS'timestamp'
p12
cdatetime
datetime
p13
(S'\x07\xe2\x01\x1f\x14.\x15\x05 \x80'
p14
tp15
Rp16
sS'speed'
p17
g2
sS'cadence'
p18
g2
s.(dp0
S'blood_pressure'
p1
S'no data'
p2
sS'imu_head'
p3
(dp4
S'yaw'
p5
F17.305143819017246
sS'roll'
p6
F15.83475584327868
sS'pitch'
p7
F5.662368512443359
ssS'heart_rate'
p8
F81.30095779957891
sS'imu_torso'
p9
(dp10
g5
F1.4224703470650746
sg6
F11.672179197083699
sg7
F12.289447772090272
ssS'steplength'
p11
g2
sS'timestamp'
p12
cdatetime
datetime
p13
(S'\x07\xe2\x01\x1f\x14.\x16\x05,8'
p14
tp15
Rp16
sS'speed'
p17
g2
sS'cadence'
p18
g2
s.(dp0
S'blood_pressure'
p1
S'no data'
p2
sS'imu_head'
p3
(dp4
S'yaw'
p5
F2.9152740094558727
sS'roll'
p6
F19.589853757819505
sS'pitch'
p7
F14.699445208350513
ssS'heart_rate'
p8
F63.37011055180001
sS'imu_torso'
p9
(dp10
g5
F0.46585848883695213
sg6
F4.940750495364843
sg7
F18.08481058989148
ssS'steplength'
p11
g2
sS'timestamp'
p12
cdatetime
datetime
p13
(S'\x07\xe2\x01\x1f\x14.\x17\x05;\xd8'
p14
tp15
Rp16
sS'speed'
p17
g2
sS'cadence'
p18
g2
s.(dp0
S'blood_pressure'
p1
S'no data'
p2
sS'imu_head'
p3
(dp4
S'yaw'
p5
F6.853275417880901
sS'roll'
p6
F16.498670870560797
sS'pitch'
p7
F18.591721445553834
ssS'heart_rate'
p8
F20.74609252734726
sS'imu_torso'
p9
(dp10
g5
F10.525760443088014
sg6
F7.315221254403954
sg7
F4.72963516293742
ssS'steplength'
p11
g2
sS'timestamp'
p12
cdatetime
datetime
p13
(S'\x07\xe2\x01\x1f\x14.\x18\x05G\x90'
p14
tp15
Rp16
sS'speed'
p17
g2
sS'cadence'
p18
g2
s.(dp0
S'blood_pressure'
p1
S'no data'
p2
sS'imu_head'
p3
(dp4
S'yaw'
p5
F8.59427500736765
sS'roll'
p6
F10.491962778390656
sS'pitch'
p7
F9.450540065910397
ssS'heart_rate'
p8
F23.424412023063756
sS'imu_torso'
p9
(dp10
g5
F2.48734639109792
sg6
F9.43238853396778
sg7
F0.9882986504337232
ssS'steplength'
p11
g2
sS'timestamp'
p12
cdatetime
datetime
p13
(S'\x07\xe2\x01\x1f\x14.\x19\x05W0'
p14
tp15
Rp16
sS'speed'
p17
g2
sS'cadence'
p18
g2
s.(dp0
S'blood_pressure'
p1
S'no data'
p2
sS'imu_head'
p3
(dp4
S'yaw'
p5
F5.632473079581828
sS'roll'
p6
F15.283045796346892
sS'pitch'
p7
F6.60027542164876
ssS'heart_rate'
p8
F45.05139578573439
sS'imu_torso'
p9
(dp10
g5
F11.743865445684627
sg6
F0.4103107030685904
sg7
F9.16200410322081
ssS'steplength'
p11
g2
sS'timestamp'
p12
cdatetime
datetime
p13
(S'\x07\xe2\x01\x1f\x14.\x1a\x05b\xe8'
p14
tp15
Rp16
sS'speed'
p17
g2
sS'cadence'
p18
g2
s.(dp0
S'blood_pressure'
p1
S'no data'
p2
sS'imu_head'
p3
(dp4
S'yaw'
p5
F11.993452010008363
sS'roll'
p6
F3.4953429998318053
sS'pitch'
p7
F9.9574241598031
ssS'heart_rate'
p8
F87.83322360949539
sS'imu_torso'
p9
(dp10
g5
F3.3082692085926135
sg6
F7.031145511412893
sg7
F11.46415069241558
ssS'steplength'
p11
g2
sS'timestamp'
p12
cdatetime
datetime
p13
(S'\x07\xe2\x01\x1f\x14.\x1b\x05n\xa0'
p14
tp15
Rp16
sS'speed'
p17
g2
sS'cadence'
p18
g2
s.(dp0
S'blood_pressure'
p1
S'no data'
p2
sS'imu_head'
p3
(dp4
S'yaw'
p5
F1.485801111717393
sS'roll'
p6
F19.623235887437144
sS'pitch'
p7
F4.986846039983368
ssS'heart_rate'
p8
F71.10538274982116
sS'imu_torso'
p9
(dp10
g5
F3.7999776925847306
sg6
F3.2564706099665464
sg7
F16.769828442970656
ssS'steplength'
p11
g2
sS'timestamp'
p12
cdatetime
datetime
p13
(S'\x07\xe2\x01\x1f\x14.\x1c\x05zX'
p14
tp15
Rp16
sS'speed'
p17
g2
sS'cadence'
p18
g2
s.(dp0
S'blood_pressure'
p1
S'no data'
p2
sS'imu_head'
p3
(dp4
S'yaw'
p5
F2.2651960660531723
sS'roll'
p6
F0.8579739607839465
sS'pitch'
p7
F15.408691656145725
ssS'heart_rate'
p8
F10.022960041710649
sS'imu_torso'
p9
(dp10
g5
F11.20034431168327
sg6
F14.874080766375325
sg7
F18.79194858161768
ssS'steplength'
p11
g2
sS'timestamp'
p12
cdatetime
datetime
p13
(S'\x07\xe2\x01\x1f\x14.\x1d\x05\x86\x10'
p14
tp15
Rp16
sS'speed'
p17
g2
sS'cadence'
p18
g2
s.(dp0
S'blood_pressure'
p1
S'no data'
p2
sS'imu_head'
p3
(dp4
S'yaw'
p5
F10.57547476406091
sS'roll'
p6
F19.993452394015364
sS'pitch'
p7
F1.0019833049376259
ssS'heart_rate'
p8
F49.62498322680858
sS'imu_torso'
p9
(dp10
g5
F19.287015530799746
sg6
F8.079933999551201
sg7
F15.867977290130721
ssS'steplength'
p11
g2
sS'timestamp'
p12
cdatetime
datetime
p13
(S'\x07\xe2\x01\x1f\x14.\x1e\x05\x91\xc8'
p14
tp15
Rp16
sS'speed'
p17
g2
sS'cadence'
p18
g2
s.(dp0
S'blood_pressure'
p1
S'no data'
p2
sS'imu_head'
p3
(dp4
S'yaw'
p5
F7.254278831039029
sS'roll'
p6
F18.108380712906747
sS'pitch'
p7
F9.226792462104452
ssS'heart_rate'
p8
F80.92318182546263
sS'imu_torso'
p9
(dp10
g5
F4.947419744407995
sg6
F13.915278049380635
sg7
F2.1914640868459134
ssS'steplength'
p11
g2
sS'timestamp'
p12
cdatetime
datetime
p13
(S'\x07\xe2\x01\x1f\x14.\x1f\x05\xa1h'
p14
tp15
Rp16
sS'speed'
p17
g2
sS'cadence'
p18
g2
s.(dp0
S'blood_pressure'
p1
S'no data'
p2
sS'imu_head'
p3
(dp4
S'yaw'
p5
F17.269335443810235
sS'roll'
p6
F7.031977799678879
sS'pitch'
p7
F4.759783485820934
ssS'heart_rate'
p8
F20.420574573519833
sS'imu_torso'
p9
(dp10
g5
F1.8062159311497972
sg6
F8.955871168806713
sg7
F6.207283867420301
ssS'steplength'
p11
g2
sS'timestamp'
p12
cdatetime
datetime
p13
(S'\x07\xe2\x01\x1f\x14. \x05\xb1\x08'
p14
tp15
Rp16
sS'speed'
p17
g2
sS'cadence'
p18
g2
s.(dp0
S'blood_pressure'
p1
S'no data'
p2
sS'imu_head'
p3
(dp4
S'yaw'
p5
F15.290479077371923
sS'roll'
p6
F2.0561480094128037
sS'pitch'
p7
F10.141177843203508
ssS'heart_rate'
p8
F73.76709910271558
sS'imu_torso'
p9
(dp10
g5
F4.460822138982701
sg6
F9.657479745459934
sg7
F8.836345795642202
ssS'steplength'
p11
g2
sS'timestamp'
p12
cdatetime
datetime
p13
(S'\x07\xe2\x01\x1f\x14.!\x05\xbc\xc0'
p14
tp15
Rp16
sS'speed'
p17
g2
sS'cadence'
p18
g2
s.(dp0
S'blood_pressure'
p1
S'no data'
p2
sS'imu_head'
p3
(dp4
S'yaw'
p5
F5.816021541654033
sS'roll'
p6
F16.288001377661946
sS'pitch'
p7
F0.05129897360752089
ssS'heart_rate'
p8
F69.26444174556747
sS'imu_torso'
p9
(dp10
g5
F14.71657113303885
sg6
F2.8091484948490564
sg7
F13.196244157801152
ssS'steplength'
p11
g2
sS'timestamp'
p12
cdatetime
datetime
p13
(S'\x07\xe2\x01\x1f\x14."\x05\xc8x'
p14
tp15
Rp16
sS'speed'
p17
g2
sS'cadence'
p18
g2
s.(dp0
S'blood_pressure'
p1
S'no data'
p2
sS'imu_head'
p3
(dp4
S'yaw'
p5
F16.533982692893044
sS'roll'
p6
F6.117723254517287
sS'pitch'
p7
F11.691978043080821
ssS'heart_rate'
p8
F9.547914025059923
sS'imu_torso'
p9
(dp10
g5
F17.217816839317067
sg6
F5.808231755129429
sg7
F16.41055283162544
ssS'steplength'
p11
g2
sS'timestamp'
p12
cdatetime
datetime
p13
(S'\x07\xe2\x01\x1f\x14.#\x05\xd40'
p14
tp15
Rp16
sS'speed'
p17
g2
sS'cadence'
p18
g2
s.(dp0
S'blood_pressure'
p1
S'no data'
p2
sS'imu_head'
p3
(dp4
S'yaw'
p5
F10.38772722780875
sS'roll'
p6
F6.131888088677879
sS'pitch'
p7
F12.767920392247758
ssS'heart_rate'
p8
F9.044630495017369
sS'imu_torso'
p9
(dp10
g5
F19.390212499088275
sg6
F9.40798839465398
sg7
F9.337833805941786
ssS'steplength'
p11
g2
sS'timestamp'
p12
cdatetime
datetime
p13
(S'\x07\xe2\x01\x1f\x14.$\x05\xe3\xd0'
p14
tp15
Rp16
sS'speed'
p17
g2
sS'cadence'
p18
g2
s.(dp0
S'blood_pressure'
p1
S'no data'
p2
sS'imu_head'
p3
(dp4
S'yaw'
p5
F18.82454280410965
sS'roll'
p6
F18.457341569287774
sS'pitch'
p7
F3.8143063225989016
ssS'heart_rate'
p8
F56.406640524096986
sS'imu_torso'
p9
(dp10
g5
F4.982173589611241
sg6
F4.161649343159488
sg7
F8.948790937923015
ssS'steplength'
p11
g2
sS'timestamp'
p12
cdatetime
datetime
p13
(S'\x07\xe2\x01\x1f\x14.%\x05\xef\x88'
p14
tp15
Rp16
sS'speed'
p17
g2
sS'cadence'
p18
g2
s.(dp0
S'blood_pressure'
p1
S'no data'
p2
sS'imu_head'
p3
(dp4
S'yaw'
p5
F18.664290171325504
sS'roll'
p6
F9.016046657783898
sS'pitch'
p7
F4.457203130148779
ssS'heart_rate'
p8
F62.26451087949522
sS'imu_torso'
p9
(dp10
g5
F19.38489482814833
sg6
F13.278450795955424
sg7
F5.258109770730162
ssS'steplength'
p11
g2
sS'timestamp'
p12
cdatetime
datetime
p13
(S'\x07\xe2\x01\x1f\x14.&\x05\xf7X'
p14
tp15
Rp16
sS'speed'
p17
g2
sS'cadence'
p18
g2
s.(dp0
S'blood_pressure'
p1
S'no data'
p2
sS'imu_head'
p3
(dp4
S'yaw'
p5
F17.97145891245076
sS'roll'
p6
F15.327526793893313
sS'pitch'
p7
F10.11935242522344
ssS'heart_rate'
p8
F49.62914015689138
sS'imu_torso'
p9
(dp10
g5
F19.891076663894694
sg6
F5.75781748582447
sg7
F11.834980996703324
ssS'steplength'
p11
g2
sS'timestamp'
p12
cdatetime
datetime
p13
(S"\x07\xe2\x01\x1f\x14.'\x06\x06\xf8"
p14
tp15
Rp16
sS'speed'
p17
g2
sS'cadence'
p18
g2
s.(dp0
S'blood_pressure'
p1
S'no data'
p2
sS'imu_head'
p3
(dp4
S'yaw'
p5
F17.557808650768973
sS'roll'
p6
F6.204970362757852
sS'pitch'
p7
F2.215452190152658
ssS'heart_rate'
p8
F43.06192836339925
sS'imu_torso'
p9
(dp10
g5
F1.2995632410476499
sg6
F5.003163893405098
sg7
F2.9401874633083502
ssS'steplength'
p11
g2
sS'timestamp'
p12
cdatetime
datetime
p13
(S'\x07\xe2\x01\x1f\x14.(\x06\x16\x98'
p14
tp15
Rp16
sS'speed'
p17
g2
sS'cadence'
p18
g2
s.(dp0
S'blood_pressure'
p1
S'no data'
p2
sS'imu_head'
p3
(dp4
S'yaw'
p5
F16.87904742436262
sS'roll'
p6
F13.907910344898504
sS'pitch'
p7
F2.430381761124396
ssS'heart_rate'
p8
F11.808741709764469
sS'imu_torso'
p9
(dp10
g5
F9.378011814963772
sg6
F18.745548576821324
sg7
F4.085737471905249
ssS'steplength'
p11
g2
sS'timestamp'
p12
cdatetime
datetime
p13
(S'\x07\xe2\x01\x1f\x14.)\x06"P'
p14
tp15
Rp16
sS'speed'
p17
g2
sS'cadence'
p18
g2
s.(dp0
S'blood_pressure'
p1
S'no data'
p2
sS'imu_head'
p3
(dp4
S'yaw'
p5
F14.917277963885544
sS'roll'
p6
F1.8100939818785333
sS'pitch'
p7
F16.61635139477741
ssS'heart_rate'
p8
F8.562248445921083
sS'imu_torso'
p9
(dp10
g5
F11.934060023900233
sg6
F5.603989995875116
sg7
F6.824537252157761
ssS'steplength'
p11
g2
sS'timestamp'
p12
cdatetime
datetime
p13
(S'\x07\xe2\x01\x1f\x14.*\x06* '
p14
tp15
Rp16
sS'speed'
p17
g2
sS'cadence'
p18
g2
s.(dp0
S'blood_pressure'
p1
S'no data'
p2
sS'imu_head'
p3
(dp4
S'yaw'
p5
F1.9097678055440714
sS'roll'
p6
F4.944109496592793
sS'pitch'
p7
F12.947122017578323
ssS'heart_rate'
p8
F38.94804772118462
sS'imu_torso'
p9
(dp10
g5
F3.625089218053794
sg6
F11.180043929883288
sg7
F9.165159942976262
ssS'steplength'
p11
g2
sS'timestamp'
p12
cdatetime
datetime
p13
(S'\x07\xe2\x01\x1f\x14.+\x069\xc0'
p14
tp15
Rp16
sS'speed'
p17
g2
sS'cadence'
p18
g2
s.(dp0
S'blood_pressure'
p1
S'no data'
p2
sS'imu_head'
p3
(dp4
S'yaw'
p5
F17.35095538229573
sS'roll'
p6
F17.436037449307456
sS'pitch'
p7
F16.458557082767925
ssS'heart_rate'
p8
F92.37236634912432
sS'imu_torso'
p9
(dp10
g5
F10.502335531836511
sg6
F19.588628923023375
sg7
F10.047524395053852
ssS'steplength'
p11
g2
sS'timestamp'
p12
cdatetime
datetime
p13
(S'\x07\xe2\x01\x1f\x14.,\x06=\xa8'
p14
tp15
Rp16
sS'speed'
p17
g2
sS'cadence'
p18
g2
s.(dp0
S'blood_pressure'
p1
S'no data'
p2
sS'imu_head'
p3
(dp4
S'yaw'
p5
F5.661938832535878
sS'roll'
p6
F19.912018977952396
sS'pitch'
p7
F10.052553090988896
ssS'heart_rate'
p8
F76.2316178990244
sS'imu_torso'
p9
(dp10
g5
F5.251654087793149
sg6
F0.04839766869574991
sg7
F14.712912285630214
ssS'steplength'
p11
g2
sS'timestamp'
p12
cdatetime
datetime
p13
(S'\x07\xe2\x01\x1f\x14.-\x06MH'
p14
tp15
Rp16
sS'speed'
p17
g2
sS'cadence'
p18
g2
s.(dp0
S'blood_pressure'
p1
S'no data'
p2
sS'imu_head'
p3
(dp4
S'yaw'
p5
F16.973471673436503
sS'roll'
p6
F10.810559414759464
sS'pitch'
p7
F18.552403219901556
ssS'heart_rate'
p8
F28.788189035814092
sS'imu_torso'
p9
(dp10
g5
F16.155063544767714
sg6
F1.0908409290367937
sg7
F9.924569901660242
ssS'steplength'
p11
g2
sS'timestamp'
p12
cdatetime
datetime
p13
(S'\x07\xe2\x01\x1f\x14..\x06Y\x00'
p14
tp15
Rp16
sS'speed'
p17
g2
sS'cadence'
p18
g2
s.(dp0
S'blood_pressure'
p1
S'no data'
p2
sS'imu_head'
p3
(dp4
S'yaw'
p5
F13.3276648846234
sS'roll'
p6
F1.9376826545616166
sS'pitch'
p7
F16.85444777595749
ssS'heart_rate'
p8
F77.10705836039548
sS'imu_torso'
p9
(dp10
g5
F11.828284473348795
sg6
F10.042571409146406
sg7
F4.727984298238182
ssS'steplength'
p11
g2
sS'timestamp'
p12
cdatetime
datetime
p13
(S'\x07\xe2\x01\x1f\x14./\x06l\x88'
p14
tp15
Rp16
sS'speed'
p17
g2
sS'cadence'
p18
g2
s.(dp0
S'blood_pressure'
p1
S'no data'
p2
sS'imu_head'
p3
(dp4
S'yaw'
p5
F10.249643075289377
sS'roll'
p6
F3.3151034877693175
sS'pitch'
p7
F17.157921559141595
ssS'heart_rate'
p8
F94.83170158814322
sS'imu_torso'
p9
(dp10
g5
F4.845150394526147
sg6
F12.497872049870086
sg7
F18.708920956069214
ssS'steplength'
p11
g2
sS'timestamp'
p12
cdatetime
datetime
p13
(S'\x07\xe2\x01\x1f\x14.0\x06x@'
p14
tp15
Rp16
sS'speed'
p17
g2
sS'cadence'
p18
g2
s.(dp0
S'blood_pressure'
p1
S'no data'
p2
sS'imu_head'
p3
(dp4
S'yaw'
p5
F7.3536302101906825
sS'roll'
p6
F6.470120178366057
sS'pitch'
p7
F14.31394620039679
ssS'heart_rate'
p8
F84.0635730388487
sS'imu_torso'
p9
(dp10
g5
F15.492347615015518
sg6
F2.287457187923989
sg7
F12.755949335381583
ssS'steplength'
p11
g2
sS'timestamp'
p12
cdatetime
datetime
p13
(S'\x07\xe2\x01\x1f\x14.1\x06\x83\xf8'
p14
tp15
Rp16
sS'speed'
p17
g2
sS'cadence'
p18
g2
s.(dp0
S'blood_pressure'
p1
S'no data'
p2
sS'imu_head'
p3
(dp4
S'yaw'
p5
F19.004639927683463
sS'roll'
p6
F7.269228914071393
sS'pitch'
p7
F2.06876480702461
ssS'heart_rate'
p8
F56.089580969760355
sS'imu_torso'
p9
(dp10
g5
F17.161759270931125
sg6
F8.713370141794151
sg7
F15.180739081924127
ssS'steplength'
p11
g2
sS'timestamp'
p12
cdatetime
datetime
p13
(S'\x07\xe2\x01\x1f\x14.2\x06\x8f\xb0'
p14
tp15
Rp16
sS'speed'
p17
g2
sS'cadence'
p18
g2
s.(dp0
S'blood_pressure'
p1
S'no data'
p2
sS'imu_head'
p3
(dp4
S'yaw'
p5
F13.18781928826192
sS'roll'
p6
F9.3685237948316
sS'pitch'
p7
F15.975909127735852
ssS'heart_rate'
p8
F97.31062795375213
sS'imu_torso'
p9
(dp10
g5
F0.662627544574772
sg6
F3.62049379263764
sg7
F4.02908389472784
ssS'steplength'
p11
g2
sS'timestamp'
p12
cdatetime
datetime
p13
(S'\x07\xe2\x01\x1f\x14.3\x06\x9fP'
p14
tp15
Rp16
sS'speed'
p17
g2
sS'cadence'
p18
g2
s.(dp0
S'blood_pressure'
p1
S'no data'
p2
sS'imu_head'
p3
(dp4
S'yaw'
p5
F1.5164693948467267
sS'roll'
p6
F8.575560594027515
sS'pitch'
p7
F19.1476281767087
ssS'heart_rate'
p8
F85.73058706719958
sS'imu_torso'
p9
(dp10
g5
F17.805810918348467
sg6
F16.754906870675633
sg7
F11.07369952835953
ssS'steplength'
p11
g2
sS'timestamp'
p12
cdatetime
datetime
p13
(S'\x07\xe2\x01\x1f\x14.4\x06\xa7 '
p14
tp15
Rp16
sS'speed'
p17
g2
sS'cadence'
p18
g2
s.(dp0
S'blood_pressure'
p1
S'no data'
p2
sS'imu_head'
p3
(dp4
S'yaw'
p5
F8.291326926483524
sS'roll'
p6
F11.918694596881119
sS'pitch'
p7
F2.8968755320885986
ssS'heart_rate'
p8
F69.1359413193411
sS'imu_torso'
p9
(dp10
g5
F19.994778666720258
sg6
F10.092453837268089
sg7
F10.131158832571058
ssS'steplength'
p11
g2
sS'timestamp'
p12
cdatetime
datetime
p13
(S'\x07\xe2\x01\x1f\x14.5\x06\xb6\xc0'
p14
tp15
Rp16
sS'speed'
p17
g2
sS'cadence'
p18
g2
s.(dp0
S'blood_pressure'
p1
S'no data'
p2
sS'imu_head'
p3
(dp4
S'yaw'
p5
F13.736314425342332
sS'roll'
p6
F13.956893256141838
sS'pitch'
p7
F9.238969451902289
ssS'heart_rate'
p8
F10.585736775985543
sS'imu_torso'
p9
(dp10
g5
F2.783057580744779
sg6
F14.794933761206364
sg7
F19.018744900229
ssS'steplength'
p11
g2
sS'timestamp'
p12
cdatetime
datetime
p13
(S'\x07\xe2\x01\x1f\x14.6\x06\xbe\x90'
p14
tp15
Rp16
sS'speed'
p17
g2
sS'cadence'
p18
g2
s.(dp0
S'blood_pressure'
p1
S'no data'
p2
sS'imu_head'
p3
(dp4
S'yaw'
p5
F6.931307119120356
sS'roll'
p6
F9.065837970650513
sS'pitch'
p7
F19.3717295527003
ssS'heart_rate'
p8
F51.78843075794527
sS'imu_torso'
p9
(dp10
g5
F15.659562190582825
sg6
F7.012773909972047
sg7
F15.27586644319603
ssS'steplength'
p11
g2
sS'timestamp'
p12
cdatetime
datetime
p13
(S'\x07\xe2\x01\x1f\x14.7\x06\xd2\x18'
p14
tp15
Rp16
sS'speed'
p17
g2
sS'cadence'
p18
g2
s.(dp0
S'blood_pressure'
p1
S'no data'
p2
sS'imu_head'
p3
(dp4
S'yaw'
p5
F19.885733291639966
sS'roll'
p6
F19.484879813847922
sS'pitch'
p7
F0.13262714887539717
ssS'heart_rate'
p8
F85.23894928989381
sS'imu_torso'
p9
(dp10
g5
F11.318709211579684
sg6
F12.329268551040862
sg7
F10.272418088341958
ssS'steplength'
p11
g2
sS'timestamp'
p12
cdatetime
datetime
p13
(S'\x07\xe2\x01\x1f\x14.8\x06\xd9\xe8'
p14
tp15
Rp16
sS'speed'
p17
g2
sS'cadence'
p18
g2
s.(dp0
S'blood_pressure'
p1
S'no data'
p2
sS'imu_head'
p3
(dp4
S'yaw'
p5
F5.3465196946161715
sS'roll'
p6
F9.66294107635388
sS'pitch'
p7
F13.088412071302285
ssS'heart_rate'
p8
F30.777311087154025
sS'imu_torso'
p9
(dp10
g5
F9.773843432753944
sg6
F16.396428035424925
sg7
F8.607204080437118
ssS'steplength'
p11
g2
sS'timestamp'
p12
cdatetime
datetime
p13
(S'\x07\xe2\x01\x1f\x14.9\x06\xe5\xa0'
p14
tp15
Rp16
sS'speed'
p17
g2
sS'cadence'
p18
g2
s.(dp0
S'blood_pressure'
p1
S'no data'
p2
sS'imu_head'
p3
(dp4
S'yaw'
p5
F7.160093620139058
sS'roll'
p6
F4.483747621652297
sS'pitch'
p7
F19.158959026863286
ssS'heart_rate'
p8
F81.8001664530359
sS'imu_torso'
p9
(dp10
g5
F13.33849145997996
sg6
F1.2737977386910249
sg7
F8.14428407890609
ssS'steplength'
p11
g2
sS'timestamp'
p12
cdatetime
datetime
p13
(S'\x07\xe2\x01\x1f\x14.:\x06\xf1X'
p14
tp15
Rp16
sS'speed'
p17
g2
sS'cadence'
p18
g2
s.(dp0
S'blood_pressure'
p1
S'no data'
p2
sS'imu_head'
p3
(dp4
S'yaw'
p5
F6.606093915943287
sS'roll'
p6
F18.638918415541855
sS'pitch'
p7
F16.066782875390157
ssS'heart_rate'
p8
F15.899549641428889
sS'imu_torso'
p9
(dp10
g5
F17.439370122688054
sg6
F0.24414099361695918
sg7
F13.277586337564838
ssS'steplength'
p11
g2
sS'timestamp'
p12
cdatetime
datetime
p13
(S'\x07\xe2\x01\x1f\x14.;\x06\xfd\x10'
p14
tp15
Rp16
sS'speed'
p17
g2
sS'cadence'
p18
g2
s.(dp0
S'blood_pressure'
p1
S'no data'
p2
sS'imu_head'
p3
(dp4
S'yaw'
p5
F16.868631010088112
sS'roll'
p6
F16.48000481006662
sS'pitch'
p7
F9.226276214140498
ssS'heart_rate'
p8
F14.486460320176898
sS'imu_torso'
p9
(dp10
g5
F2.1745419451241554
sg6
F9.821277389805909
sg7
F2.2431304748579906
ssS'steplength'
p11
g2
sS'timestamp'
p12
cdatetime
datetime
p13
(S'\x07\xe2\x01\x1f\x14/\x00\x07\x04\xe0'
p14
tp15
Rp16
sS'speed'
p17
g2
sS'cadence'
p18
g2
s.(dp0
S'blood_pressure'
p1
S'no data'
p2
sS'imu_head'
p3
(dp4
S'yaw'
p5
F17.23107069843121
sS'roll'
p6
F16.39274355533793
sS'pitch'
p7
F16.79162659309246
ssS'heart_rate'
p8
F47.34233226881079
sS'imu_torso'
p9
(dp10
g5
F9.480093678380516
sg6
F0.946315410734877
sg7
F14.298096505945306
ssS'steplength'
p11
g2
sS'timestamp'
p12
cdatetime
datetime
p13
(S'\x07\xe2\x01\x1f\x14/\x01\x07\x18h'
p14
tp15
Rp16
sS'speed'
p17
g2
sS'cadence'
p18
g2
s.(dp0
S'blood_pressure'
p1
S'no data'
p2
sS'imu_head'
p3
(dp4
S'yaw'
p5
F1.7044065947967457
sS'roll'
p6
F3.599940545630549
sS'pitch'
p7
F11.048994522390526
ssS'heart_rate'
p8
F32.38578605276457
sS'imu_torso'
p9
(dp10
g5
F0.9424714620233399
sg6
F16.777333202647842
sg7
F10.471367285586483
ssS'steplength'
p11
g2
sS'timestamp'
p12
cdatetime
datetime
p13
(S'\x07\xe2\x01\x1f\x14/\x02\x07$ '
p14
tp15
Rp16
sS'speed'
p17
g2
sS'cadence'
p18
g2
s.(dp0
S'blood_pressure'
p1
S'no data'
p2
sS'imu_head'
p3
(dp4
S'yaw'
p5
F18.42421198058475
sS'roll'
p6
F13.689749990005858
sS'pitch'
p7
F7.47435861394901
ssS'heart_rate'
p8
F34.31161374987486
sS'imu_torso'
p9
(dp10
g5
F17.20925442684723
sg6
F7.278883712899029
sg7
F12.868026621521215
ssS'steplength'
p11
g2
sS'timestamp'
p12
cdatetime
datetime
p13
(S'\x07\xe2\x01\x1f\x14/\x03\x07+\xf0'
p14
tp15
Rp16
sS'speed'
p17
g2
sS'cadence'
p18
g2
s.(dp0
S'blood_pressure'
p1
S'no data'
p2
sS'imu_head'
p3
(dp4
S'yaw'
p5
F12.643433361062081
sS'roll'
p6
F0.6881329241077672
sS'pitch'
p7
F18.74236873803264
ssS'heart_rate'
p8
F53.00890225991063
sS'imu_torso'
p9
(dp10
g5
F7.472535794854149
sg6
F16.830615121086065
sg7
F10.121378237654543
ssS'steplength'
p11
g2
sS'timestamp'
p12
cdatetime
datetime
p13
(S'\x07\xe2\x01\x1f\x14/\x04\x07;\x90'
p14
tp15
Rp16
sS'speed'
p17
g2
sS'cadence'
p18
g2
s.(dp0
S'blood_pressure'
p1
S'no data'
p2
sS'imu_head'
p3
(dp4
S'yaw'
p5
F3.06500753956811
sS'roll'
p6
F14.519874218291278
sS'pitch'
p7
F0.26529015370329256
ssS'heart_rate'
p8
F10.428527287089139
sS'imu_torso'
p9
(dp10
g5
F5.61871570318508
sg6
F19.855590013148685
sg7
F14.721038046290722
ssS'steplength'
p11
g2
sS'timestamp'
p12
cdatetime
datetime
p13
(S'\x07\xe2\x01\x1f\x14/\x05\x07GH'
p14
tp15
Rp16
sS'speed'
p17
g2
sS'cadence'
p18
g2
s.(dp0
S'blood_pressure'
p1
S'no data'
p2
sS'imu_head'
p3
(dp4
S'yaw'
p5
F4.309303118087923
sS'roll'
p6
F13.884771547307551
sS'pitch'
p7
F10.855670671802677
ssS'heart_rate'
p8
F96.4447599994256
sS'imu_torso'
p9
(dp10
g5
F7.839018912882228
sg6
F12.26709420622958
sg7
F14.239270811507028
ssS'steplength'
p11
g2
sS'timestamp'
p12
cdatetime
datetime
p13
(S'\x07\xe2\x01\x1f\x14/\x06\x07S\x00'
p14
tp15
Rp16
sS'speed'
p17
g2
sS'cadence'
p18
g2
s.(dp0
S'blood_pressure'
p1
S'no data'
p2
sS'imu_head'
p3
(dp4
S'yaw'
p5
F15.67941754653794
sS'roll'
p6
F17.228759299182713
sS'pitch'
p7
F13.009744028878526
ssS'heart_rate'
p8
F36.358185044369954
sS'imu_torso'
p9
(dp10
g5
F3.8611343371862605
sg6
F8.499956807071428
sg7
F14.027170503087474
ssS'steplength'
p11
g2
sS'timestamp'
p12
cdatetime
datetime
p13
(S'\x07\xe2\x01\x1f\x14/\x07\x07Z\xd0'
p14
tp15
Rp16
sS'speed'
p17
g2
sS'cadence'
p18
g2
s.(dp0
S'blood_pressure'
p1
S'no data'
p2
sS'imu_head'
p3
(dp4
S'yaw'
p5
F7.157379493175533
sS'roll'
p6
F11.156588112058776
sS'pitch'
p7
F18.874945468712653
ssS'heart_rate'
p8
F75.65102420220748
sS'imu_torso'
p9
(dp10
g5
F1.786894451373462
sg6
F4.397094526459302
sg7
F3.5634970320739012
ssS'steplength'
p11
g2
sS'timestamp'
p12
cdatetime
datetime
p13
(S'\x07\xe2\x01\x1f\x14/\x08\x07f\x88'
p14
tp15
Rp16
sS'speed'
p17
g2
sS'cadence'
p18
g2
s.(dp0
S'blood_pressure'
p1
S'no data'
p2
sS'imu_head'
p3
(dp4
S'yaw'
p5
F2.2415785513386766
sS'roll'
p6
F15.553258481977982
sS'pitch'
p7
F13.416790492835496
ssS'heart_rate'
p8
F96.60757480963647
sS'imu_torso'
p9
(dp10
g5
F18.573907895061687
sg6
F14.089563994174561
sg7
F15.623326243713908
ssS'steplength'
p11
g2
sS'timestamp'
p12
cdatetime
datetime
p13
(S'\x07\xe2\x01\x1f\x14/\t\x07v('
p14
tp15
Rp16
sS'speed'
p17
g2
sS'cadence'
p18
g2
s.(dp0
S'blood_pressure'
p1
S'no data'
p2
sS'imu_head'
p3
(dp4
S'yaw'
p5
F15.627927405134912
sS'roll'
p6
F4.753751100128603
sS'pitch'
p7
F12.717709386742728
ssS'heart_rate'
p8
F99.07803856485236
sS'imu_torso'
p9
(dp10
g5
F0.3971962732881895
sg6
F1.494407075872981
sg7
F19.011201654396025
ssS'steplength'
p11
g2
sS'timestamp'
p12
cdatetime
datetime
p13
(S'\x07\xe2\x01\x1f\x14/\n\x07}\xf8'
p14
tp15
Rp16
sS'speed'
p17
g2
sS'cadence'
p18
g2
s.(dp0
S'blood_pressure'
p1
S'no data'
p2
sS'imu_head'
p3
(dp4
S'yaw'
p5
F5.4563720155749085
sS'roll'
p6
F10.775737344743186
sS'pitch'
p7
F9.048167527958043
ssS'heart_rate'
p8
F21.22523093841677
sS'imu_torso'
p9
(dp10
g5
F4.9077664114411785
sg6
F6.19489948379266
sg7
F6.733798739164312
ssS'steplength'
p11
g2
sS'timestamp'
p12
cdatetime
datetime
p13
(S'\x07\xe2\x01\x1f\x14/\x0b\x07\x8d\x98'
p14
tp15
Rp16
sS'speed'
p17
g2
sS'cadence'
p18
g2
s.(dp0
S'blood_pressure'
p1
S'no data'
p2
sS'imu_head'
p3
(dp4
S'yaw'
p5
F15.97049360240808
sS'roll'
p6
F1.5740906932124998
sS'pitch'
p7
F17.16530888709417
ssS'heart_rate'
p8
F94.73949512961816
sS'imu_torso'
p9
(dp10
g5
F2.6905145383906537
sg6
F7.28923557621939
sg7
F9.863166469137283
ssS'steplength'
p11
g2
sS'timestamp'
p12
cdatetime
datetime
p13
(S'\x07\xe2\x01\x1f\x14/\x0c\x07\x9d8'
p14
tp15
Rp16
sS'speed'
p17
g2
sS'cadence'
p18
g2
s.(dp0
S'blood_pressure'
p1
S'no data'
p2
sS'imu_head'
p3
(dp4
S'yaw'
p5
F8.184970242072424
sS'roll'
p6
F19.59207894184417
sS'pitch'
p7
F1.9266931000391008
ssS'heart_rate'
p8
F71.93720758407738
sS'imu_torso'
p9
(dp10
g5
F12.065113443353045
sg6
F6.19612241312685
sg7
F4.22504337039409
ssS'steplength'
p11
g2
sS'timestamp'
p12
cdatetime
datetime
p13
(S'\x07\xe2\x01\x1f\x14/\r\x07\xa8\xf0'
p14
tp15
Rp16
sS'speed'
p17
g2
sS'cadence'
p18
g2
s.(dp0
S'blood_pressure'
p1
S'no data'
p2
sS'imu_head'
p3
(dp4
S'yaw'
p5
F3.06305432484423
sS'roll'
p6
F3.293182277842366
sS'pitch'
p7
F15.018075020003582
ssS'heart_rate'
p8
F10.846630966631633
sS'imu_torso'
p9
(dp10
g5
F18.20034701906543
sg6
F10.30782530044795
sg7
F3.6358368600023727
ssS'steplength'
p11
g2
sS'timestamp'
p12
cdatetime
datetime
p13
(S'\x07\xe2\x01\x1f\x14/\x0e\x07\xb4\xa8'
p14
tp15
Rp16
sS'speed'
p17
g2
sS'cadence'
p18
g2
s.(dp0
S'blood_pressure'
p1
S'no data'
p2
sS'imu_head'
p3
(dp4
S'yaw'
p5
F6.525109832350107
sS'roll'
p6
F9.315424624590879
sS'pitch'
p7
F1.9827498662495469
ssS'heart_rate'
p8
F39.979255294533445
sS'imu_torso'
p9
(dp10
g5
F14.09444874231701
sg6
F12.010367301356105
sg7
F14.7344186645505
ssS'steplength'
p11
g2
sS'timestamp'
p12
cdatetime
datetime
p13
(S'\x07\xe2\x01\x1f\x14/\x0f\x07\xc0`'
p14
tp15
Rp16
sS'speed'
p17
g2
sS'cadence'
p18
g2
s.(dp0
S'blood_pressure'
p1
S'no data'
p2
sS'imu_head'
p3
(dp4
S'yaw'
p5
F15.509152073774883
sS'roll'
p6
F17.926453505722733
sS'pitch'
p7
F16.7502877514593
ssS'heart_rate'
p8
F8.332363360526895
sS'imu_torso'
p9
(dp10
g5
F19.45781972623267
sg6
F8.143148147743137
sg7
F14.120603630253596
ssS'steplength'
p11
g2
sS'timestamp'
p12
cdatetime
datetime
p13
(S'\x07\xe2\x01\x1f\x14/\x10\x07\xd0\x00'
p14
tp15
Rp16
sS'speed'
p17
g2
sS'cadence'
p18
g2
s.(dp0
S'blood_pressure'
p1
S'no data'
p2
sS'imu_head'
p3
(dp4
S'yaw'
p5
F1.7321538686458493
sS'roll'
p6
F11.531640254329066
sS'pitch'
p7
F2.0451545563085816
ssS'heart_rate'
p8
F55.05962129975565
sS'imu_torso'
p9
(dp10
g5
F5.000085795166056
sg6
F15.999840836949609
sg7
F9.866320527628513
ssS'steplength'
p11
g2
sS'timestamp'
p12
cdatetime
datetime
p13
(S'\x07\xe2\x01\x1f\x14/\x11\x07\xdb\xb8'
p14
tp15
Rp16
sS'speed'
p17
g2
sS'cadence'
p18
g2
s.(dp0
S'blood_pressure'
p1
S'no data'
p2
sS'imu_head'
p3
(dp4
S'yaw'
p5
F8.817534486329155
sS'roll'
p6
F1.1299930045868245
sS'pitch'
p7
F17.93279754275926
ssS'heart_rate'
p8
F43.4131229638004
sS'imu_torso'
p9
(dp10
g5
F0.7120362133070168
sg6
F16.230696858362215
sg7
F8.500615305960626
ssS'steplength'
p11
g2
sS'timestamp'
p12
cdatetime
datetime
p13
(S'\x07\xe2\x01\x1f\x14/\x12\x07\xe3\x88'
p14
tp15
Rp16
sS'speed'
p17
g2
sS'cadence'
p18
g2
s.(dp0
S'blood_pressure'
p1
S'no data'
p2
sS'imu_head'
p3
(dp4
S'yaw'
p5
F17.29944106559597
sS'roll'
p6
F11.628100040899215
sS'pitch'
p7
F3.419026971055308
ssS'heart_rate'
p8
F21.426717350359503
sS'imu_torso'
p9
(dp10
g5
F8.144149383066132
sg6
F15.88023097987882
sg7
F12.430309518251523
ssS'steplength'
p11
g2
sS'timestamp'
p12
cdatetime
datetime
p13
(S'\x07\xe2\x01\x1f\x14/\x13\x07\xef@'
p14
tp15
Rp16
sS'speed'
p17
g2
sS'cadence'
p18
g2
s.(dp0
S'blood_pressure'
p1
S'no data'
p2
sS'imu_head'
p3
(dp4
S'yaw'
p5
F9.238164779090505
sS'roll'
p6
F16.860099642413726
sS'pitch'
p7
F18.94347207907288
ssS'heart_rate'
p8
F97.41533971385785
sS'imu_torso'
p9
(dp10
g5
F7.183821524245875
sg6
F5.795686438527219
sg7
F6.510287198894636
ssS'steplength'
p11
g2
sS'timestamp'
p12
cdatetime
datetime
p13
(S'\x07\xe2\x01\x1f\x14/\x14\x07\xfe\xe0'
p14
tp15
Rp16
sS'speed'
p17
g2
sS'cadence'
p18
g2
s.(dp0
S'blood_pressure'
p1
S'no data'
p2
sS'imu_head'
p3
(dp4
S'yaw'
p5
F12.887320182737284
sS'roll'
p6
F11.593715457591795
sS'pitch'
p7
F11.373793721553355
ssS'heart_rate'
p8
F59.527189972934536
sS'imu_torso'
p9
(dp10
g5
F19.04328813220674
sg6
F8.72610774226989
sg7
F18.17985497063291
ssS'steplength'
p11
g2
sS'timestamp'
p12
cdatetime
datetime
p13
(S'\x07\xe2\x01\x1f\x14/\x15\x08\n\x98'
p14
tp15
Rp16
sS'speed'
p17
g2
sS'cadence'
p18
g2
s.(dp0
S'blood_pressure'
p1
S'no data'
p2
sS'imu_head'
p3
(dp4
S'yaw'
p5
F0.6512634410450135
sS'roll'
p6
F12.097197208087875
sS'pitch'
p7
F9.95768055710991
ssS'heart_rate'
p8
F21.783586187081504
sS'imu_torso'
p9
(dp10
g5
F8.816772170645827
sg6
F6.877102391852095
sg7
F0.40698390273397944
ssS'steplength'
p11
g2
sS'timestamp'
p12
cdatetime
datetime
p13
(S'\x07\xe2\x01\x1f\x14/\x16\x08\x1a8'
p14
tp15
Rp16
sS'speed'
p17
g2
sS'cadence'
p18
g2
s.(dp0
S'blood_pressure'
p1
S'no data'
p2
sS'imu_head'
p3
(dp4
S'yaw'
p5
F12.295579074392286
sS'roll'
p6
F11.33384626696565
sS'pitch'
p7
F9.988317208521112
ssS'heart_rate'
p8
F66.763436065403
sS'imu_torso'
p9
(dp10
g5
F9.42764926469847
sg6
F15.941024445520075
sg7
F12.64787285906493
ssS'steplength'
p11
g2
sS'timestamp'
p12
cdatetime
datetime
p13
(S'\x07\xe2\x01\x1f\x14/\x17\x08%\xf0'
p14
tp15
Rp16
sS'speed'
p17
g2
sS'cadence'
p18
g2
s.(dp0
S'blood_pressure'
p1
S'no data'
p2
sS'imu_head'
p3
(dp4
S'yaw'
p5
F3.7251524303604833
sS'roll'
p6
F12.199308851455662
sS'pitch'
p7
F15.25224032652309
ssS'heart_rate'
p8
F32.70347054203002
sS'imu_torso'
p9
(dp10
g5
F17.650429386135514
sg6
F1.7073542533389463
sg7
F7.88812081135889
ssS'steplength'
p11
g2
sS'timestamp'
p12
cdatetime
datetime
p13
(S'\x07\xe2\x01\x1f\x14/\x18\x085\x90'
p14
tp15
Rp16
sS'speed'
p17
g2
sS'cadence'
p18
g2
s.(dp0
S'blood_pressure'
p1
S'no data'
p2
sS'imu_head'
p3
(dp4
S'yaw'
p5
F17.768628771052754
sS'roll'
p6
F18.425275714039152
sS'pitch'
p7
F14.04713162510664
ssS'heart_rate'
p8
F42.51629969430034
sS'imu_torso'
p9
(dp10
g5
F19.758853751440938
sg6
F5.777275895929557
sg7
F2.216974244290406
ssS'steplength'
p11
g2
sS'timestamp'
p12
cdatetime
datetime
p13
(S'\x07\xe2\x01\x1f\x14/\x19\x08=`'
p14
tp15
Rp16
sS'speed'
p17
g2
sS'cadence'
p18
g2
s.(dp0
S'blood_pressure'
p1
S'no data'
p2
sS'imu_head'
p3
(dp4
S'yaw'
p5
F18.25816850789985
sS'roll'
p6
F0.08474095087064537
sS'pitch'
p7
F13.191599775598139
ssS'heart_rate'
p8
F56.5377306780234
sS'imu_torso'
p9
(dp10
g5
F7.24372276632389
sg6
F15.460891009199145
sg7
F0.9507831375153586
ssS'steplength'
p11
g2
sS'timestamp'
p12
cdatetime
datetime
p13
(S'\x07\xe2\x01\x1f\x14/\x1a\x08P\xe8'
p14
tp15
Rp16
sS'speed'
p17
g2
sS'cadence'
p18
g2
s.(dp0
S'blood_pressure'
p1
S'no data'
p2
sS'imu_head'
p3
(dp4
S'yaw'
p5
F3.3083742644631964
sS'roll'
p6
F16.400567776203168
sS'pitch'
p7
F17.667893711774905
ssS'heart_rate'
p8
F90.0506178724135
sS'imu_torso'
p9
(dp10
g5
F17.32803626273225
sg6
F19.24216211305301
sg7
F7.818879165344517
ssS'steplength'
p11
g2
sS'timestamp'
p12
cdatetime
datetime
p13
(S'\x07\xe2\x01\x1f\x14/\x1b\x08P\xe8'
p14
tp15
Rp16
sS'speed'
p17
g2
sS'cadence'
p18
g2
s.(dp0
S'blood_pressure'
p1
S'no data'
p2
sS'imu_head'
p3
(dp4
S'yaw'
p5
F16.5542080644588
sS'roll'
p6
F0.16359124814484316
sS'pitch'
p7
F4.623434764428318
ssS'heart_rate'
p8
F83.03739285036275
sS'imu_torso'
p9
(dp10
g5
F7.117436012453007
sg6
F16.171982130206175
sg7
F10.669627635138996
ssS'steplength'
p11
g2
sS'timestamp'
p12
cdatetime
datetime
p13
(S'\x07\xe2\x01\x1f\x14/\x1c\x08`\x88'
p14
tp15
Rp16
sS'speed'
p17
g2
sS'cadence'
p18
g2
s.(dp0
S'blood_pressure'
p1
S'no data'
p2
sS'imu_head'
p3
(dp4
S'yaw'
p5
F13.901485013680484
sS'roll'
p6
F10.939239043424527
sS'pitch'
p7
F4.744720559125273
ssS'heart_rate'
p8
F88.41018138905851
sS'imu_torso'
p9
(dp10
g5
F15.806466281405307
sg6
F10.911960889325565
sg7
F11.275182337308042
ssS'steplength'
p11
g2
sS'timestamp'
p12
cdatetime
datetime
p13
(S'\x07\xe2\x01\x1f\x14/\x1d\x08l@'
p14
tp15
Rp16
sS'speed'
p17
g2
sS'cadence'
p18
g2
s.(dp0
S'blood_pressure'
p1
S'no data'
p2
sS'imu_head'
p3
(dp4
S'yaw'
p5
F5.880931242555178
sS'roll'
p6
F3.8360258105384615
sS'pitch'
p7
F4.659282861974643
ssS'heart_rate'
p8
F61.18573221210901
sS'imu_torso'
p9
(dp10
g5
F15.219685897557845
sg6
F10.394651512603826
sg7
F4.5851792523206525
ssS'steplength'
p11
g2
sS'timestamp'
p12
cdatetime
datetime
p13
(S'\x07\xe2\x01\x1f\x14/\x1e\x08{\xe0'
p14
tp15
Rp16
sS'speed'
p17
g2
sS'cadence'
p18
g2
s.(dp0
S'blood_pressure'
p1
S'no data'
p2
sS'imu_head'
p3
(dp4
S'yaw'
p5
F6.694660131886132
sS'roll'
p6
F8.354320540869857
sS'pitch'
p7
F6.930820082981477
ssS'heart_rate'
p8
F64.6267705550157
sS'imu_torso'
p9
(dp10
g5
F16.512506559305304
sg6
F9.377725831407437
sg7
F13.817570607837037
ssS'steplength'
p11
g2
sS'timestamp'
p12
cdatetime
datetime
p13
(S'\x07\xe2\x01\x1f\x14/\x1f\x08\x87\x98'
p14
tp15
Rp16
sS'speed'
p17
g2
sS'cadence'
p18
g2
s.(dp0
S'blood_pressure'
p1
S'no data'
p2
sS'imu_head'
p3
(dp4
S'yaw'
p5
F16.549903274045363
sS'roll'
p6
F0.6194792420738637
sS'pitch'
p7
F7.28373602297432
ssS'heart_rate'
p8
F49.79828620654896
sS'imu_torso'
p9
(dp10
g5
F14.658885183550762
sg6
F14.71729758619637
sg7
F0.9342974799856152
ssS'steplength'
p11
g2
sS'timestamp'
p12
cdatetime
datetime
p13
(S'\x07\xe2\x01\x1f\x14/ \x08\x93P'
p14
tp15
Rp16
sS'speed'
p17
g2
sS'cadence'
p18
g2
s.(dp0
S'blood_pressure'
p1
S'no data'
p2
sS'imu_head'
p3
(dp4
S'yaw'
p5
F16.276013098385704
sS'roll'
p6
F4.016556513616667
sS'pitch'
p7
F2.232285940574421
ssS'heart_rate'
p8
F15.910313033254797
sS'imu_torso'
p9
(dp10
g5
F19.377007608978957
sg6
F5.096162631447623
sg7
F19.42385345658723
ssS'steplength'
p11
g2
sS'timestamp'
p12
cdatetime
datetime
p13
(S'\x07\xe2\x01\x1f\x14/!\x08\x9b '
p14
tp15
Rp16
sS'speed'
p17
g2
sS'cadence'
p18
g2
s.(dp0
S'blood_pressure'
p1
S'no data'
p2
sS'imu_head'
p3
(dp4
S'yaw'
p5
F4.559600643046656
sS'roll'
p6
F8.401088265838524
sS'pitch'
p7
F4.67784759112414
ssS'heart_rate'
p8
F91.98662653155806
sS'imu_torso'
p9
(dp10
g5
F9.712813086024104
sg6
F15.005477835318064
sg7
F2.9560689882009883
ssS'steplength'
p11
g2
sS'timestamp'
p12
cdatetime
datetime
p13
(S'\x07\xe2\x01\x1f\x14/"\x08\xae\xa8'
p14
tp15
Rp16
sS'speed'
p17
g2
sS'cadence'
p18
g2
s.(dp0
S'blood_pressure'
p1
S'no data'
p2
sS'imu_head'
p3
(dp4
S'yaw'
p5
F15.454129212878364
sS'roll'
p6
F0.27603969624983016
sS'pitch'
p7
F4.35079274486593
ssS'heart_rate'
p8
F74.74853329145057
sS'imu_torso'
p9
(dp10
g5
F15.36745088172448
sg6
F13.12890023734119
sg7
F2.473238164289686
ssS'steplength'
p11
g2
sS'timestamp'
p12
cdatetime
datetime
p13
(S'\x07\xe2\x01\x1f\x14/#\x08\xba`'
p14
tp15
Rp16
sS'speed'
p17
g2
sS'cadence'
p18
g2
s.(dp0
S'blood_pressure'
p1
S'no data'
p2
sS'imu_head'
p3
(dp4
S'yaw'
p5
F18.893165713276627
sS'roll'
p6
F5.2586494015174186
sS'pitch'
p7
F1.5277009412714349
ssS'heart_rate'
p8
F5.153124404435195
sS'imu_torso'
p9
(dp10
g5
F1.7955965461408074
sg6
F5.321233080760404
sg7
F5.244994158531919
ssS'steplength'
p11
g2
sS'timestamp'
p12
cdatetime
datetime
p13
(S'\x07\xe2\x01\x1f\x14/$\x08\xc6\x18'
p14
tp15
Rp16
sS'speed'
p17
g2
sS'cadence'
p18
g2
s.(dp0
S'blood_pressure'
p1
S'no data'
p2
sS'imu_head'
p3
(dp4
S'yaw'
p5
F3.287188202921516
sS'roll'
p6
F15.756944188060872
sS'pitch'
p7
F19.553251999508053
ssS'heart_rate'
p8
F10.562932040436046
sS'imu_torso'
p9
(dp10
g5
F3.561112965136737
sg6
F7.563437325620104
sg7
F8.769935483919188
ssS'steplength'
p11
g2
sS'timestamp'
p12
cdatetime
datetime
p13
(S'\x07\xe2\x01\x1f\x14/%\x08\xd1\xd0'
p14
tp15
Rp16
sS'speed'
p17
g2
sS'cadence'
p18
g2
s.(dp0
S'blood_pressure'
p1
S'no data'
p2
sS'imu_head'
p3
(dp4
S'yaw'
p5
F9.863410126704181
sS'roll'
p6
F15.874625027886967
sS'pitch'
p7
F6.7647172630651315
ssS'heart_rate'
p8
F57.64350301504274
sS'imu_torso'
p9
(dp10
g5
F18.639036951768805
sg6
F17.249005802759118
sg7
F19.088683772308734
ssS'steplength'
p11
g2
sS'timestamp'
p12
cdatetime
datetime
p13
(S'\x07\xe2\x01\x1f\x14/&\x08\xe5X'
p14
tp15
Rp16
sS'speed'
p17
g2
sS'cadence'
p18
g2
s.(dp0
S'blood_pressure'
p1
S'no data'
p2
sS'imu_head'
p3
(dp4
S'yaw'
p5
F16.314843611109858
sS'roll'
p6
F8.681281386227724
sS'pitch'
p7
F9.508598102351929
ssS'heart_rate'
p8
F27.888435002359667
sS'imu_torso'
p9
(dp10
g5
F5.905870088787637
sg6
F10.133648463105656
sg7
F11.615830607696447
ssS'steplength'
p11
g2
sS'timestamp'
p12
cdatetime
datetime
p13
(S"\x07\xe2\x01\x1f\x14/'\x08\xed("
p14
tp15
Rp16
sS'speed'
p17
g2
sS'cadence'
p18
g2
s.(dp0
S'blood_pressure'
p1
S'no data'
p2
sS'imu_head'
p3
(dp4
S'yaw'
p5
F18.22000511720722
sS'roll'
p6
F0.8039792153743952
sS'pitch'
p7
F10.386369806663843
ssS'heart_rate'
p8
F47.62582781141616
sS'imu_torso'
p9
(dp10
g5
F6.418092752103835
sg6
F7.980712084380808
sg7
F9.235138238122786
ssS'steplength'
p11
g2
sS'timestamp'
p12
cdatetime
datetime
p13
(S'\x07\xe2\x01\x1f\x14/(\x08\xfc\xc8'
p14
tp15
Rp16
sS'speed'
p17
g2
sS'cadence'
p18
g2
s.(dp0
S'blood_pressure'
p1
S'no data'
p2
sS'imu_head'
p3
(dp4
S'yaw'
p5
F5.736107903517091
sS'roll'
p6
F14.330987411207289
sS'pitch'
p7
F19.29889934267055
ssS'heart_rate'
p8
F50.28044143242232
sS'imu_torso'
p9
(dp10
g5
F10.353930240857409
sg6
F18.7223656568029
sg7
F10.33467358294267
ssS'steplength'
p11
g2
sS'timestamp'
p12
cdatetime
datetime
p13
(S'\x07\xe2\x01\x1f\x14/)\t\x04\x98'
p14
tp15
Rp16
sS'speed'
p17
g2
sS'cadence'
p18
g2
s.(dp0
S'blood_pressure'
p1
S'no data'
p2
sS'imu_head'
p3
(dp4
S'yaw'
p5
F2.717954229205637
sS'roll'
p6
F8.68097603402331
sS'pitch'
p7
F6.350801424335762
ssS'heart_rate'
p8
F86.67233194293097
sS'imu_torso'
p9
(dp10
g5
F0.02460453907561444
sg6
F11.738444767317
sg7
F19.367425806188113
ssS'steplength'
p11
g2
sS'timestamp'
p12
cdatetime
datetime
p13
(S'\x07\xe2\x01\x1f\x14/*\t\x148'
p14
tp15
Rp16
sS'speed'
p17
g2
sS'cadence'
p18
g2
s.(dp0
S'blood_pressure'
p1
S'no data'
p2
sS'imu_head'
p3
(dp4
S'yaw'
p5
F19.253225741665865
sS'roll'
p6
F19.380895372097047
sS'pitch'
p7
F9.315409725779931
ssS'heart_rate'
p8
F11.009871047411679
sS'imu_torso'
p9
(dp10
g5
F1.9031834503497835
sg6
F19.668491470612683
sg7
F4.335987180361052
ssS'steplength'
p11
g2
sS'timestamp'
p12
cdatetime
datetime
p13
(S'\x07\xe2\x01\x1f\x14/+\t\x1c\x08'
p14
tp15
Rp16
sS'speed'
p17
g2
sS'cadence'
p18
g2
s.(dp0
S'blood_pressure'
p1
S'no data'
p2
sS'imu_head'
p3
(dp4
S'yaw'
p5
F7.053695074827417
sS'roll'
p6
F14.37590986445548
sS'pitch'
p7
F12.648165750637798
ssS'heart_rate'
p8
F46.879597027295894
sS'imu_torso'
p9
(dp10
g5
F13.954720745144925
sg6
F13.878662975846625
sg7
F12.216709396641425
ssS'steplength'
p11
g2
sS'timestamp'
p12
cdatetime
datetime
p13
(S"\x07\xe2\x01\x1f\x14/,\t'\xc0"
p14
tp15
Rp16
sS'speed'
p17
g2
sS'cadence'
p18
g2
s.(dp0
S'blood_pressure'
p1
S'no data'
p2
sS'imu_head'
p3
(dp4
S'yaw'
p5
F15.396815891599715
sS'roll'
p6
F10.78817915951281
sS'pitch'
p7
F14.76555490653682
ssS'heart_rate'
p8
F26.694906544561505
sS'imu_torso'
p9
(dp10
g5
F12.735314271467557
sg6
F19.15669905194556
sg7
F11.075296021124208
ssS'steplength'
p11
g2
sS'timestamp'
p12
cdatetime
datetime
p13
(S'\x07\xe2\x01\x1f\x14/-\t3x'
p14
tp15
Rp16
sS'speed'
p17
g2
sS'cadence'
p18
g2
s.(dp0
S'blood_pressure'
p1
S'no data'
p2
sS'imu_head'
p3
(dp4
S'yaw'
p5
F11.241084428457246
sS'roll'
p6
F5.571957836152793
sS'pitch'
p7
F13.278126629494464
ssS'heart_rate'
p8
F50.332296543305574
sS'imu_torso'
p9
(dp10
g5
F6.941702197319303
sg6
F16.69849308996066
sg7
F3.0384902558106175
ssS'steplength'
p11
g2
sS'timestamp'
p12
cdatetime
datetime
p13
(S'\x07\xe2\x01\x1f\x14/.\tC\x18'
p14
tp15
Rp16
sS'speed'
p17
g2
sS'cadence'
p18
g2
s.(dp0
S'blood_pressure'
p1
S'no data'
p2
sS'imu_head'
p3
(dp4
S'yaw'
p5
F14.272404958508936
sS'roll'
p6
F8.654423661862475
sS'pitch'
p7
F7.320949624236395
ssS'heart_rate'
p8
F92.66725089557326
sS'imu_torso'
p9
(dp10
g5
F0.3888742769457476
sg6
F10.456514542733228
sg7
F10.224483448865291
ssS'steplength'
p11
g2
sS'timestamp'
p12
cdatetime
datetime
p13
(S'\x07\xe2\x01\x1f\x14//\tJ\xe8'
p14
tp15
Rp16
sS'speed'
p17
g2
sS'cadence'
p18
g2
s.(dp0
S'blood_pressure'
p1
S'no data'
p2
sS'imu_head'
p3
(dp4
S'yaw'
p5
F6.079997975771785
sS'roll'
p6
F3.12006867615489
sS'pitch'
p7
F15.09493335388849
ssS'heart_rate'
p8
F10.430636549756844
sS'imu_torso'
p9
(dp10
g5
F16.740777889004328
sg6
F14.426108147776144
sg7
F8.497366085405346
ssS'steplength'
p11
g2
sS'timestamp'
p12
cdatetime
datetime
p13
(S'\x07\xe2\x01\x1f\x14/0\tZ\x88'
p14
tp15
Rp16
sS'speed'
p17
g2
sS'cadence'
p18
g2
s.(dp0
S'blood_pressure'
p1
S'no data'
p2
sS'imu_head'
p3
(dp4
S'yaw'
p5
F17.535870216383007
sS'roll'
p6
F5.095146589940711
sS'pitch'
p7
F8.221462922011764
ssS'heart_rate'
p8
F85.54914409200659
sS'imu_torso'
p9
(dp10
g5
F5.045247253525364
sg6
F9.632768395510736
sg7
F4.955822760763269
ssS'steplength'
p11
g2
sS'timestamp'
p12
cdatetime
datetime
p13
(S'\x07\xe2\x01\x1f\x14/1\tf@'
p14
tp15
Rp16
sS'speed'
p17
g2
sS'cadence'
p18
g2
s.(dp0
S'blood_pressure'
p1
S'no data'
p2
sS'imu_head'
p3
(dp4
S'yaw'
p5
F11.335227516887286
sS'roll'
p6
F2.26836981020462
sS'pitch'
p7
F15.971458380427219
ssS'heart_rate'
p8
F72.25507114337458
sS'imu_torso'
p9
(dp10
g5
F12.704400322177229
sg6
F15.379594216509682
sg7
F3.813818884270801
ssS'steplength'
p11
g2
sS'timestamp'
p12
cdatetime
datetime
p13
(S'\x07\xe2\x01\x1f\x14/2\tu\xe0'
p14
tp15
Rp16
sS'speed'
p17
g2
sS'cadence'
p18
g2
s.(dp0
S'blood_pressure'
p1
S'no data'
p2
sS'imu_head'
p3
(dp4
S'yaw'
p5
F4.341370573393268
sS'roll'
p6
F19.57468198690455
sS'pitch'
p7
F4.875337862690181
ssS'heart_rate'
p8
F83.70861145633268
sS'imu_torso'
p9
(dp10
g5
F14.553485711599803
sg6
F11.155906250511872
sg7
F19.303853259106067
ssS'steplength'
p11
g2
sS'timestamp'
p12
cdatetime
datetime
p13
(S'\x07\xe2\x01\x1f\x14/3\t\x81\x98'
p14
tp15
Rp16
sS'speed'
p17
g2
sS'cadence'
p18
g2
s.(dp0
S'blood_pressure'
p1
S'no data'
p2
sS'imu_head'
p3
(dp4
S'yaw'
p5
F10.999628991741563
sS'roll'
p6
F0.7514861164217668
sS'pitch'
p7
F6.3005585093428955
ssS'heart_rate'
p8
F43.277566213921595
sS'imu_torso'
p9
(dp10
g5
F14.04815956783182
sg6
F18.74506488548288
sg7
F13.84275172722993
ssS'steplength'
p11
g2
sS'timestamp'
p12
cdatetime
datetime
p13
(S'\x07\xe2\x01\x1f\x14/4\t\x8dP'
p14
tp15
Rp16
sS'speed'
p17
g2
sS'cadence'
p18
g2
s.(dp0
S'blood_pressure'
p1
S'no data'
p2
sS'imu_head'
p3
(dp4
S'yaw'
p5
F7.762988501986294
sS'roll'
p6
F18.67502841894454
sS'pitch'
p7
F7.962819631885556
ssS'heart_rate'
p8
F71.75340414584198
sS'imu_torso'
p9
(dp10
g5
F12.810450809291394
sg6
F4.318500333402664
sg7
F19.49774685174478
ssS'steplength'
p11
g2
sS'timestamp'
p12
cdatetime
datetime
p13
(S'\x07\xe2\x01\x1f\x14/5\t\x9c\xf0'
p14
tp15
Rp16
sS'speed'
p17
g2
sS'cadence'
p18
g2
s.(dp0
S'blood_pressure'
p1
S'no data'
p2
sS'imu_head'
p3
(dp4
S'yaw'
p5
F2.4042323130387677
sS'roll'
p6
F19.762874478242768
sS'pitch'
p7
F2.199708862018146
ssS'heart_rate'
p8
F94.02139841304825
sS'imu_torso'
p9
(dp10
g5
F10.7409066075282
sg6
F17.054468288371382
sg7
F9.113633418836596
ssS'steplength'
p11
g2
sS'timestamp'
p12
cdatetime
datetime
p13
(S'\x07\xe2\x01\x1f\x14/6\t\xa8\xa8'
p14
tp15
Rp16
sS'speed'
p17
g2
sS'cadence'
p18
g2
s.(dp0
S'blood_pressure'
p1
S'no data'
p2
sS'imu_head'
p3
(dp4
S'yaw'
p5
F14.463785234384908
sS'roll'
p6
F15.076862898870914
sS'pitch'
p7
F11.957150533224727
ssS'heart_rate'
p8
F40.1419553685634
sS'imu_torso'
p9
(dp10
g5
F0.8336653917312264
sg6
F9.951834019597129
sg7
F2.3558548977907745
ssS'steplength'
p11
g2
sS'timestamp'
p12
cdatetime
datetime
p13
(S'\x07\xe2\x01\x1f\x14/7\t\xb4`'
p14
tp15
Rp16
sS'speed'
p17
g2
sS'cadence'
p18
g2
s.(dp0
S'blood_pressure'
p1
S'no data'
p2
sS'imu_head'
p3
(dp4
S'yaw'
p5
F19.957355640187206
sS'roll'
p6
F3.6794943418736237
sS'pitch'
p7
F6.743007199232491
ssS'heart_rate'
p8
F27.69334722228742
sS'imu_torso'
p9
(dp10
g5
F5.1977311355481115
sg6
F2.6243351224727163
sg7
F9.639766762546698
ssS'steplength'
p11
g2
sS'timestamp'
p12
cdatetime
datetime
p13
(S'\x07\xe2\x01\x1f\x14/8\t\xc0\x18'
p14
tp15
Rp16
sS'speed'
p17
g2
sS'cadence'
p18
g2
s.(dp0
S'blood_pressure'
p1
S'no data'
p2
sS'imu_head'
p3
(dp4
S'yaw'
p5
F0.21001544187789545
sS'roll'
p6
F1.2211372101573792
sS'pitch'
p7
F8.6183184060597
ssS'heart_rate'
p8
F15.183099355392127
sS'imu_torso'
p9
(dp10
g5
F16.24939706411076
sg6
F12.277685626239862
sg7
F16.48655474188211
ssS'steplength'
p11
g2
sS'timestamp'
p12
cdatetime
datetime
p13
(S'\x07\xe2\x01\x1f\x14/9\t\xc7\xe8'
p14
tp15
Rp16
sS'speed'
p17
g2
sS'cadence'
p18
g2
s.(dp0
S'blood_pressure'
p1
S'no data'
p2
sS'imu_head'
p3
(dp4
S'yaw'
p5
F17.483844102768785
sS'roll'
p6
F3.527191711554223
sS'pitch'
p7
F10.434073912788014
ssS'heart_rate'
p8
F65.40595841645353
sS'imu_torso'
p9
(dp10
g5
F14.901464063869048
sg6
F3.6804002895658594
sg7
F16.32552093582999
ssS'steplength'
p11
g2
sS'timestamp'
p12
cdatetime
datetime
p13
(S'\x07\xe2\x01\x1f\x14/:\t\xcf\xb8'
p14
tp15
Rp16
sS'speed'
p17
g2
sS'cadence'
p18
g2
s.(dp0
S'blood_pressure'
p1
S'no data'
p2
sS'imu_head'
p3
(dp4
S'yaw'
p5
F2.4542225550786756
sS'roll'
p6
F2.278749280293304
sS'pitch'
p7
F15.381227892006383
ssS'heart_rate'
p8
F44.762771141249935
sS'imu_torso'
p9
(dp10
g5
F16.276855440145855
sg6
F17.918592812279357
sg7
F9.644244587530972
ssS'steplength'
p11
g2
sS'timestamp'
p12
cdatetime
datetime
p13
(S'\x07\xe2\x01\x1f\x14/;\t\xdbp'
p14
tp15
Rp16
sS'speed'
p17
g2
sS'cadence'
p18
g2
s.(dp0
S'blood_pressure'
p1
S'no data'
p2
sS'imu_head'
p3
(dp4
S'yaw'
p5
F15.664594731579868
sS'roll'
p6
F3.2895637221313967
sS'pitch'
p7
F9.487157599058985
ssS'heart_rate'
p8
F28.383319438505882
sS'imu_torso'
p9
(dp10
g5
F9.611753341927871
sg6
F19.978276246951673
sg7
F1.7567295784366421
ssS'steplength'
p11
g2
sS'timestamp'
p12
cdatetime
datetime
p13
(S'\x07\xe2\x01\x1f\x140\x00\t\xe7('
p14
tp15
Rp16
sS'speed'
p17
g2
sS'cadence'
p18
g2
s.(dp0
S'blood_pressure'
p1
S'no data'
p2
sS'imu_head'
p3
(dp4
S'yaw'
p5
F15.517781036841484
sS'roll'
p6
F16.352898794338934
sS'pitch'
p7
F17.165144210984057
ssS'heart_rate'
p8
F23.59014613657413
sS'imu_torso'
p9
(dp10
g5
F14.43391290896309
sg6
F18.530446341016706
sg7
F5.993454646340044
ssS'steplength'
p11
g2
sS'timestamp'
p12
cdatetime
datetime
p13
(S'\x07\xe2\x01\x1f\x140\x01\t\xf2\xe0'
p14
tp15
Rp16
sS'speed'
p17
g2
sS'cadence'
p18
g2
s.(dp0
S'blood_pressure'
p1
S'no data'
p2
sS'imu_head'
p3
(dp4
S'yaw'
p5
F6.421141802882415
sS'roll'
p6
F11.265422997709603
sS'pitch'
p7
F1.3357696184650258
ssS'heart_rate'
p8
F84.26845686627684
sS'imu_torso'
p9
(dp10
g5
F1.2825580360237665
sg6
F13.425111055224544
sg7
F14.18221565145841
ssS'steplength'
p11
g2
sS'timestamp'
p12
cdatetime
datetime
p13
(S'\x07\xe2\x01\x1f\x140\x02\t\xfe\x98'
p14
tp15
Rp16
sS'speed'
p17
g2
sS'cadence'
p18
g2
s.(dp0
S'blood_pressure'
p1
S'no data'
p2
sS'imu_head'
p3
(dp4
S'yaw'
p5
F10.110758416420635
sS'roll'
p6
F6.509052548849585
sS'pitch'
p7
F10.255884667002363
ssS'heart_rate'
p8
F93.56424008938771
sS'imu_torso'
p9
(dp10
g5
F13.994438980523542
sg6
F6.8815308473536385
sg7
F6.008901082112703
ssS'steplength'
p11
g2
sS'timestamp'
p12
cdatetime
datetime
p13
(S'\x07\xe2\x01\x1f\x140\x03\n\nP'
p14
tp15
Rp16
sS'speed'
p17
g2
sS'cadence'
p18
g2
s.(dp0
S'blood_pressure'
p1
S'no data'
p2
sS'imu_head'
p3
(dp4
S'yaw'
p5
F6.103732693129025
sS'roll'
p6
F13.493962747421296
sS'pitch'
p7
F1.9260271017644026
ssS'heart_rate'
p8
F1.8020640813032562
sS'imu_torso'
p9
(dp10
g5
F17.356480451270762
sg6
F16.585183929517033
sg7
F15.85799414444831
ssS'steplength'
p11
g2
sS'timestamp'
p12
cdatetime
datetime
p13
(S'\x07\xe2\x01\x1f\x140\x04\n\x16\x08'
p14
tp15
Rp16
sS'speed'
p17
g2
sS'cadence'
p18
g2
s.(dp0
S'blood_pressure'
p1
S'no data'
p2
sS'imu_head'
p3
(dp4
S'yaw'
p5
F17.07010421078882
sS'roll'
p6
F5.905548122199573
sS'pitch'
p7
F17.660846674409687
ssS'heart_rate'
p8
F42.495360999084156
sS'imu_torso'
p9
(dp10
g5
F5.954506742694788
sg6
F4.374969013299326
sg7
F15.077407477558678
ssS'steplength'
p11
g2
sS'timestamp'
p12
cdatetime
datetime
p13
(S'\x07\xe2\x01\x1f\x140\x05\n%\xa8'
p14
tp15
Rp16
sS'speed'
p17
g2
sS'cadence'
p18
g2
s.(dp0
S'blood_pressure'
p1
S'no data'
p2
sS'imu_head'
p3
(dp4
S'yaw'
p5
F3.716474738135924
sS'roll'
p6
F18.915137137915586
sS'pitch'
p7
F4.411363473619872
ssS'heart_rate'
p8
F10.019776796156188
sS'imu_torso'
p9
(dp10
g5
F17.58481791032701
sg6
F8.320184551107335
sg7
F12.232816233409405
ssS'steplength'
p11
g2
sS'timestamp'
p12
cdatetime
datetime
p13
(S'\x07\xe2\x01\x1f\x140\x06\n5H'
p14
tp15
Rp16
sS'speed'
p17
g2
sS'cadence'
p18
g2
s.(dp0
S'blood_pressure'
p1
S'no data'
p2
sS'imu_head'
p3
(dp4
S'yaw'
p5
F13.376023194739044
sS'roll'
p6
F0.7079014760237401
sS'pitch'
p7
F3.0972639040713834
ssS'heart_rate'
p8
F80.78941279959862
sS'imu_torso'
p9
(dp10
g5
F12.628811804978175
sg6
F14.661959879966137
sg7
F13.576787728827266
ssS'steplength'
p11
g2
sS'timestamp'
p12
cdatetime
datetime
p13
(S'\x07\xe2\x01\x1f\x140\x07\n=\x18'
p14
tp15
Rp16
sS'speed'
p17
g2
sS'cadence'
p18
g2
s.(dp0
S'blood_pressure'
p1
S'no data'
p2
sS'imu_head'
p3
(dp4
S'yaw'
p5
F13.651748185741482
sS'roll'
p6
F17.551825098515845
sS'pitch'
p7
F7.191225280163868
ssS'heart_rate'
p8
F28.207435745256994
sS'imu_torso'
p9
(dp10
g5
F17.4372757715755
sg6
F5.65179684793808
sg7
F1.7580633496656417
ssS'steplength'
p11
g2
sS'timestamp'
p12
cdatetime
datetime
p13
(S'\x07\xe2\x01\x1f\x140\x08\nH\xd0'
p14
tp15
Rp16
sS'speed'
p17
g2
sS'cadence'
p18
g2
s.(dp0
S'blood_pressure'
p1
S'no data'
p2
sS'imu_head'
p3
(dp4
S'yaw'
p5
F0.2205199820367998
sS'roll'
p6
F2.789161180415307
sS'pitch'
p7
F16.626290186379805
ssS'heart_rate'
p8
F86.93908265338413
sS'imu_torso'
p9
(dp10
g5
F8.23796385114851
sg6
F2.2354602648091415
sg7
F16.518196170716905
ssS'steplength'
p11
g2
sS'timestamp'
p12
cdatetime
datetime
p13
(S'\x07\xe2\x01\x1f\x140\t\nT\x88'
p14
tp15
Rp16
sS'speed'
p17
g2
sS'cadence'
p18
g2
s.(dp0
S'blood_pressure'
p1
S'no data'
p2
sS'imu_head'
p3
(dp4
S'yaw'
p5
F6.809268305425727
sS'roll'
p6
F7.951690178067599
sS'pitch'
p7
F13.329264180223166
ssS'heart_rate'
p8
F10.496807914638296
sS'imu_torso'
p9
(dp10
g5
F8.780555145109037
sg6
F3.3619104008518685
sg7
F9.221078274070646
ssS'steplength'
p11
g2
sS'timestamp'
p12
cdatetime
datetime
p13
(S'\x07\xe2\x01\x1f\x140\n\n\\X'
p14
tp15
Rp16
sS'speed'
p17
g2
sS'cadence'
p18
g2
s.(dp0
S'blood_pressure'
p1
S'no data'
p2
sS'imu_head'
p3
(dp4
S'yaw'
p5
F18.774003374167467
sS'roll'
p6
F6.082361419677249
sS'pitch'
p7
F9.314710170792644
ssS'heart_rate'
p8
F66.84071440038328
sS'imu_torso'
p9
(dp10
g5
F8.301206619512582
sg6
F16.72108202203998
sg7
F3.1197823197099606
ssS'steplength'
p11
g2
sS'timestamp'
p12
cdatetime
datetime
p13
(S'\x07\xe2\x01\x1f\x140\x0b\nh\x10'
p14
tp15
Rp16
sS'speed'
p17
g2
sS'cadence'
p18
g2
s.(dp0
S'blood_pressure'
p1
S'no data'
p2
sS'imu_head'
p3
(dp4
S'yaw'
p5
F7.666038003827291
sS'roll'
p6
F19.1131057463473
sS'pitch'
p7
F17.07832014709957
ssS'heart_rate'
p8
F86.62470723207024
sS'imu_torso'
p9
(dp10
g5
F19.05814429272973
sg6
F16.598324424895946
sg7
F6.457872389073646
ssS'steplength'
p11
g2
sS'timestamp'
p12
cdatetime
datetime
p13
(S'\x07\xe2\x01\x1f\x140\x0c\ns\xc8'
p14
tp15
Rp16
sS'speed'
p17
g2
sS'cadence'
p18
g2
s.(dp0
S'blood_pressure'
p1
S'no data'
p2
sS'imu_head'
p3
(dp4
S'yaw'
p5
F8.644978638345844
sS'roll'
p6
F16.646075946255113
sS'pitch'
p7
F14.10518545613558
ssS'heart_rate'
p8
F76.06653902170706
sS'imu_torso'
p9
(dp10
g5
F5.09570847957912
sg6
F15.113554234711373
sg7
F10.903948498948264
ssS'steplength'
p11
g2
sS'timestamp'
p12
cdatetime
datetime
p13
(S'\x07\xe2\x01\x1f\x140\r\n\x7f\x80'
p14
tp15
Rp16
sS'speed'
p17
g2
sS'cadence'
p18
g2
s.(dp0
S'blood_pressure'
p1
S'no data'
p2
sS'imu_head'
p3
(dp4
S'yaw'
p5
F14.171105363893373
sS'roll'
p6
F4.163149276815901
sS'pitch'
p7
F14.324227101242592
ssS'heart_rate'
p8
F65.84976884754494
sS'imu_torso'
p9
(dp10
g5
F10.374367772728117
sg6
F0.050029742117094766
sg7
F8.895347387009636
ssS'steplength'
p11
g2
sS'timestamp'
p12
cdatetime
datetime
p13
(S'\x07\xe2\x01\x1f\x140\x0e\n\x8b8'
p14
tp15
Rp16
sS'speed'
p17
g2
sS'cadence'
p18
g2
s.(dp0
S'blood_pressure'
p1
S'no data'
p2
sS'imu_head'
p3
(dp4
S'yaw'
p5
F0.5190691988501395
sS'roll'
p6
F3.5060115669864356
sS'pitch'
p7
F17.1705500008955
ssS'heart_rate'
p8
F51.358829675219276
sS'imu_torso'
p9
(dp10
g5
F4.018615617825563
sg6
F4.218883824478043
sg7
F11.780742192010889
ssS'steplength'
p11
g2
sS'timestamp'
p12
cdatetime
datetime
p13
(S'\x07\xe2\x01\x1f\x140\x0f\n\x96\xf0'
p14
tp15
Rp16
sS'speed'
p17
g2
sS'cadence'
p18
g2
s.(dp0
S'blood_pressure'
p1
S'no data'
p2
sS'imu_head'
p3
(dp4
S'yaw'
p5
F9.64040303228079
sS'roll'
p6
F12.267671194626379
sS'pitch'
p7
F6.43454205266427
ssS'heart_rate'
p8
F90.09531081853072
sS'imu_torso'
p9
(dp10
g5
F2.112644454150734
sg6
F8.091456446243745
sg7
F0.7267177499100685
ssS'steplength'
p11
g2
sS'timestamp'
p12
cdatetime
datetime
p13
(S'\x07\xe2\x01\x1f\x140\x10\n\xa2\xa8'
p14
tp15
Rp16
sS'speed'
p17
g2
sS'cadence'
p18
g2
s.(dp0
S'blood_pressure'
p1
S'no data'
p2
sS'imu_head'
p3
(dp4
S'yaw'
p5
F8.85217021869808
sS'roll'
p6
F2.5401906855160927
sS'pitch'
p7
F12.476754253145828
ssS'heart_rate'
p8
F50.507690207519715
sS'imu_torso'
p9
(dp10
g5
F16.29239063651559
sg6
F15.199724510663156
sg7
F11.096288956169744
ssS'steplength'
p11
g2
sS'timestamp'
p12
cdatetime
datetime
p13
(S'\x07\xe2\x01\x1f\x140\x11\n\xae`'
p14
tp15
Rp16
sS'speed'
p17
g2
sS'cadence'
p18
g2
s.(dp0
S'blood_pressure'
p1
S'no data'
p2
sS'imu_head'
p3
(dp4
S'yaw'
p5
F14.795227198170895
sS'roll'
p6
F13.123019363849178
sS'pitch'
p7
F16.03378986618337
ssS'heart_rate'
p8
F84.03690559793193
sS'imu_torso'
p9
(dp10
g5
F12.09009873608052
sg6
F3.558058612046433
sg7
F10.715318093610474
ssS'steplength'
p11
g2
sS'timestamp'
p12
cdatetime
datetime
p13
(S'\x07\xe2\x01\x1f\x140\x12\n\xba\x18'
p14
tp15
Rp16
sS'speed'
p17
g2
sS'cadence'
p18
g2
s.(dp0
S'blood_pressure'
p1
S'no data'
p2
sS'imu_head'
p3
(dp4
S'yaw'
p5
F4.099075412081978
sS'roll'
p6
F16.28047491156556
sS'pitch'
p7
F14.707791707086136
ssS'heart_rate'
p8
F10.83900277389571
sS'imu_torso'
p9
(dp10
g5
F10.217949173479344
sg6
F9.879067436590283
sg7
F4.765326052145735
ssS'steplength'
p11
g2
sS'timestamp'
p12
cdatetime
datetime
p13
(S'\x07\xe2\x01\x1f\x140\x13\n\xc5\xd0'
p14
tp15
Rp16
sS'speed'
p17
g2
sS'cadence'
p18
g2
s.(dp0
S'blood_pressure'
p1
S'no data'
p2
sS'imu_head'
p3
(dp4
S'yaw'
p5
F13.987943911782974
sS'roll'
p6
F19.446204844783132
sS'pitch'
p7
F10.155507588575354
ssS'heart_rate'
p8
F9.414800005572467
sS'imu_torso'
p9
(dp10
g5
F15.374686652423005
sg6
F16.295333243159646
sg7
F16.674796844527688
ssS'steplength'
p11
g2
sS'timestamp'
p12
cdatetime
datetime
p13
(S'\x07\xe2\x01\x1f\x140\x14\n\xd5p'
p14
tp15
Rp16
sS'speed'
p17
g2
sS'cadence'
p18
g2
s.(dp0
S'blood_pressure'
p1
S'no data'
p2
sS'imu_head'
p3
(dp4
S'yaw'
p5
F2.9185980521922117
sS'roll'
p6
F13.39413817312767
sS'pitch'
p7
F1.7138452988954334
ssS'heart_rate'
p8
F13.002073683347316
sS'imu_torso'
p9
(dp10
g5
F19.965840201179063
sg6
F11.257386779646616
sg7
F1.0612665616224226
ssS'steplength'
p11
g2
sS'timestamp'
p12
cdatetime
datetime
p13
(S'\x07\xe2\x01\x1f\x140\x15\n\xe1('
p14
tp15
Rp16
sS'speed'
p17
g2
sS'cadence'
p18
g2
s.(dp0
S'blood_pressure'
p1
S'no data'
p2
sS'imu_head'
p3
(dp4
S'yaw'
p5
F12.301963637654591
sS'roll'
p6
F16.47677057002055
sS'pitch'
p7
F13.377457669177044
ssS'heart_rate'
p8
F61.459811990700366
sS'imu_torso'
p9
(dp10
g5
F12.047399087660612
sg6
F18.34181921564444
sg7
F4.021937803408666
ssS'steplength'
p11
g2
sS'timestamp'
p12
cdatetime
datetime
p13
(S'\x07\xe2\x01\x1f\x140\x16\n\xe8\xf8'
p14
tp15
Rp16
sS'speed'
p17
g2
sS'cadence'
p18
g2
s.(dp0
S'blood_pressure'
p1
S'no data'
p2
sS'imu_head'
p3
(dp4
S'yaw'
p5
F9.88825912729753
sS'roll'
p6
F2.455475019810829
sS'pitch'
p7
F0.531437859651398
ssS'heart_rate'
p8
F71.37150143558179
sS'imu_torso'
p9
(dp10
g5
F13.172707523247865
sg6
F0.8775046265046105
sg7
F4.269226303331877
ssS'steplength'
p11
g2
sS'timestamp'
p12
cdatetime
datetime
p13
(S'\x07\xe2\x01\x1f\x140\x17\n\xfc\x80'
p14
tp15
Rp16
sS'speed'
p17
g2
sS'cadence'
p18
g2
s.(dp0
S'blood_pressure'
p1
S'no data'
p2
sS'imu_head'
p3
(dp4
S'yaw'
p5
F14.962667471109189
sS'roll'
p6
F5.6826858593495055
sS'pitch'
p7
F11.991640291709906
ssS'heart_rate'
p8
F18.126644965859697
sS'imu_torso'
p9
(dp10
g5
F9.414422440880363
sg6
F13.456762937123683
sg7
F13.790097002493242
ssS'steplength'
p11
g2
sS'timestamp'
p12
cdatetime
datetime
p13
(S'\x07\xe2\x01\x1f\x140\x18\x0b\x088'
p14
tp15
Rp16
sS'speed'
p17
g2
sS'cadence'
p18
g2
s.(dp0
S'blood_pressure'
p1
S'no data'
p2
sS'imu_head'
p3
(dp4
S'yaw'
p5
F10.999333294807215
sS'roll'
p6
F14.832765909015952
sS'pitch'
p7
F1.2450762640753488
ssS'heart_rate'
p8
F71.89078324822403
sS'imu_torso'
p9
(dp10
g5
F8.614457078714503
sg6
F1.775084965873086
sg7
F17.854955074367492
ssS'steplength'
p11
g2
sS'timestamp'
p12
cdatetime
datetime
p13
(S'\x07\xe2\x01\x1f\x140\x19\x0b\x13\xf0'
p14
tp15
Rp16
sS'speed'
p17
g2
sS'cadence'
p18
g2
s.(dp0
S'blood_pressure'
p1
S'no data'
p2
sS'imu_head'
p3
(dp4
S'yaw'
p5
F1.4497695449883796
sS'roll'
p6
F17.774168440287525
sS'pitch'
p7
F6.145189122611026
ssS'heart_rate'
p8
F21.80625452069249
sS'imu_torso'
p9
(dp10
g5
F7.9888255018378596
sg6
F3.697027862006257
sg7
F15.374186686863649
ssS'steplength'
p11
g2
sS'timestamp'
p12
cdatetime
datetime
p13
(S'\x07\xe2\x01\x1f\x140\x1a\x0b\x1b\xc0'
p14
tp15
Rp16
sS'speed'
p17
g2
sS'cadence'
p18
g2
s.(dp0
S'blood_pressure'
p1
S'no data'
p2
sS'imu_head'
p3
(dp4
S'yaw'
p5
F4.491044499514882
sS'roll'
p6
F9.98418238003018
sS'pitch'
p7
F4.047680417065445
ssS'heart_rate'
p8
F21.828615313808008
sS'imu_torso'
p9
(dp10
g5
F14.648071012296779
sg6
F19.108028238349323
sg7
F4.2314241984343814
ssS'steplength'
p11
g2
sS'timestamp'
p12
cdatetime
datetime
p13
(S'\x07\xe2\x01\x1f\x140\x1b\x0b+`'
p14
tp15
Rp16
sS'speed'
p17
g2
sS'cadence'
p18
g2
s.(dp0
S'blood_pressure'
p1
S'no data'
p2
sS'imu_head'
p3
(dp4
S'yaw'
p5
F8.817393292867358
sS'roll'
p6
F13.584896691495738
sS'pitch'
p7
F5.19448993539979
ssS'heart_rate'
p8
F51.82356191163543
sS'imu_torso'
p9
(dp10
g5
F18.38496719766033
sg6
F12.660856057394188
sg7
F19.922906161461125
ssS'steplength'
p11
g2
sS'timestamp'
p12
cdatetime
datetime
p13
(S'\x07\xe2\x01\x1f\x140\x1c\x0b/H'
p14
tp15
Rp16
sS'speed'
p17
g2
sS'cadence'
p18
g2
s.(dp0
S'blood_pressure'
p1
S'no data'
p2
sS'imu_head'
p3
(dp4
S'yaw'
p5
F19.560682874444566
sS'roll'
p6
F4.080770863231125
sS'pitch'
p7
F4.790448802580722
ssS'heart_rate'
p8
F0.2686733248076889
sS'imu_torso'
p9
(dp10
g5
F10.015377153236088
sg6
F12.560075120121468
sg7
F18.808940526486147
ssS'steplength'
p11
g2
sS'timestamp'
p12
cdatetime
datetime
p13
(S'\x07\xe2\x01\x1f\x140\x1d\x0bB\xd0'
p14
tp15
Rp16
sS'speed'
p17
g2
sS'cadence'
p18
g2
s.(dp0
S'blood_pressure'
p1
S'no data'
p2
sS'imu_head'
p3
(dp4
S'yaw'
p5
F13.968292335733745
sS'roll'
p6
F12.85027943337196
sS'pitch'
p7
F16.492996118462564
ssS'heart_rate'
p8
F77.53072065508034
sS'imu_torso'
p9
(dp10
g5
F6.969206913135137
sg6
F7.898805874298642
sg7
F13.033390888836083
ssS'steplength'
p11
g2
sS'timestamp'
p12
cdatetime
datetime
p13
(S'\x07\xe2\x01\x1f\x140\x1e\x0bJ\xa0'
p14
tp15
Rp16
sS'speed'
p17
g2
sS'cadence'
p18
g2
s.(dp0
S'blood_pressure'
p1
S'no data'
p2
sS'imu_head'
p3
(dp4
S'yaw'
p5
F10.695896823018343
sS'roll'
p6
F19.358837722484424
sS'pitch'
p7
F6.625040343660862
ssS'heart_rate'
p8
F66.8248414959762
sS'imu_torso'
p9
(dp10
g5
F3.743814862211041
sg6
F2.209240379492652
sg7
F16.309211710771777
ssS'steplength'
p11
g2
sS'timestamp'
p12
cdatetime
datetime
p13
(S'\x07\xe2\x01\x1f\x140\x1f\x0b^('
p14
tp15
Rp16
sS'speed'
p17
g2
sS'cadence'
p18
g2
s.(dp0
S'blood_pressure'
p1
S'no data'
p2
sS'imu_head'
p3
(dp4
S'yaw'
p5
F2.188575514078741
sS'roll'
p6
F17.96122460515921
sS'pitch'
p7
F9.14953825424213
ssS'heart_rate'
p8
F50.53099991476525
sS'imu_torso'
p9
(dp10
g5
F6.587164118386917
sg6
F13.533820317758153
sg7
F11.534513834741073
ssS'steplength'
p11
g2
sS'timestamp'
p12
cdatetime
datetime
p13
(S'\x07\xe2\x01\x1f\x140 \x0bb\x10'
p14
tp15
Rp16
sS'speed'
p17
g2
sS'cadence'
p18
g2
s.(dp0
S'blood_pressure'
p1
S'no data'
p2
sS'imu_head'
p3
(dp4
S'yaw'
p5
F8.935676947145355
sS'roll'
p6
F18.391811089960164
sS'pitch'
p7
F3.7245213501691343
ssS'heart_rate'
p8
F77.03755784703606
sS'imu_torso'
p9
(dp10
g5
F4.3586047303864
sg6
F6.58718476308348
sg7
F6.613450305403221
ssS'steplength'
p11
g2
sS'timestamp'
p12
cdatetime
datetime
p13
(S'\x07\xe2\x01\x1f\x140!\x0bm\xc8'
p14
tp15
Rp16
sS'speed'
p17
g2
sS'cadence'
p18
g2
s.(dp0
S'blood_pressure'
p1
S'no data'
p2
sS'imu_head'
p3
(dp4
S'yaw'
p5
F19.304110853634334
sS'roll'
p6
F14.793585262542585
sS'pitch'
p7
F16.67291317055338
ssS'heart_rate'
p8
F90.63966140561641
sS'imu_torso'
p9
(dp10
g5
F12.682167852276036
sg6
F17.205859296320394
sg7
F1.3196318072476898
ssS'steplength'
p11
g2
sS'timestamp'
p12
cdatetime
datetime
p13
(S'\x07\xe2\x01\x1f\x140"\x0by\x80'
p14
tp15
Rp16
sS'speed'
p17
g2
sS'cadence'
p18
g2
s.(dp0
S'blood_pressure'
p1
S'no data'
p2
sS'imu_head'
p3
(dp4
S'yaw'
p5
F7.100165602924722
sS'roll'
p6
F13.52348275171284
sS'pitch'
p7
F16.991131094570633
ssS'heart_rate'
p8
F18.87651413273279
sS'imu_torso'
p9
(dp10
g5
F11.59675703827604
sg6
F13.814698439724552
sg7
F14.661458171949082
ssS'steplength'
p11
g2
sS'timestamp'
p12
cdatetime
datetime
p13
(S'\x07\xe2\x01\x1f\x140#\x0b\x89 '
p14
tp15
Rp16
sS'speed'
p17
g2
sS'cadence'
p18
g2
s.(dp0
S'blood_pressure'
p1
S'no data'
p2
sS'imu_head'
p3
(dp4
S'yaw'
p5
F2.4906782093937974
sS'roll'
p6
F10.054614753774434
sS'pitch'
p7
F3.044864143985515
ssS'heart_rate'
p8
F78.60490301754692
sS'imu_torso'
p9
(dp10
g5
F8.738609618352504
sg6
F13.082174618405372
sg7
F18.04992808727669
ssS'steplength'
p11
g2
sS'timestamp'
p12
cdatetime
datetime
p13
(S'\x07\xe2\x01\x1f\x140$\x0b\x9c\xa8'
p14
tp15
Rp16
sS'speed'
p17
g2
sS'cadence'
p18
g2
s.(dp0
S'blood_pressure'
p1
S'no data'
p2
sS'imu_head'
p3
(dp4
S'yaw'
p5
F0.6832352827944188
sS'roll'
p6
F2.858482356611658
sS'pitch'
p7
F8.0830951180495
ssS'heart_rate'
p8
F46.806159261427936
sS'imu_torso'
p9
(dp10
g5
F12.825582338075947
sg6
F13.934173552671291
sg7
F3.033773313685504
ssS'steplength'
p11
g2
sS'timestamp'
p12
cdatetime
datetime
p13
(S'\x07\xe2\x01\x1f\x140%\x0b\xacH'
p14
tp15
Rp16
sS'speed'
p17
g2
sS'cadence'
p18
g2
s.(dp0
S'blood_pressure'
p1
S'no data'
p2
sS'imu_head'
p3
(dp4
S'yaw'
p5
F17.472496686204963
sS'roll'
p6
F18.36121538105775
sS'pitch'
p7
F2.6381462537276335
ssS'heart_rate'
p8
F38.6044147941535
sS'imu_torso'
p9
(dp10
g5
F10.6785314467385
sg6
F2.747688180836738
sg7
F7.213751224805998
ssS'steplength'
p11
g2
sS'timestamp'
p12
cdatetime
datetime
p13
(S'\x07\xe2\x01\x1f\x140&\x0b\xb4\x18'
p14
tp15
Rp16
sS'speed'
p17
g2
sS'cadence'
p18
g2
s.(dp0
S'blood_pressure'
p1
S'no data'
p2
sS'imu_head'
p3
(dp4
S'yaw'
p5
F1.8835105250287154
sS'roll'
p6
F5.445879750408649
sS'pitch'
p7
F6.211029402559671
ssS'heart_rate'
p8
F47.438644707709734
sS'imu_torso'
p9
(dp10
g5
F5.640896755081455
sg6
F5.948184103410801
sg7
F3.3153517826280976
ssS'steplength'
p11
g2
sS'timestamp'
p12
cdatetime
datetime
p13
(S"\x07\xe2\x01\x1f\x140'\x0b\xc3\xb8"
p14
tp15
Rp16
sS'speed'
p17
g2
sS'cadence'
p18
g2
s.(dp0
S'blood_pressure'
p1
S'no data'
p2
sS'imu_head'
p3
(dp4
S'yaw'
p5
F7.653606097264454
sS'roll'
p6
F10.050978183432765
sS'pitch'
p7
F7.38926415026214
ssS'heart_rate'
p8
F15.88239713875177
sS'imu_torso'
p9
(dp10
g5
F15.320418227337973
sg6
F14.404091604183378
sg7
F5.83042850779921
ssS'steplength'
p11
g2
sS'timestamp'
p12
cdatetime
datetime
p13
(S'\x07\xe2\x01\x1f\x140(\x0b\xcb\x88'
p14
tp15
Rp16
sS'speed'
p17
g2
sS'cadence'
p18
g2
s.(dp0
S'blood_pressure'
p1
S'no data'
p2
sS'imu_head'
p3
(dp4
S'yaw'
p5
F4.24301925680608
sS'roll'
p6
F0.7214012085542931
sS'pitch'
p7
F16.040786684437318
ssS'heart_rate'
p8
F26.059360336045334
sS'imu_torso'
p9
(dp10
g5
F17.73612706809352
sg6
F10.871262292632691
sg7
F0.19694813784029597
ssS'steplength'
p11
g2
sS'timestamp'
p12
cdatetime
datetime
p13
(S'\x07\xe2\x01\x1f\x140)\x0b\xd7@'
p14
tp15
Rp16
sS'speed'
p17
g2
sS'cadence'
p18
g2
s.(dp0
S'blood_pressure'
p1
S'no data'
p2
sS'imu_head'
p3
(dp4
S'yaw'
p5
F3.5747669739643873
sS'roll'
p6
F2.8179134076623003
sS'pitch'
p7
F7.5402596394846855
ssS'heart_rate'
p8
F86.91542999349733
sS'imu_torso'
p9
(dp10
g5
F8.248212377395287
sg6
F10.297463352665675
sg7
F12.723127588628655
ssS'steplength'
p11
g2
sS'timestamp'
p12
cdatetime
datetime
p13
(S'\x07\xe2\x01\x1f\x140*\x0b\xe6\xe0'
p14
tp15
Rp16
sS'speed'
p17
g2
sS'cadence'
p18
g2
s.(dp0
S'blood_pressure'
p1
S'no data'
p2
sS'imu_head'
p3
(dp4
S'yaw'
p5
F12.937343728830594
sS'roll'
p6
F18.643609577926537
sS'pitch'
p7
F18.02273783542807
ssS'heart_rate'
p8
F45.66239122179595
sS'imu_torso'
p9
(dp10
g5
F13.081067785640005
sg6
F17.6805081635843
sg7
F8.840726904785557
ssS'steplength'
p11
g2
sS'timestamp'
p12
cdatetime
datetime
p13
(S'\x07\xe2\x01\x1f\x140+\x0b\xee\xb0'
p14
tp15
Rp16
sS'speed'
p17
g2
sS'cadence'
p18
g2
s.(dp0
S'blood_pressure'
p1
S'no data'
p2
sS'imu_head'
p3
(dp4
S'yaw'
p5
F10.59992518757044
sS'roll'
p6
F19.79467010725748
sS'pitch'
p7
F6.554659211904017
ssS'heart_rate'
p8
F56.83854866185259
sS'imu_torso'
p9
(dp10
g5
F18.60818546037079
sg6
F13.388184675520428
sg7
F10.574901868605544
ssS'steplength'
p11
g2
sS'timestamp'
p12
cdatetime
datetime
p13
(S'\x07\xe2\x01\x1f\x140,\x0b\xfah'
p14
tp15
Rp16
sS'speed'
p17
g2
sS'cadence'
p18
g2
s.(dp0
S'blood_pressure'
p1
S'no data'
p2
sS'imu_head'
p3
(dp4
S'yaw'
p5
F14.007123825029389
sS'roll'
p6
F18.358885657845818
sS'pitch'
p7
F3.4520337387714317
ssS'heart_rate'
p8
F78.96931901299536
sS'imu_torso'
p9
(dp10
g5
F8.43666592379844
sg6
F1.3519942382208416
sg7
F1.8256815294918383
ssS'steplength'
p11
g2
sS'timestamp'
p12
cdatetime
datetime
p13
(S'\x07\xe2\x01\x1f\x140-\x0c\n\x08'
p14
tp15
Rp16
sS'speed'
p17
g2
sS'cadence'
p18
g2
s.(dp0
S'blood_pressure'
p1
S'no data'
p2
sS'imu_head'
p3
(dp4
S'yaw'
p5
F4.626878972852695
sS'roll'
p6
F10.91765312565033
sS'pitch'
p7
F17.29603774708021
ssS'heart_rate'
p8
F89.08816322174431
sS'imu_torso'
p9
(dp10
g5
F15.176847607734445
sg6
F5.383637821280358
sg7
F3.708318883753221
ssS'steplength'
p11
g2
sS'timestamp'
p12
cdatetime
datetime
p13
(S'\x07\xe2\x01\x1f\x140.\x0c\r\xf0'
p14
tp15
Rp16
sS'speed'
p17
g2
sS'cadence'
p18
g2
s.(dp0
S'blood_pressure'
p1
S'no data'
p2
sS'imu_head'
p3
(dp4
S'yaw'
p5
F15.972504595954911
sS'roll'
p6
F5.869251999127636
sS'pitch'
p7
F3.342333484450719
ssS'heart_rate'
p8
F9.315961415700025
sS'imu_torso'
p9
(dp10
g5
F15.672550926343792
sg6
F12.471361984183051
sg7
F3.4040615290546206
ssS'steplength'
p11
g2
sS'timestamp'
p12
cdatetime
datetime
p13
(S'\x07\xe2\x01\x1f\x140/\x0c\x19\xa8'
p14
tp15
Rp16
sS'speed'
p17
g2
sS'cadence'
p18
g2
s.(dp0
S'blood_pressure'
p1
S'no data'
p2
sS'imu_head'
p3
(dp4
S'yaw'
p5
F19.624808653277572
sS'roll'
p6
F3.446838209529679
sS'pitch'
p7
F18.873831203857566
ssS'heart_rate'
p8
F20.3811474029022
sS'imu_torso'
p9
(dp10
g5
F18.63242615083572
sg6
F15.424936207949411
sg7
F11.232980112774184
ssS'steplength'
p11
g2
sS'timestamp'
p12
cdatetime
datetime
p13
(S'\x07\xe2\x01\x1f\x1400\x0c5\x00'
p14
tp15
Rp16
sS'speed'
p17
g2
sS'cadence'
p18
g2
s.(dp0
S'blood_pressure'
p1
S'no data'
p2
sS'imu_head'
p3
(dp4
S'yaw'
p5
F7.6085606952879825
sS'roll'
p6
F17.25347605714412
sS'pitch'
p7
F18.51242693427623
ssS'heart_rate'
p8
F18.239810078156104
sS'imu_torso'
p9
(dp10
g5
F17.874170249122606
sg6
F2.5108160270029534
sg7
F8.613206317096502
ssS'steplength'
p11
g2
sS'timestamp'
p12
cdatetime
datetime
p13
(S'\x07\xe2\x01\x1f\x1401\x0c@\xb8'
p14
tp15
Rp16
sS'speed'
p17
g2
sS'cadence'
p18
g2
s.(dp0
S'blood_pressure'
p1
S'no data'
p2
sS'imu_head'
p3
(dp4
S'yaw'
p5
F15.7866170074014
sS'roll'
p6
F12.488935977414917
sS'pitch'
p7
F0.5082437587995203
ssS'heart_rate'
p8
F12.238227642141497
sS'imu_torso'
p9
(dp10
g5
F18.55178967525894
sg6
F15.071913813738043
sg7
F11.75780983614695
ssS'steplength'
p11
g2
sS'timestamp'
p12
cdatetime
datetime
p13
(S'\x07\xe2\x01\x1f\x1402\x0cH\x88'
p14
tp15
Rp16
sS'speed'
p17
g2
sS'cadence'
p18
g2
s.(dp0
S'blood_pressure'
p1
S'no data'
p2
sS'imu_head'
p3
(dp4
S'yaw'
p5
F15.93167689589694
sS'roll'
p6
F4.429239248509358
sS'pitch'
p7
F17.748256955667365
ssS'heart_rate'
p8
F86.51518078190806
sS'imu_torso'
p9
(dp10
g5
F16.2646019606713
sg6
F10.8650084444532
sg7
F6.747631518980506
ssS'steplength'
p11
g2
sS'timestamp'
p12
cdatetime
datetime
p13
(S'\x07\xe2\x01\x1f\x1403\x0cT@'
p14
tp15
Rp16
sS'speed'
p17
g2
sS'cadence'
p18
g2
s.(dp0
S'blood_pressure'
p1
S'no data'
p2
sS'imu_head'
p3
(dp4
S'yaw'
p5
F11.013030198415745
sS'roll'
p6
F12.115336291261269
sS'pitch'
p7
F11.373412747214438
ssS'heart_rate'
p8
F35.5050586028432
sS'imu_torso'
p9
(dp10
g5
F2.7690872365489527
sg6
F7.7796961308608275
sg7
F15.962954119153974
ssS'steplength'
p11
g2
sS'timestamp'
p12
cdatetime
datetime
p13
(S'\x07\xe2\x01\x1f\x1404\x0c_\xf8'
p14
tp15
Rp16
sS'speed'
p17
g2
sS'cadence'
p18
g2
s.(dp0
S'blood_pressure'
p1
S'no data'
p2
sS'imu_head'
p3
(dp4
S'yaw'
p5
F15.183185958313121
sS'roll'
p6
F2.5117130796783993
sS'pitch'
p7
F19.335919439783794
ssS'heart_rate'
p8
F60.96248888664575
sS'imu_torso'
p9
(dp10
g5
F12.853926967724155
sg6
F4.3814077717037
sg7
F19.405964785595927
ssS'steplength'
p11
g2
sS'timestamp'
p12
cdatetime
datetime
p13
(S'\x07\xe2\x01\x1f\x1405\x0co\x98'
p14
tp15
Rp16
sS'speed'
p17
g2
sS'cadence'
p18
g2
s.(dp0
S'blood_pressure'
p1
S'no data'
p2
sS'imu_head'
p3
(dp4
S'yaw'
p5
F3.4967235926478857
sS'roll'
p6
F4.486646265190779
sS'pitch'
p7
F16.989477801724764
ssS'heart_rate'
p8
F23.15518106576824
sS'imu_torso'
p9
(dp10
g5
F0.6232577994773769
sg6
F5.8448897975500325
sg7
F15.963742690400382
ssS'steplength'
p11
g2
sS'timestamp'
p12
cdatetime
datetime
p13
(S'\x07\xe2\x01\x1f\x1406\x0cwh'
p14
tp15
Rp16
sS'speed'
p17
g2
sS'cadence'
p18
g2
s.(dp0
S'blood_pressure'
p1
S'no data'
p2
sS'imu_head'
p3
(dp4
S'yaw'
p5
F13.087522705990281
sS'roll'
p6
F14.405344926357502
sS'pitch'
p7
F2.2233729291593707
ssS'heart_rate'
p8
F4.860127715446461
sS'imu_torso'
p9
(dp10
g5
F2.513755783557341
sg6
F16.78342017012419
sg7
F11.791344551470054
ssS'steplength'
p11
g2
sS'timestamp'
p12
cdatetime
datetime
p13
(S'\x07\xe2\x01\x1f\x1407\x0c\x83 '
p14
tp15
Rp16
sS'speed'
p17
g2
sS'cadence'
p18
g2
s.(dp0
S'blood_pressure'
p1
S'no data'
p2
sS'imu_head'
p3
(dp4
S'yaw'
p5
F12.964313079306082
sS'roll'
p6
F6.7735028026127075
sS'pitch'
p7
F3.6257890962267347
ssS'heart_rate'
p8
F0.7657187105832186
sS'imu_torso'
p9
(dp10
g5
F15.80117989761671
sg6
F11.414754116906172
sg7
F0.755453345278978
ssS'steplength'
p11
g2
sS'timestamp'
p12
cdatetime
datetime
p13
(S'\x07\xe2\x01\x1f\x1408\x0c\x8a\xf0'
p14
tp15
Rp16
sS'speed'
p17
g2
sS'cadence'
p18
g2
s.(dp0
S'blood_pressure'
p1
S'no data'
p2
sS'imu_head'
p3
(dp4
S'yaw'
p5
F17.08536647953843
sS'roll'
p6
F1.782836899057323
sS'pitch'
p7
F11.60861306421149
ssS'heart_rate'
p8
F73.7442414835687
sS'imu_torso'
p9
(dp10
g5
F18.295086074713037
sg6
F18.42607230473698
sg7
F7.179745156737354
ssS'steplength'
p11
g2
sS'timestamp'
p12
cdatetime
datetime
p13
(S'\x07\xe2\x01\x1f\x1409\x0c\x96\xa8'
p14
tp15
Rp16
sS'speed'
p17
g2
sS'cadence'
p18
g2
s.(dp0
S'blood_pressure'
p1
S'no data'
p2
sS'imu_head'
p3
(dp4
S'yaw'
p5
F17.60551637640914
sS'roll'
p6
F17.025135036067038
sS'pitch'
p7
F4.161042475747925
ssS'heart_rate'
p8
F47.73194763844278
sS'imu_torso'
p9
(dp10
g5
F5.099712317019294
sg6
F19.430232644047848
sg7
F18.891699881096468
ssS'steplength'
p11
g2
sS'timestamp'
p12
cdatetime
datetime
p13
(S'\x07\xe2\x01\x1f\x140:\x0c\xae\x18'
p14
tp15
Rp16
sS'speed'
p17
g2
sS'cadence'
p18
g2
s.(dp0
S'blood_pressure'
p1
S'no data'
p2
sS'imu_head'
p3
(dp4
S'yaw'
p5
F18.32954902572392
sS'roll'
p6
F19.097692838084008
sS'pitch'
p7
F13.292232008133716
ssS'heart_rate'
p8
F55.65814619707682
sS'imu_torso'
p9
(dp10
g5
F11.20784209622216
sg6
F8.437775778860184
sg7
F15.249323840819937
ssS'steplength'
p11
g2
sS'timestamp'
p12
cdatetime
datetime
p13
(S'\x07\xe2\x01\x1f\x140;\x0c\xb9\xd0'
p14
tp15
Rp16
sS'speed'
p17
g2
sS'cadence'
p18
g2
s.(dp0
S'blood_pressure'
p1
S'no data'
p2
sS'imu_head'
p3
(dp4
S'yaw'
p5
F3.0568138367117137
sS'roll'
p6
F1.2053448453762683
sS'pitch'
p7
F15.88135786326948
ssS'heart_rate'
p8
F6.074657215819768
sS'imu_torso'
p9
(dp10
g5
F7.987918143769665
sg6
F16.386818598834964
sg7
F8.66928356237917
ssS'steplength'
p11
g2
sS'timestamp'
p12
cdatetime
datetime
p13
(S'\x07\xe2\x01\x1f\x141\x00\x0c\xc5\x88'
p14
tp15
Rp16
sS'speed'
p17
g2
sS'cadence'
p18
g2
s.(dp0
S'blood_pressure'
p1
S'no data'
p2
sS'imu_head'
p3
(dp4
S'yaw'
p5
F2.664835806398169
sS'roll'
p6
F5.563418567856293
sS'pitch'
p7
F13.800981050639143
ssS'heart_rate'
p8
F33.880034355944254
sS'imu_torso'
p9
(dp10
g5
F8.573008449059712
sg6
F8.976191055486202
sg7
F0.4327782949057757
ssS'steplength'
p11
g2
sS'timestamp'
p12
cdatetime
datetime
p13
(S'\x07\xe2\x01\x1f\x141\x01\x0c\xd1@'
p14
tp15
Rp16
sS'speed'
p17
g2
sS'cadence'
p18
g2
s.(dp0
S'blood_pressure'
p1
S'no data'
p2
sS'imu_head'
p3
(dp4
S'yaw'
p5
F2.187196768077684
sS'roll'
p6
F15.689041020731292
sS'pitch'
p7
F15.323239640740521
ssS'heart_rate'
p8
F30.9820372089338
sS'imu_torso'
p9
(dp10
g5
F17.672194223880908
sg6
F17.79284910001687
sg7
F13.45556389632369
ssS'steplength'
p11
g2
sS'timestamp'
p12
cdatetime
datetime
p13
(S'\x07\xe2\x01\x1f\x141\x02\x0c\xd9\x10'
p14
tp15
Rp16
sS'speed'
p17
g2
sS'cadence'
p18
g2
s.(dp0
S'blood_pressure'
p1
S'no data'
p2
sS'imu_head'
p3
(dp4
S'yaw'
p5
F15.147244929970423
sS'roll'
p6
F0.12468825897417934
sS'pitch'
p7
F9.300926804194136
ssS'heart_rate'
p8
F70.39801808614466
sS'imu_torso'
p9
(dp10
g5
F18.119427637772464
sg6
F5.117749279198954
sg7
F4.02204669172558
ssS'steplength'
p11
g2
sS'timestamp'
p12
cdatetime
datetime
p13
(S'\x07\xe2\x01\x1f\x141\x03\x0c\xe8\xb0'
p14
tp15
Rp16
sS'speed'
p17
g2
sS'cadence'
p18
g2
s.(dp0
S'blood_pressure'
p1
S'no data'
p2
sS'imu_head'
p3
(dp4
S'yaw'
p5
F14.958368836581235
sS'roll'
p6
F2.1604685597881756
sS'pitch'
p7
F12.095240750264072
ssS'heart_rate'
p8
F62.75526435606146
sS'imu_torso'
p9
(dp10
g5
F8.78505098221189
sg6
F16.946387909007882
sg7
F14.295749348382046
ssS'steplength'
p11
g2
sS'timestamp'
p12
cdatetime
datetime
p13
(S'\x07\xe2\x01\x1f\x141\x04\x0c\xf4h'
p14
tp15
Rp16
sS'speed'
p17
g2
sS'cadence'
p18
g2
s.(dp0
S'blood_pressure'
p1
S'no data'
p2
sS'imu_head'
p3
(dp4
S'yaw'
p5
F0.8313710259640028
sS'roll'
p6
F18.53583446115123
sS'pitch'
p7
F0.050364762767567406
ssS'heart_rate'
p8
F21.769791258300298
sS'imu_torso'
p9
(dp10
g5
F13.009459014012617
sg6
F0.3369241282222002
sg7
F19.67056274671727
ssS'steplength'
p11
g2
sS'timestamp'
p12
cdatetime
datetime
p13
(S'\x07\xe2\x01\x1f\x141\x05\r\x04\x08'
p14
tp15
Rp16
sS'speed'
p17
g2
sS'cadence'
p18
g2
s.(dp0
S'blood_pressure'
p1
S'no data'
p2
sS'imu_head'
p3
(dp4
S'yaw'
p5
F19.545693593698182
sS'roll'
p6
F2.528965729412811
sS'pitch'
p7
F8.077998936983665
ssS'heart_rate'
p8
F79.22835183706928
sS'imu_torso'
p9
(dp10
g5
F14.97654635921467
sg6
F14.758887714339696
sg7
F9.18622785869041
ssS'steplength'
p11
g2
sS'timestamp'
p12
cdatetime
datetime
p13
(S'\x07\xe2\x01\x1f\x141\x06\r\x0f\xc0'
p14
tp15
Rp16
sS'speed'
p17
g2
sS'cadence'
p18
g2
s.(dp0
S'blood_pressure'
p1
S'no data'
p2
sS'imu_head'
p3
(dp4
S'yaw'
p5
F10.35744405761869
sS'roll'
p6
F8.68411501443283
sS'pitch'
p7
F8.571087784167599
ssS'heart_rate'
p8
F21.18852003218581
sS'imu_torso'
p9
(dp10
g5
F5.439699254803047
sg6
F16.252520162478277
sg7
F12.248659561566434
ssS'steplength'
p11
g2
sS'timestamp'
p12
cdatetime
datetime
p13
(S'\x07\xe2\x01\x1f\x141\x07\r\x17\x90'
p14
tp15
Rp16
sS'speed'
p17
g2
sS'cadence'
p18
g2
s.(dp0
S'blood_pressure'
p1
S'no data'
p2
sS'imu_head'
p3
(dp4
S'yaw'
p5
F5.173733089740466
sS'roll'
p6
F19.195676864358703
sS'pitch'
p7
F6.497727213434641
ssS'heart_rate'
p8
F9.321676019918145
sS'imu_torso'
p9
(dp10
g5
F12.422569223920856
sg6
F15.622427409564175
sg7
F0.3502840800381901
ssS'steplength'
p11
g2
sS'timestamp'
p12
cdatetime
datetime
p13
(S'\x07\xe2\x01\x1f\x141\x08\r/\x00'
p14
tp15
Rp16
sS'speed'
p17
g2
sS'cadence'
p18
g2
s.(dp0
S'blood_pressure'
p1
S'no data'
p2
sS'imu_head'
p3
(dp4
S'yaw'
p5
F12.493672978717782
sS'roll'
p6
F11.963231645390053
sS'pitch'
p7
F13.196909784971192
ssS'heart_rate'
p8
F69.91395676876337
sS'imu_torso'
p9
(dp10
g5
F0.4412528364811896
sg6
F13.502510984644076
sg7
F9.539668646333947
ssS'steplength'
p11
g2
sS'timestamp'
p12
cdatetime
datetime
p13
(S'\x07\xe2\x01\x1f\x141\t\r6\xd0'
p14
tp15
Rp16
sS'speed'
p17
g2
sS'cadence'
p18
g2
s.(dp0
S'blood_pressure'
p1
S'no data'
p2
sS'imu_head'
p3
(dp4
S'yaw'
p5
F10.554102792768226
sS'roll'
p6
F14.016500600007396
sS'pitch'
p7
F4.780481463564068
ssS'heart_rate'
p8
F61.11258662485298
sS'imu_torso'
p9
(dp10
g5
F1.645962820108433
sg6
F16.228726852856465
sg7
F9.666614474238838
ssS'steplength'
p11
g2
sS'timestamp'
p12
cdatetime
datetime
p13
(S'\x07\xe2\x01\x1f\x141\n\rFp'
p14
tp15
Rp16
sS'speed'
p17
g2
sS'cadence'
p18
g2
s.(dp0
S'blood_pressure'
p1
S'no data'
p2
sS'imu_head'
p3
(dp4
S'yaw'
p5
F18.72227684224814
sS'roll'
p6
F12.869614335787285
sS'pitch'
p7
F9.644355135179106
ssS'heart_rate'
p8
F88.55553128179375
sS'imu_torso'
p9
(dp10
g5
F4.666613346087701
sg6
F11.243593407971558
sg7
F5.660357865686958
ssS'steplength'
p11
g2
sS'timestamp'
p12
cdatetime
datetime
p13
(S'\x07\xe2\x01\x1f\x141\x0b\rR('
p14
tp15
Rp16
sS'speed'
p17
g2
sS'cadence'
p18
g2
s.(dp0
S'blood_pressure'
p1
S'no data'
p2
sS'imu_head'
p3
(dp4
S'yaw'
p5
F6.179356325215462
sS'roll'
p6
F4.5374724825187185
sS'pitch'
p7
F2.901455049323416
ssS'heart_rate'
p8
F49.15975180340786
sS'imu_torso'
p9
(dp10
g5
F13.390731531852321
sg6
F2.9674047381518753
sg7
F18.07170234802852
ssS'steplength'
p11
g2
sS'timestamp'
p12
cdatetime
datetime
p13
(S'\x07\xe2\x01\x1f\x141\x0c\rY\xf8'
p14
tp15
Rp16
sS'speed'
p17
g2
sS'cadence'
p18
g2
s.(dp0
S'blood_pressure'
p1
S'no data'
p2
sS'imu_head'
p3
(dp4
S'yaw'
p5
F3.1286953069036882
sS'roll'
p6
F5.982119914648152
sS'pitch'
p7
F8.084412897377115
ssS'heart_rate'
p8
F68.63053479962666
sS'imu_torso'
p9
(dp10
g5
F8.853974007133958
sg6
F0.07379515398295178
sg7
F4.277568967642682
ssS'steplength'
p11
g2
sS'timestamp'
p12
cdatetime
datetime
p13
(S'\x07\xe2\x01\x1f\x141\r\re\xb0'
p14
tp15
Rp16
sS'speed'
p17
g2
sS'cadence'
p18
g2
s.(dp0
S'blood_pressure'
p1
S'no data'
p2
sS'imu_head'
p3
(dp4
S'yaw'
p5
F13.880604659466595
sS'roll'
p6
F1.2317558065002077
sS'pitch'
p7
F18.63824007448188
ssS'heart_rate'
p8
F63.83141292559714
sS'imu_torso'
p9
(dp10
g5
F16.319313681755705
sg6
F11.940041667634704
sg7
F4.409901752433367
ssS'steplength'
p11
g2
sS'timestamp'
p12
cdatetime
datetime
p13
(S'\x07\xe2\x01\x1f\x141\x0e\rqh'
p14
tp15
Rp16
sS'speed'
p17
g2
sS'cadence'
p18
g2
s.(dp0
S'blood_pressure'
p1
S'no data'
p2
sS'imu_head'
p3
(dp4
S'yaw'
p5
F14.936157830913077
sS'roll'
p6
F15.234816109676714
sS'pitch'
p7
F7.631889351046903
ssS'heart_rate'
p8
F36.18066694034946
sS'imu_torso'
p9
(dp10
g5
F0.017782178134553295
sg6
F12.0225028479129
sg7
F12.154479123135184
ssS'steplength'
p11
g2
sS'timestamp'
p12
cdatetime
datetime
p13
(S'\x07\xe2\x01\x1f\x141\x0f\r} '
p14
tp15
Rp16
sS'speed'
p17
g2
sS'cadence'
p18
g2
s.(dp0
S'blood_pressure'
p1
S'no data'
p2
sS'imu_head'
p3
(dp4
S'yaw'
p5
F18.411718489053758
sS'roll'
p6
F16.775758057395574
sS'pitch'
p7
F18.349203660215874
ssS'heart_rate'
p8
F11.360018941331717
sS'imu_torso'
p9
(dp10
g5
F17.01096692836235
sg6
F3.119176789673972
sg7
F13.822661356554962
ssS'steplength'
p11
g2
sS'timestamp'
p12
cdatetime
datetime
p13
(S'\x07\xe2\x01\x1f\x141\x10\r\x84\xf0'
p14
tp15
Rp16
sS'speed'
p17
g2
sS'cadence'
p18
g2
s.(dp0
S'blood_pressure'
p1
S'no data'
p2
sS'imu_head'
p3
(dp4
S'yaw'
p5
F3.9544249212028126
sS'roll'
p6
F17.271857156687386
sS'pitch'
p7
F12.46977798431984
ssS'heart_rate'
p8
F86.4261272288654
sS'imu_torso'
p9
(dp10
g5
F16.42656013015925
sg6
F7.2580308891117395
sg7
F19.18378921128626
ssS'steplength'
p11
g2
sS'timestamp'
p12
cdatetime
datetime
p13
(S'\x07\xe2\x01\x1f\x141\x11\r\x90\xa8'
p14
tp15
Rp16
sS'speed'
p17
g2
sS'cadence'
p18
g2
s.(dp0
S'blood_pressure'
p1
S'no data'
p2
sS'imu_head'
p3
(dp4
S'yaw'
p5
F0.8086405148733578
sS'roll'
p6
F15.910164006151227
sS'pitch'
p7
F4.904529449994211
ssS'heart_rate'
p8
F64.94514828405815
sS'imu_torso'
p9
(dp10
g5
F8.050705410371554
sg6
F12.720647437248365
sg7
F19.01594870124167
ssS'steplength'
p11
g2
sS'timestamp'
p12
cdatetime
datetime
p13
(S'\x07\xe2\x01\x1f\x141\x12\r\xa0H'
p14
tp15
Rp16
sS'speed'
p17
g2
sS'cadence'
p18
g2
s.(dp0
S'blood_pressure'
p1
S'no data'
p2
sS'imu_head'
p3
(dp4
S'yaw'
p5
F11.032183849177454
sS'roll'
p6
F0.19390189301116578
sS'pitch'
p7
F1.701238179240936
ssS'heart_rate'
p8
F63.964338445220605
sS'imu_torso'
p9
(dp10
g5
F12.49474431301099
sg6
F13.507850840075522
sg7
F10.669743103991625
ssS'steplength'
p11
g2
sS'timestamp'
p12
cdatetime
datetime
p13
(S'\x07\xe2\x01\x1f\x141\x13\r\xa8\x18'
p14
tp15
Rp16
sS'speed'
p17
g2
sS'cadence'
p18
g2
s.(dp0
S'blood_pressure'
p1
S'no data'
p2
sS'imu_head'
p3
(dp4
S'yaw'
p5
F5.1055972601857125
sS'roll'
p6
F8.12261595487577
sS'pitch'
p7
F14.240824115246383
ssS'heart_rate'
p8
F35.579662388233544
sS'imu_torso'
p9
(dp10
g5
F14.313707772347428
sg6
F10.11070815603442
sg7
F7.649259193811528
ssS'steplength'
p11
g2
sS'timestamp'
p12
cdatetime
datetime
p13
(S'\x07\xe2\x01\x1f\x141\x14\r\xb3\xd0'
p14
tp15
Rp16
sS'speed'
p17
g2
sS'cadence'
p18
g2
s.(dp0
S'blood_pressure'
p1
S'no data'
p2
sS'imu_head'
p3
(dp4
S'yaw'
p5
F5.958069476334371
sS'roll'
p6
F7.91996791919016
sS'pitch'
p7
F9.003336114288045
ssS'heart_rate'
p8
F2.8783048076361784
sS'imu_torso'
p9
(dp10
g5
F19.659603190018352
sg6
F11.844178900361618
sg7
F13.487135175123925
ssS'steplength'
p11
g2
sS'timestamp'
p12
cdatetime
datetime
p13
(S'\x07\xe2\x01\x1f\x141\x15\r\xbf\x88'
p14
tp15
Rp16
sS'speed'
p17
g2
sS'cadence'
p18
g2
s.(dp0
S'blood_pressure'
p1
S'no data'
p2
sS'imu_head'
p3
(dp4
S'yaw'
p5
F9.283187233487356
sS'roll'
p6
F19.021644333579857
sS'pitch'
p7
F15.860440400744064
ssS'heart_rate'
p8
F35.515790335090195
sS'imu_torso'
p9
(dp10
g5
F7.374951885137073
sg6
F5.143952008972656
sg7
F8.922021697583741
ssS'steplength'
p11
g2
sS'timestamp'
p12
cdatetime
datetime
p13
(S'\x07\xe2\x01\x1f\x141\x16\r\xcb@'
p14
tp15
Rp16
sS'speed'
p17
g2
sS'cadence'
p18
g2
s.(dp0
S'blood_pressure'
p1
S'no data'
p2
sS'imu_head'
p3
(dp4
S'yaw'
p5
F6.144047223096891
sS'roll'
p6
F11.678989182818171
sS'pitch'
p7
F8.290505788975667
ssS'heart_rate'
p8
F86.2815596045931
sS'imu_torso'
p9
(dp10
g5
F6.61968408086193
sg6
F1.9224441125835723
sg7
F1.0770180585883438
ssS'steplength'
p11
g2
sS'timestamp'
p12
cdatetime
datetime
p13
(S'\x07\xe2\x01\x1f\x141\x17\r\xe6\x98'
p14
tp15
Rp16
sS'speed'
p17
g2
sS'cadence'
p18
g2
s.(dp0
S'blood_pressure'
p1
S'no data'
p2
sS'imu_head'
p3
(dp4
S'yaw'
p5
F8.948688375139648
sS'roll'
p6
F11.363157264596593
sS'pitch'
p7
F17.650885066051774
ssS'heart_rate'
p8
F10.368919875576044
sS'imu_torso'
p9
(dp10
g5
F18.280210837613105
sg6
F17.1102176259341
sg7
F14.533776724214446
ssS'steplength'
p11
g2
sS'timestamp'
p12
cdatetime
datetime
p13
(S'\x07\xe2\x01\x1f\x141\x18\r\xf2P'
p14
tp15
Rp16
sS'speed'
p17
g2
sS'cadence'
p18
g2
s.(dp0
S'blood_pressure'
p1
S'no data'
p2
sS'imu_head'
p3
(dp4
S'yaw'
p5
F18.6050241151993
sS'roll'
p6
F10.399351146938718
sS'pitch'
p7
F2.7594881804512372
ssS'heart_rate'
p8
F63.01275610902849
sS'imu_torso'
p9
(dp10
g5
F14.267160439441117
sg6
F4.4534795661225
sg7
F6.930736276004204
ssS'steplength'
p11
g2
sS'timestamp'
p12
cdatetime
datetime
p13
(S'\x07\xe2\x01\x1f\x141\x19\r\xfe\x08'
p14
tp15
Rp16
sS'speed'
p17
g2
sS'cadence'
p18
g2
s.(dp0
S'blood_pressure'
p1
S'no data'
p2
sS'imu_head'
p3
(dp4
S'yaw'
p5
F7.91681947018128
sS'roll'
p6
F16.24139090614747
sS'pitch'
p7
F19.188741215179398
ssS'heart_rate'
p8
F24.578868924285004
sS'imu_torso'
p9
(dp10
g5
F15.52579068361293
sg6
F13.69395339530823
sg7
F11.079349294558012
ssS'steplength'
p11
g2
sS'timestamp'
p12
cdatetime
datetime
p13
(S'\x07\xe2\x01\x1f\x141\x1a\x0e\r\xa8'
p14
tp15
Rp16
sS'speed'
p17
g2
sS'cadence'
p18
g2
s.(dp0
S'blood_pressure'
p1
S'no data'
p2
sS'imu_head'
p3
(dp4
S'yaw'
p5
F1.3690386598075954
sS'roll'
p6
F6.27472160749104
sS'pitch'
p7
F16.847744051213564
ssS'heart_rate'
p8
F70.76022159700926
sS'imu_torso'
p9
(dp10
g5
F9.796864280383454
sg6
F14.890596608189828
sg7
F9.09432778192149
ssS'steplength'
p11
g2
sS'timestamp'
p12
cdatetime
datetime
p13
(S'\x07\xe2\x01\x1f\x141\x1b\x0e%\x18'
p14
tp15
Rp16
sS'speed'
p17
g2
sS'cadence'
p18
g2
s.(dp0
S'blood_pressure'
p1
S'no data'
p2
sS'imu_head'
p3
(dp4
S'yaw'
p5
F4.851191941330173
sS'roll'
p6
F13.105432406331005
sS'pitch'
p7
F12.357216621234306
ssS'heart_rate'
p8
F75.5173473743344
sS'imu_torso'
p9
(dp10
g5
F3.157635801895944
sg6
F1.5629926734446498
sg7
F19.851312073588623
ssS'steplength'
p11
g2
sS'timestamp'
p12
cdatetime
datetime
p13
(S'\x07\xe2\x01\x1f\x141\x1c\x0e,\xe8'
p14
tp15
Rp16
sS'speed'
p17
g2
sS'cadence'
p18
g2
s.(dp0
S'blood_pressure'
p1
S'no data'
p2
sS'imu_head'
p3
(dp4
S'yaw'
p5
F19.632491462661697
sS'roll'
p6
F15.244448208895683
sS'pitch'
p7
F8.051692911318746
ssS'heart_rate'
p8
F75.72799741278759
sS'imu_torso'
p9
(dp10
g5
F16.035231694770317
sg6
F12.144850172151255
sg7
F9.984049904483909
ssS'steplength'
p11
g2
sS'timestamp'
p12
cdatetime
datetime
p13
(S'\x07\xe2\x01\x1f\x141\x1d\x0e8\xa0'
p14
tp15
Rp16
sS'speed'
p17
g2
sS'cadence'
p18
g2
s.(dp0
S'blood_pressure'
p1
S'no data'
p2
sS'imu_head'
p3
(dp4
S'yaw'
p5
F4.323636061626559
sS'roll'
p6
F8.041095533593513
sS'pitch'
p7
F0.039476969216023505
ssS'heart_rate'
p8
F37.8169015915274
sS'imu_torso'
p9
(dp10
g5
F13.760236381424086
sg6
F14.084204947545295
sg7
F15.356237514787106
ssS'steplength'
p11
g2
sS'timestamp'
p12
cdatetime
datetime
p13
(S'\x07\xe2\x01\x1f\x141\x1e\x0eH@'
p14
tp15
Rp16
sS'speed'
p17
g2
sS'cadence'
p18
g2
s.(dp0
S'blood_pressure'
p1
S'no data'
p2
sS'imu_head'
p3
(dp4
S'yaw'
p5
F4.677751165615984
sS'roll'
p6
F12.621074772350395
sS'pitch'
p7
F16.409442354895337
ssS'heart_rate'
p8
F70.85695712939493
sS'imu_torso'
p9
(dp10
g5
F9.091906685873752
sg6
F7.803698539433535
sg7
F11.69097852559001
ssS'steplength'
p11
g2
sS'timestamp'
p12
cdatetime
datetime
p13
(S'\x07\xe2\x01\x1f\x141\x1f\x0ec\x98'
p14
tp15
Rp16
sS'speed'
p17
g2
sS'cadence'
p18
g2
s.(dp0
S'blood_pressure'
p1
S'no data'
p2
sS'imu_head'
p3
(dp4
S'yaw'
p5
F19.225882148462976
sS'roll'
p6
F2.9859068139784317
sS'pitch'
p7
F3.636680400160901
ssS'heart_rate'
p8
F42.108080693952864
sS'imu_torso'
p9
(dp10
g5
F3.4410578626956245
sg6
F12.916887117034008
sg7
F0.18145525191600953
ssS'steplength'
p11
g2
sS'timestamp'
p12
cdatetime
datetime
p13
(S'\x07\xe2\x01\x1f\x141 \x0ekh'
p14
tp15
Rp16
sS'speed'
p17
g2
sS'cadence'
p18
g2
s.(dp0
S'blood_pressure'
p1
S'no data'
p2
sS'imu_head'
p3
(dp4
S'yaw'
p5
F8.650786818692524
sS'roll'
p6
F7.959847669452282
sS'pitch'
p7
F11.167396634242998
ssS'heart_rate'
p8
F35.91125462962298
sS'imu_torso'
p9
(dp10
g5
F19.32410667524486
sg6
F10.1655160964947
sg7
F16.77239637026865
ssS'steplength'
p11
g2
sS'timestamp'
p12
cdatetime
datetime
p13
(S'\x07\xe2\x01\x1f\x141!\x0es8'
p14
tp15
Rp16
sS'speed'
p17
g2
sS'cadence'
p18
g2
s.(dp0
S'blood_pressure'
p1
S'no data'
p2
sS'imu_head'
p3
(dp4
S'yaw'
p5
F4.645761748903494
sS'roll'
p6
F11.36805419151603
sS'pitch'
p7
F5.428076550174177
ssS'heart_rate'
p8
F15.228211477172826
sS'imu_torso'
p9
(dp10
g5
F1.1679631526509815
sg6
F4.341054268956688
sg7
F5.431435436055569
ssS'steplength'
p11
g2
sS'timestamp'
p12
cdatetime
datetime
p13
(S'\x07\xe2\x01\x1f\x141"\x0e~\xf0'
p14
tp15
Rp16
sS'speed'
p17
g2
sS'cadence'
p18
g2
s.(dp0
S'blood_pressure'
p1
S'no data'
p2
sS'imu_head'
p3
(dp4
S'yaw'
p5
F5.136339202577485
sS'roll'
p6
F16.780855903738164
sS'pitch'
p7
F10.0712959524271
ssS'heart_rate'
p8
F77.8669018437914
sS'imu_torso'
p9
(dp10
g5
F15.869772526119725
sg6
F2.627561836214054
sg7
F0.6516588104020826
ssS'steplength'
p11
g2
sS'timestamp'
p12
cdatetime
datetime
p13
(S'\x07\xe2\x01\x1f\x141#\x0e\x8a\xa8'
p14
tp15
Rp16
sS'speed'
p17
g2
sS'cadence'
p18
g2
s.(dp0
S'blood_pressure'
p1
S'no data'
p2
sS'imu_head'
p3
(dp4
S'yaw'
p5
F17.486156983081585
sS'roll'
p6
F15.13814603179802
sS'pitch'
p7
F16.31644144247581
ssS'heart_rate'
p8
F21.114095134020992
sS'imu_torso'
p9
(dp10
g5
F5.762610300370015
sg6
F10.303811306293793
sg7
F18.45051022343843
ssS'steplength'
p11
g2
sS'timestamp'
p12
cdatetime
datetime
p13
(S'\x07\xe2\x01\x1f\x141$\x0e\xa2\x18'
p14
tp15
Rp16
sS'speed'
p17
g2
sS'cadence'
p18
g2
s.(dp0
S'blood_pressure'
p1
S'no data'
p2
sS'imu_head'
p3
(dp4
S'yaw'
p5
F6.829679040325467
sS'roll'
p6
F19.064798651308028
sS'pitch'
p7
F10.664260518158745
ssS'heart_rate'
p8
F2.3201083811979495
sS'imu_torso'
p9
(dp10
g5
F3.2554447924517427
sg6
F11.432075189414071
sg7
F16.92262655408985
ssS'steplength'
p11
g2
sS'timestamp'
p12
cdatetime
datetime
p13
(S'\x07\xe2\x01\x1f\x141%\x0e\xad\xd0'
p14
tp15
Rp16
sS'speed'
p17
g2
sS'cadence'
p18
g2
s.(dp0
S'blood_pressure'
p1
S'no data'
p2
sS'imu_head'
p3
(dp4
S'yaw'
p5
F0.4640210795569577
sS'roll'
p6
F16.126749133570456
sS'pitch'
p7
F19.080952753950214
ssS'heart_rate'
p8
F47.21417814429296
sS'imu_torso'
p9
(dp10
g5
F14.478692799221605
sg6
F17.997214768443463
sg7
F1.8683632882162748
ssS'steplength'
p11
g2
sS'timestamp'
p12
cdatetime
datetime
p13
(S'\x07\xe2\x01\x1f\x141&\x0e\xb9\x88'
p14
tp15
Rp16
sS'speed'
p17
g2
sS'cadence'
p18
g2
s.(dp0
S'blood_pressure'
p1
S'no data'
p2
sS'imu_head'
p3
(dp4
S'yaw'
p5
F16.47153062837001
sS'roll'
p6
F5.653326709577118
sS'pitch'
p7
F2.755434579838789
ssS'heart_rate'
p8
F28.992220629824097
sS'imu_torso'
p9
(dp10
g5
F13.47406160314682
sg6
F17.4855554799296
sg7
F1.538700668570434
ssS'steplength'
p11
g2
sS'timestamp'
p12
cdatetime
datetime
p13
(S"\x07\xe2\x01\x1f\x141'\x0e\xc9("
p14
tp15
Rp16
sS'speed'
p17
g2
sS'cadence'
p18
g2
s.(dp0
S'blood_pressure'
p1
S'no data'
p2
sS'imu_head'
p3
(dp4
S'yaw'
p5
F14.348852778541286
sS'roll'
p6
F3.499899414877201
sS'pitch'
p7
F14.387299602365417
ssS'heart_rate'
p8
F12.375927840453393
sS'imu_torso'
p9
(dp10
g5
F19.19193302288243
sg6
F3.567645027708366
sg7
F10.112992680828178
ssS'steplength'
p11
g2
sS'timestamp'
p12
cdatetime
datetime
p13
(S'\x07\xe2\x01\x1f\x141(\x0e\xd8\xc8'
p14
tp15
Rp16
sS'speed'
p17
g2
sS'cadence'
p18
g2
s.(dp0
S'blood_pressure'
p1
S'no data'
p2
sS'imu_head'
p3
(dp4
S'yaw'
p5
F7.019273646741027
sS'roll'
p6
F5.876173177737851
sS'pitch'
p7
F17.436014588021724
ssS'heart_rate'
p8
F23.057766316420082
sS'imu_torso'
p9
(dp10
g5
F2.8737845121579153
sg6
F1.6088838387224969
sg7
F0.22226484393830903
ssS'steplength'
p11
g2
sS'timestamp'
p12
cdatetime
datetime
p13
(S'\x07\xe2\x01\x1f\x141)\x0e\xe0\x98'
p14
tp15
Rp16
sS'speed'
p17
g2
sS'cadence'
p18
g2
s.(dp0
S'blood_pressure'
p1
S'no data'
p2
sS'imu_head'
p3
(dp4
S'yaw'
p5
F10.40878355905849
sS'roll'
p6
F14.823029019261856
sS'pitch'
p7
F2.150652695719948
ssS'heart_rate'
p8
F75.98685876763919
sS'imu_torso'
p9
(dp10
g5
F0.01661240171327849
sg6
F0.9913277851891222
sg7
F13.534042212205762
ssS'steplength'
p11
g2
sS'timestamp'
p12
cdatetime
datetime
p13
(S'\x07\xe2\x01\x1f\x141*\x0e\xf08'
p14
tp15
Rp16
sS'speed'
p17
g2
sS'cadence'
p18
g2
s.(dp0
S'blood_pressure'
p1
S'no data'
p2
sS'imu_head'
p3
(dp4
S'yaw'
p5
F11.06768548335082
sS'roll'
p6
F11.271479191603719
sS'pitch'
p7
F11.500598088256371
ssS'heart_rate'
p8
F68.29264219901539
sS'imu_torso'
p9
(dp10
g5
F10.960496152672176
sg6
F19.807216357512957
sg7
F8.016083002955108
ssS'steplength'
p11
g2
sS'timestamp'
p12
cdatetime
datetime
p13
(S'\x07\xe2\x01\x1f\x141+\x0e\xfb\xf0'
p14
tp15
Rp16
sS'speed'
p17
g2
sS'cadence'
p18
g2
s.(dp0
S'blood_pressure'
p1
S'no data'
p2
sS'imu_head'
p3
(dp4
S'yaw'
p5
F7.999716166177382
sS'roll'
p6
F10.506123800453558
sS'pitch'
p7
F14.717292576947345
ssS'heart_rate'
p8
F93.06276171543315
sS'imu_torso'
p9
(dp10
g5
F9.087095278053637
sg6
F3.743812844074086
sg7
F11.77765572867921
ssS'steplength'
p11
g2
sS'timestamp'
p12
cdatetime
datetime
p13
(S'\x07\xe2\x01\x1f\x141,\x0f\x03\xc0'
p14
tp15
Rp16
sS'speed'
p17
g2
sS'cadence'
p18
g2
s.(dp0
S'blood_pressure'
p1
S'no data'
p2
sS'imu_head'
p3
(dp4
S'yaw'
p5
F8.56324848743627
sS'roll'
p6
F5.719970045421288
sS'pitch'
p7
F13.575220939401465
ssS'heart_rate'
p8
F38.43797301525574
sS'imu_torso'
p9
(dp10
g5
F10.036565470870261
sg6
F19.38577373662526
sg7
F4.377172383153079
ssS'steplength'
p11
g2
sS'timestamp'
p12
cdatetime
datetime
p13
(S'\x07\xe2\x01\x1f\x141-\x0f\x13`'
p14
tp15
Rp16
sS'speed'
p17
g2
sS'cadence'
p18
g2
s.(dp0
S'blood_pressure'
p1
S'no data'
p2
sS'imu_head'
p3
(dp4
S'yaw'
p5
F17.567034461626868
sS'roll'
p6
F15.841255190040808
sS'pitch'
p7
F2.7899829902158535
ssS'heart_rate'
p8
F67.64676267048961
sS'imu_torso'
p9
(dp10
g5
F17.73875689905494
sg6
F16.81206827733329
sg7
F18.25708090165769
ssS'steplength'
p11
g2
sS'timestamp'
p12
cdatetime
datetime
p13
(S'\x07\xe2\x01\x1f\x141.\x0f\x1f\x18'
p14
tp15
Rp16
sS'speed'
p17
g2
sS'cadence'
p18
g2
s.(dp0
S'blood_pressure'
p1
S'no data'
p2
sS'imu_head'
p3
(dp4
S'yaw'
p5
F4.217605911479376
sS'roll'
p6
F6.145536762893071
sS'pitch'
p7
F10.88684679246729
ssS'heart_rate'
p8
F19.941352706803862
sS'imu_torso'
p9
(dp10
g5
F2.1809539268997513
sg6
F3.8833099433469553
sg7
F1.7923346899115589
ssS'steplength'
p11
g2
sS'timestamp'
p12
cdatetime
datetime
p13
(S'\x07\xe2\x01\x1f\x141/\x0f&\xe8'
p14
tp15
Rp16
sS'speed'
p17
g2
sS'cadence'
p18
g2
s.(dp0
S'blood_pressure'
p1
S'no data'
p2
sS'imu_head'
p3
(dp4
S'yaw'
p5
F10.448299205038584
sS'roll'
p6
F8.877800428467753
sS'pitch'
p7
F16.02481038901085
ssS'heart_rate'
p8
F68.61479564805664
sS'imu_torso'
p9
(dp10
g5
F13.304533999041912
sg6
F19.154729921379236
sg7
F5.122937717460991
ssS'steplength'
p11
g2
sS'timestamp'
p12
cdatetime
datetime
p13
(S'\x07\xe2\x01\x1f\x1410\x0f2\xa0'
p14
tp15
Rp16
sS'speed'
p17
g2
sS'cadence'
p18
g2
s.(dp0
S'blood_pressure'
p1
S'no data'
p2
sS'imu_head'
p3
(dp4
S'yaw'
p5
F6.9160049690028185
sS'roll'
p6
F16.858638157378667
sS'pitch'
p7
F9.706663365993514
ssS'heart_rate'
p8
F21.192367211634778
sS'imu_torso'
p9
(dp10
g5
F13.09380113143508
sg6
F13.328555744657212
sg7
F14.053590198348031
ssS'steplength'
p11
g2
sS'timestamp'
p12
cdatetime
datetime
p13
(S'\x07\xe2\x01\x1f\x1412\x00\x17p'
p14
tp15
Rp16
sS'speed'
p17
g2
sS'cadence'
p18
g2
s.(dp0
S'blood_pressure'
p1
S'no data'
p2
sS'imu_head'
p3
(dp4
S'yaw'
p5
F13.081759534468937
sS'roll'
p6
F1.608500274459146
sS'pitch'
p7
F10.611377730291508
ssS'heart_rate'
p8
F6.63099915460712
sS'imu_torso'
p9
(dp10
g5
F15.693650374882198
sg6
F9.049696310976817
sg7
F7.327002604086735
ssS'steplength'
p11
g2
sS'timestamp'
p12
cdatetime
datetime
p13
(S'\x07\xe2\x01\x1f\x1413\x00.\xe0'
p14
tp15
Rp16
sS'speed'
p17
g2
sS'cadence'
p18
g2
s.(dp0
S'blood_pressure'
p1
S'no data'
p2
sS'imu_head'
p3
(dp4
S'yaw'
p5
F5.001984056152966
sS'roll'
p6
F14.204685826519867
sS'pitch'
p7
F3.3071579495496506
ssS'heart_rate'
p8
F29.566993462784996
sS'imu_torso'
p9
(dp10
g5
F12.213725028400184
sg6
F18.109977999267134
sg7
F12.742221305356377
ssS'steplength'
p11
g2
sS'timestamp'
p12
cdatetime
datetime
p13
(S'\x07\xe2\x01\x1f\x1414\x00:\x98'
p14
tp15
Rp16
sS'speed'
p17
g2
sS'cadence'
p18
g2
s.(dp0
S'blood_pressure'
p1
S'no data'
p2
sS'imu_head'
p3
(dp4
S'yaw'
p5
F0.11667086667763948
sS'roll'
p6
F13.639319467029543
sS'pitch'
p7
F8.135441141367458
ssS'heart_rate'
p8
F18.34900867489938
sS'imu_torso'
p9
(dp10
g5
F2.6475094476079564
sg6
F1.6564888183284499
sg7
F7.937076688469899
ssS'steplength'
p11
g2
sS'timestamp'
p12
cdatetime
datetime
p13
(S'\x07\xe2\x01\x1f\x1415\x00FP'
p14
tp15
Rp16
sS'speed'
p17
g2
sS'cadence'
p18
g2
s.(dp0
S'blood_pressure'
p1
S'no data'
p2
sS'imu_head'
p3
(dp4
S'yaw'
p5
F5.565945011659837
sS'roll'
p6
F4.415911245954933
sS'pitch'
p7
F17.38212770338692
ssS'heart_rate'
p8
F21.20566917751383
sS'imu_torso'
p9
(dp10
g5
F14.558427878620579
sg6
F3.7447907515880186
sg7
F5.992721601770921
ssS'steplength'
p11
g2
sS'timestamp'
p12
cdatetime
datetime
p13
(S'\x07\xe2\x01\x1f\x1416\x00a\xa8'
p14
tp15
Rp16
sS'speed'
p17
g2
sS'cadence'
p18
g2
s.(dp0
S'blood_pressure'
p1
S'no data'
p2
sS'imu_head'
p3
(dp4
S'yaw'
p5
F11.376745207113359
sS'roll'
p6
F13.097398076935347
sS'pitch'
p7
F7.809683597515682
ssS'heart_rate'
p8
F17.822250843399136
sS'imu_torso'
p9
(dp10
g5
F11.0314018753634
sg6
F0.2299607942604731
sg7
F19.153428907047292
ssS'steplength'
p11
g2
sS'timestamp'
p12
cdatetime
datetime
p13
(S'\x07\xe2\x01\x1f\x1417\x00m`'
p14
tp15
Rp16
sS'speed'
p17
g2
sS'cadence'
p18
g2
s.(dp0
S'blood_pressure'
p1
S'no data'
p2
sS'imu_head'
p3
(dp4
S'yaw'
p5
F6.562226177636916
sS'roll'
p6
F11.013176326642197
sS'pitch'
p7
F11.295077571997803
ssS'heart_rate'
p8
F38.19823215085434
sS'imu_torso'
p9
(dp10
g5
F12.497350495782364
sg6
F3.6318463872115103
sg7
F14.966245732555182
ssS'steplength'
p11
g2
sS'timestamp'
p12
cdatetime
datetime
p13
(S'\x07\xe2\x01\x1f\x1418\x00u0'
p14
tp15
Rp16
sS'speed'
p17
g2
sS'cadence'
p18
g2
s.(dp0
S'blood_pressure'
p1
S'no data'
p2
sS'imu_head'
p3
(dp4
S'yaw'
p5
F9.782832643646941
sS'roll'
p6
F5.786808154801248
sS'pitch'
p7
F15.096976357745358
ssS'heart_rate'
p8
F33.27295875359246
sS'imu_torso'
p9
(dp10
g5
F10.289175356090173
sg6
F16.720971737943007
sg7
F2.976508819151109
ssS'steplength'
p11
g2
sS'timestamp'
p12
cdatetime
datetime
p13
(S'\x07\xe2\x01\x1f\x1419\x00}\x00'
p14
tp15
Rp16
sS'speed'
p17
g2
sS'cadence'
p18
g2
s.(dp0
S'blood_pressure'
p1
S'no data'
p2
sS'imu_head'
p3
(dp4
S'yaw'
p5
F16.290720077306883
sS'roll'
p6
F5.268179228090741
sS'pitch'
p7
F18.798405525378246
ssS'heart_rate'
p8
F35.77413183570115
sS'imu_torso'
p9
(dp10
g5
F12.340120881175068
sg6
F15.48135002141796
sg7
F18.298028428875387
ssS'steplength'
p11
g2
sS'timestamp'
p12
cdatetime
datetime
p13
(S'\x07\xe2\x01\x1f\x141:\x00\x98X'
p14
tp15
Rp16
sS'speed'
p17
g2
sS'cadence'
p18
g2
s.(dp0
S'blood_pressure'
p1
S'no data'
p2
sS'imu_head'
p3
(dp4
S'yaw'
p5
F10.612827401101473
sS'roll'
p6
F2.2451016217403685
sS'pitch'
p7
F13.297824817901091
ssS'heart_rate'
p8
F98.93067308495553
sS'imu_torso'
p9
(dp10
g5
F18.950951605814396
sg6
F17.72671475571406
sg7
F11.982259045052704
ssS'steplength'
p11
g2
sS'timestamp'
p12
cdatetime
datetime
p13
(S'\x07\xe2\x01\x1f\x141;\x00\xa0('
p14
tp15
Rp16
sS'speed'
p17
g2
sS'cadence'
p18
g2
s.(dp0
S'blood_pressure'
p1
S'no data'
p2
sS'imu_head'
p3
(dp4
S'yaw'
p5
F12.33628656949828
sS'roll'
p6
F13.652596937965402
sS'pitch'
p7
F13.128434724467306
ssS'heart_rate'
p8
F4.26785285296557
sS'imu_torso'
p9
(dp10
g5
F9.131921974776493
sg6
F14.702712750956145
sg7
F4.9610555330345925
ssS'steplength'
p11
g2
sS'timestamp'
p12
cdatetime
datetime
p13
(S'\x07\xe2\x01\x1f\x142\x00\x00\xab\xe0'
p14
tp15
Rp16
sS'speed'
p17
g2
sS'cadence'
p18
g2
s.(dp0
S'blood_pressure'
p1
S'no data'
p2
sS'imu_head'
p3
(dp4
S'yaw'
p5
F0.2739827192143407
sS'roll'
p6
F13.018660784436326
sS'pitch'
p7
F7.124212552484977
ssS'heart_rate'
p8
F75.04953483843988
sS'imu_torso'
p9
(dp10
g5
F4.739024153888134
sg6
F5.714357407094857
sg7
F6.41178035077356
ssS'steplength'
p11
g2
sS'timestamp'
p12
cdatetime
datetime
p13
(S'\x07\xe2\x01\x1f\x142\x01\x00\xb7\x98'
p14
tp15
Rp16
sS'speed'
p17
g2
sS'cadence'
p18
g2
s.(dp0
S'blood_pressure'
p1
S'no data'
p2
sS'imu_head'
p3
(dp4
S'yaw'
p5
F5.541848503009181
sS'roll'
p6
F15.06271649307526
sS'pitch'
p7
F5.73343028658587
ssS'heart_rate'
p8
F11.449849470383878
sS'imu_torso'
p9
(dp10
g5
F5.582026009010814
sg6
F4.84674486049
sg7
F9.833756141891994
ssS'steplength'
p11
g2
sS'timestamp'
p12
cdatetime
datetime
p13
(S'\x07\xe2\x01\x1f\x142\x02\x00\xbfh'
p14
tp15
Rp16
sS'speed'
p17
g2
sS'cadence'
p18
g2
s.(dp0
S'blood_pressure'
p1
S'no data'
p2
sS'imu_head'
p3
(dp4
S'yaw'
p5
F19.318193935053248
sS'roll'
p6
F13.805030505902993
sS'pitch'
p7
F5.154085635151391
ssS'heart_rate'
p8
F64.74444366180718
sS'imu_torso'
p9
(dp10
g5
F13.551571441500244
sg6
F11.516297216808054
sg7
F2.4195623024227553
ssS'steplength'
p11
g2
sS'timestamp'
p12
cdatetime
datetime
p13
(S'\x07\xe2\x01\x1f\x142\x03\x00\xcb '
p14
tp15
Rp16
sS'speed'
p17
g2
sS'cadence'
p18
g2
s.(dp0
S'blood_pressure'
p1
S'no data'
p2
sS'imu_head'
p3
(dp4
S'yaw'
p5
F8.430892662372784
sS'roll'
p6
F19.417027776948096
sS'pitch'
p7
F13.09621906227864
ssS'heart_rate'
p8
F99.18655475321758
sS'imu_torso'
p9
(dp10
g5
F19.124774624221963
sg6
F1.7615834067930614
sg7
F2.135255906717639
ssS'steplength'
p11
g2
sS'timestamp'
p12
cdatetime
datetime
p13
(S'\x07\xe2\x01\x1f\x142\x04\x00\xd2\xf0'
p14
tp15
Rp16
sS'speed'
p17
g2
sS'cadence'
p18
g2
s.(dp0
S'blood_pressure'
p1
S'no data'
p2
sS'imu_head'
p3
(dp4
S'yaw'
p5
F16.396955216224036
sS'roll'
p6
F15.462545640081553
sS'pitch'
p7
F14.046539106362012
ssS'heart_rate'
p8
F50.32318297021838
sS'imu_torso'
p9
(dp10
g5
F19.64334560649722
sg6
F0.29576900404082007
sg7
F12.476185200251974
ssS'steplength'
p11
g2
sS'timestamp'
p12
cdatetime
datetime
p13
(S'\x07\xe2\x01\x1f\x142\x05\x00\xeeH'
p14
tp15
Rp16
sS'speed'
p17
g2
sS'cadence'
p18
g2
s.(dp0
S'blood_pressure'
p1
S'no data'
p2
sS'imu_head'
p3
(dp4
S'yaw'
p5
F5.319137657108248
sS'roll'
p6
F11.924536589344385
sS'pitch'
p7
F2.4278974241910922
ssS'heart_rate'
p8
F66.31607386691608
sS'imu_torso'
p9
(dp10
g5
F8.529821895817003
sg6
F17.868376135849566
sg7
F0.3370480202231718
ssS'steplength'
p11
g2
sS'timestamp'
p12
cdatetime
datetime
p13
(S'\x07\xe2\x01\x1f\x142\x06\x00\xfd\xe8'
p14
tp15
Rp16
sS'speed'
p17
g2
sS'cadence'
p18
g2
s.(dp0
S'blood_pressure'
p1
S'no data'
p2
sS'imu_head'
p3
(dp4
S'yaw'
p5
F10.276779012856414
sS'roll'
p6
F6.210731935758567
sS'pitch'
p7
F2.5825792643377787
ssS'heart_rate'
p8
F97.63276672491988
sS'imu_torso'
p9
(dp10
g5
F13.467310520354179
sg6
F1.9734831011184983
sg7
F8.947270649461693
ssS'steplength'
p11
g2
sS'timestamp'
p12
cdatetime
datetime
p13
(S'\x07\xe2\x01\x1f\x142\x07\x01\r\x88'
p14
tp15
Rp16
sS'speed'
p17
g2
sS'cadence'
p18
g2
s.(dp0
S'blood_pressure'
p1
S'no data'
p2
sS'imu_head'
p3
(dp4
S'yaw'
p5
F15.217884237431985
sS'roll'
p6
F8.465315279212852
sS'pitch'
p7
F1.981873329625654
ssS'heart_rate'
p8
F3.963180040765424
sS'imu_torso'
p9
(dp10
g5
F7.788317498413495
sg6
F17.94689851423942
sg7
F2.7774030573727337
ssS'steplength'
p11
g2
sS'timestamp'
p12
cdatetime
datetime
p13
(S'\x07\xe2\x01\x1f\x142\x08\x01\x1d('
p14
tp15
Rp16
sS'speed'
p17
g2
sS'cadence'
p18
g2
s.(dp0
S'blood_pressure'
p1
S'no data'
p2
sS'imu_head'
p3
(dp4
S'yaw'
p5
F6.739999668850438
sS'roll'
p6
F3.630937832104897
sS'pitch'
p7
F16.264296541272948
ssS'heart_rate'
p8
F11.707578525301832
sS'imu_torso'
p9
(dp10
g5
F12.391101714657953
sg6
F1.9209421736669485
sg7
F12.688759106522912
ssS'steplength'
p11
g2
sS'timestamp'
p12
cdatetime
datetime
p13
(S'\x07\xe2\x01\x1f\x142\t\x01(\xe0'
p14
tp15
Rp16
sS'speed'
p17
g2
sS'cadence'
p18
g2
s.(dp0
S'blood_pressure'
p1
S'no data'
p2
sS'imu_head'
p3
(dp4
S'yaw'
p5
F18.669419150687652
sS'roll'
p6
F8.961974628061872
sS'pitch'
p7
F7.620740527079725
ssS'heart_rate'
p8
F11.405212814705934
sS'imu_torso'
p9
(dp10
g5
F0.10844394105464783
sg6
F8.149242861859927
sg7
F15.456531084685452
ssS'steplength'
p11
g2
sS'timestamp'
p12
cdatetime
datetime
p13
(S'\x07\xe2\x01\x1f\x142\n\x014\x98'
p14
tp15
Rp16
sS'speed'
p17
g2
sS'cadence'
p18
g2
s.(dp0
S'blood_pressure'
p1
S'no data'
p2
sS'imu_head'
p3
(dp4
S'yaw'
p5
F7.7625375146779785
sS'roll'
p6
F1.9330420143072868
sS'pitch'
p7
F8.429996055980588
ssS'heart_rate'
p8
F46.57050627668681
sS'imu_torso'
p9
(dp10
g5
F18.040408894072574
sg6
F0.6281726613941152
sg7
F18.943849466438184
ssS'steplength'
p11
g2
sS'timestamp'
p12
cdatetime
datetime
p13
(S'\x07\xe2\x01\x1f\x142\x0b\x01<h'
p14
tp15
Rp16
sS'speed'
p17
g2
sS'cadence'
p18
g2
s.(dp0
S'blood_pressure'
p1
S'no data'
p2
sS'imu_head'
p3
(dp4
S'yaw'
p5
F7.664071844012897
sS'roll'
p6
F16.221188990211978
sS'pitch'
p7
F17.648610567019666
ssS'heart_rate'
p8
F27.393040508889843
sS'imu_torso'
p9
(dp10
g5
F8.820082259839776
sg6
F5.683275011125549
sg7
F3.381908318782072
ssS'steplength'
p11
g2
sS'timestamp'
p12
cdatetime
datetime
p13
(S'\x07\xe2\x01\x1f\x142\x0c\x01O\xf0'
p14
tp15
Rp16
sS'speed'
p17
g2
sS'cadence'
p18
g2
s.(dp0
S'blood_pressure'
p1
S'no data'
p2
sS'imu_head'
p3
(dp4
S'yaw'
p5
F13.699021623665185
sS'roll'
p6
F5.493084753881325
sS'pitch'
p7
F1.8959601805785486
ssS'heart_rate'
p8
F26.01312441483915
sS'imu_torso'
p9
(dp10
g5
F15.083853433970129
sg6
F17.36056345422347
sg7
F16.681472981974757
ssS'steplength'
p11
g2
sS'timestamp'
p12
cdatetime
datetime
p13
(S'\x07\xe2\x01\x1f\x142\r\x01W\xc0'
p14
tp15
Rp16
sS'speed'
p17
g2
sS'cadence'
p18
g2
s.(dp0
S'blood_pressure'
p1
S'no data'
p2
sS'imu_head'
p3
(dp4
S'yaw'
p5
F9.543714191223422
sS'roll'
p6
F16.846244753025154
sS'pitch'
p7
F17.413884726230084
ssS'heart_rate'
p8
F18.111781286052363
sS'imu_torso'
p9
(dp10
g5
F6.26694941839186
sg6
F6.4816352502736985
sg7
F11.234344760602756
ssS'steplength'
p11
g2
sS'timestamp'
p12
cdatetime
datetime
p13
(S'\x07\xe2\x01\x1f\x142\x0e\x01_\x90'
p14
tp15
Rp16
sS'speed'
p17
g2
sS'cadence'
p18
g2
s.(dp0
S'blood_pressure'
p1
S'no data'
p2
sS'imu_head'
p3
(dp4
S'yaw'
p5
F6.21618406990744
sS'roll'
p6
F13.155211819917467
sS'pitch'
p7
F0.5202842014178422
ssS'heart_rate'
p8
F6.750606032500562
sS'imu_torso'
p9
(dp10
g5
F3.4628004579104465
sg6
F19.745415531040617
sg7
F9.864671987583185
ssS'steplength'
p11
g2
sS'timestamp'
p12
cdatetime
datetime
p13
(S'\x07\xe2\x01\x1f\x142\x0f\x01kH'
p14
tp15
Rp16
sS'speed'
p17
g2
sS'cadence'
p18
g2
s.(dp0
S'blood_pressure'
p1
S'no data'
p2
sS'imu_head'
p3
(dp4
S'yaw'
p5
F5.621608219294707
sS'roll'
p6
F11.069554163508766
sS'pitch'
p7
F6.778956102844214
ssS'heart_rate'
p8
F88.69507504634576
sS'imu_torso'
p9
(dp10
g5
F15.862122848058926
sg6
F2.174929049535659
sg7
F17.571603938838816
ssS'steplength'
p11
g2
sS'timestamp'
p12
cdatetime
datetime
p13
(S'\x07\xe2\x01\x1f\x142\x10\x01w\x00'
p14
tp15
Rp16
sS'speed'
p17
g2
sS'cadence'
p18
g2
s.(dp0
S'blood_pressure'
p1
S'no data'
p2
sS'imu_head'
p3
(dp4
S'yaw'
p5
F19.690103679592674
sS'roll'
p6
F15.013232446894492
sS'pitch'
p7
F8.338364522302422
ssS'heart_rate'
p8
F11.098451070704908
sS'imu_torso'
p9
(dp10
g5
F12.165218191802701
sg6
F5.1536624918947815
sg7
F3.869017061681481
ssS'steplength'
p11
g2
sS'timestamp'
p12
cdatetime
datetime
p13
(S'\x07\xe2\x01\x1f\x142\x11\x01\x82\xb8'
p14
tp15
Rp16
sS'speed'
p17
g2
sS'cadence'
p18
g2
s.(dp0
S'blood_pressure'
p1
S'no data'
p2
sS'imu_head'
p3
(dp4
S'yaw'
p5
F2.528180418922119
sS'roll'
p6
F2.149686753932454
sS'pitch'
p7
F0.3563873953544783
ssS'heart_rate'
p8
F71.68961567266119
sS'imu_torso'
p9
(dp10
g5
F16.547953503732188
sg6
F15.508279225224166
sg7
F17.338595975692108
ssS'steplength'
p11
g2
sS'timestamp'
p12
cdatetime
datetime
p13
(S'\x07\xe2\x01\x1f\x142\x12\x01\xa9\xc8'
p14
tp15
Rp16
sS'speed'
p17
g2
sS'cadence'
p18
g2
s.(dp0
S'blood_pressure'
p1
S'no data'
p2
sS'imu_head'
p3
(dp4
S'yaw'
p5
F4.248648527023193
sS'roll'
p6
F17.691875708083188
sS'pitch'
p7
F15.66091088959606
ssS'heart_rate'
p8
F18.760810520219696
sS'imu_torso'
p9
(dp10
g5
F14.705026376611096
sg6
F9.330687278576725
sg7
F14.380706930854183
ssS'steplength'
p11
g2
sS'timestamp'
p12
cdatetime
datetime
p13
(S'\x07\xe2\x01\x1f\x142\x13\x01\xb5\x80'
p14
tp15
Rp16
sS'speed'
p17
g2
sS'cadence'
p18
g2
s.(dp0
S'blood_pressure'
p1
S'no data'
p2
sS'imu_head'
p3
(dp4
S'yaw'
p5
F17.184415378350128
sS'roll'
p6
F13.631214870733166
sS'pitch'
p7
F15.545148094485095
ssS'heart_rate'
p8
F41.599255661510945
sS'imu_torso'
p9
(dp10
g5
F9.115141103845055
sg6
F3.324448522986594
sg7
F13.87969930005664
ssS'steplength'
p11
g2
sS'timestamp'
p12
cdatetime
datetime
p13
(S'\x07\xe2\x01\x1f\x142\x14\x01\xb9h'
p14
tp15
Rp16
sS'speed'
p17
g2
sS'cadence'
p18
g2
s.(dp0
S'blood_pressure'
p1
S'no data'
p2
sS'imu_head'
p3
(dp4
S'yaw'
p5
F16.34372105583885
sS'roll'
p6
F0.6912883585895768
sS'pitch'
p7
F8.28853174920954
ssS'heart_rate'
p8
F70.87632147869566
sS'imu_torso'
p9
(dp10
g5
F9.16729356437781
sg6
F10.118157909732343
sg7
F18.099791429819582
ssS'steplength'
p11
g2
sS'timestamp'
p12
cdatetime
datetime
p13
(S'\x07\xe2\x01\x1f\x142\x15\x01\xd0\xd8'
p14
tp15
Rp16
sS'speed'
p17
g2
sS'cadence'
p18
g2
s.(dp0
S'blood_pressure'
p1
S'no data'
p2
sS'imu_head'
p3
(dp4
S'yaw'
p5
F0.3084179756308414
sS'roll'
p6
F9.468400542521486
sS'pitch'
p7
F17.274006430367614
ssS'heart_rate'
p8
F40.32447087580297
sS'imu_torso'
p9
(dp10
g5
F3.781965565796148
sg6
F2.1230738845502795
sg7
F16.177135693303473
ssS'steplength'
p11
g2
sS'timestamp'
p12
cdatetime
datetime
p13
(S'\x07\xe2\x01\x1f\x142\x16\x01\xe0x'
p14
tp15
Rp16
sS'speed'
p17
g2
sS'cadence'
p18
g2
s.(dp0
S'blood_pressure'
p1
S'no data'
p2
sS'imu_head'
p3
(dp4
S'yaw'
p5
F12.658237420807083
sS'roll'
p6
F19.644278408242542
sS'pitch'
p7
F4.3786132660415955
ssS'heart_rate'
p8
F57.656499362634115
sS'imu_torso'
p9
(dp10
g5
F1.5867752113030353
sg6
F7.746063689809796
sg7
F2.429883361888696
ssS'steplength'
p11
g2
sS'timestamp'
p12
cdatetime
datetime
p13
(S'\x07\xe2\x01\x1f\x142\x17\x01\xe8H'
p14
tp15
Rp16
sS'speed'
p17
g2
sS'cadence'
p18
g2
s.(dp0
S'blood_pressure'
p1
S'no data'
p2
sS'imu_head'
p3
(dp4
S'yaw'
p5
F14.595985738035512
sS'roll'
p6
F12.830973802045795
sS'pitch'
p7
F2.7241693864801353
ssS'heart_rate'
p8
F60.473664854941525
sS'imu_torso'
p9
(dp10
g5
F14.211772011431925
sg6
F11.46105058158426
sg7
F8.414010813276926
ssS'steplength'
p11
g2
sS'timestamp'
p12
cdatetime
datetime
p13
(S'\x07\xe2\x01\x1f\x142\x18\x01\xec0'
p14
tp15
Rp16
sS'speed'
p17
g2
sS'cadence'
p18
g2
s.(dp0
S'blood_pressure'
p1
S'no data'
p2
sS'imu_head'
p3
(dp4
S'yaw'
p5
F4.849879254429254
sS'roll'
p6
F19.760456372862027
sS'pitch'
p7
F8.890409052628268
ssS'heart_rate'
p8
F0.5088810733460458
sS'imu_torso'
p9
(dp10
g5
F15.616355662374756
sg6
F4.391511691651216
sg7
F15.921472894249945
ssS'steplength'
p11
g2
sS'timestamp'
p12
cdatetime
datetime
p13
(S'\x07\xe2\x01\x1f\x142\x19\x01\xf4\x00'
p14
tp15
Rp16
sS'speed'
p17
g2
sS'cadence'
p18
g2
s.(dp0
S'blood_pressure'
p1
S'no data'
p2
sS'imu_head'
p3
(dp4
S'yaw'
p5
F12.018301264927462
sS'roll'
p6
F6.690300670285287
sS'pitch'
p7
F15.060319040644004
ssS'heart_rate'
p8
F68.3419142124513
sS'imu_torso'
p9
(dp10
g5
F16.675603776712368
sg6
F4.54327800701789
sg7
F18.465588603286132
ssS'steplength'
p11
g2
sS'timestamp'
p12
cdatetime
datetime
p13
(S'\x07\xe2\x01\x1f\x142\x1a\x02\x0bp'
p14
tp15
Rp16
sS'speed'
p17
g2
sS'cadence'
p18
g2
s.(dp0
S'blood_pressure'
p1
S'no data'
p2
sS'imu_head'
p3
(dp4
S'yaw'
p5
F5.403723484486866
sS'roll'
p6
F17.706804378654905
sS'pitch'
p7
F1.7442261275496307
ssS'heart_rate'
p8
F41.606512849296415
sS'imu_torso'
p9
(dp10
g5
F11.64536247941122
sg6
F9.38949770454438
sg7
F10.533613390922545
ssS'steplength'
p11
g2
sS'timestamp'
p12
cdatetime
datetime
p13
(S'\x07\xe2\x01\x1f\x142\x1b\x02\x17('
p14
tp15
Rp16
sS'speed'
p17
g2
sS'cadence'
p18
g2
s.(dp0
S'blood_pressure'
p1
S'no data'
p2
sS'imu_head'
p3
(dp4
S'yaw'
p5
F11.590610898934788
sS'roll'
p6
F9.638176416464603
sS'pitch'
p7
F18.45439849308824
ssS'heart_rate'
p8
F17.003583513987873
sS'imu_torso'
p9
(dp10
g5
F15.69679476414619
sg6
F1.3278099662536769
sg7
F18.947275915224854
ssS'steplength'
p11
g2
sS'timestamp'
p12
cdatetime
datetime
p13
(S'\x07\xe2\x01\x1f\x142\x1c\x02\x1e\xf8'
p14
tp15
Rp16
sS'speed'
p17
g2
sS'cadence'
p18
g2
s.(dp0
S'blood_pressure'
p1
S'no data'
p2
sS'imu_head'
p3
(dp4
S'yaw'
p5
F14.983181507324288
sS'roll'
p6
F11.304133947976563
sS'pitch'
p7
F19.47619301008188
ssS'heart_rate'
p8
F25.01089576002087
sS'imu_torso'
p9
(dp10
g5
F19.008150138171203
sg6
F5.319528774173039
sg7
F10.96898390385107
ssS'steplength'
p11
g2
sS'timestamp'
p12
cdatetime
datetime
p13
(S'\x07\xe2\x01\x1f\x142\x1d\x02.\x98'
p14
tp15
Rp16
sS'speed'
p17
g2
sS'cadence'
p18
g2
s.(dp0
S'blood_pressure'
p1
S'no data'
p2
sS'imu_head'
p3
(dp4
S'yaw'
p5
F1.014041346304313
sS'roll'
p6
F6.635627240297659
sS'pitch'
p7
F18.277698896790795
ssS'heart_rate'
p8
F45.0144243765956
sS'imu_torso'
p9
(dp10
g5
F8.136895015861809
sg6
F0.7689700239075692
sg7
F9.803572043714947
ssS'steplength'
p11
g2
sS'timestamp'
p12
cdatetime
datetime
p13
(S'\x07\xe2\x01\x1f\x142\x1e\x02>8'
p14
tp15
Rp16
sS'speed'
p17
g2
sS'cadence'
p18
g2
s.(dp0
S'blood_pressure'
p1
S'no data'
p2
sS'imu_head'
p3
(dp4
S'yaw'
p5
F18.971857760935656
sS'roll'
p6
F14.18784353461949
sS'pitch'
p7
F10.093620694944727
ssS'heart_rate'
p8
F12.139296007575151
sS'imu_torso'
p9
(dp10
g5
F1.7285591552212876
sg6
F2.228064369810989
sg7
F14.458712191232287
ssS'steplength'
p11
g2
sS'timestamp'
p12
cdatetime
datetime
p13
(S'\x07\xe2\x01\x1f\x142\x1f\x02M\xd8'
p14
tp15
Rp16
sS'speed'
p17
g2
sS'cadence'
p18
g2
s.(dp0
S'blood_pressure'
p1
S'no data'
p2
sS'imu_head'
p3
(dp4
S'yaw'
p5
F16.36977837445957
sS'roll'
p6
F16.137448771117462
sS'pitch'
p7
F15.66021221423902
ssS'heart_rate'
p8
F26.067832526045454
sS'imu_torso'
p9
(dp10
g5
F3.041962935889939
sg6
F9.59618233033484
sg7
F14.996670807050506
ssS'steplength'
p11
g2
sS'timestamp'
p12
cdatetime
datetime
p13
(S'\x07\xe2\x01\x1f\x142 \x02U\xa8'
p14
tp15
Rp16
sS'speed'
p17
g2
sS'cadence'
p18
g2
s.(dp0
S'blood_pressure'
p1
S'no data'
p2
sS'imu_head'
p3
(dp4
S'yaw'
p5
F11.203695110716774
sS'roll'
p6
F0.16814561752887425
sS'pitch'
p7
F18.76468603060655
ssS'heart_rate'
p8
F69.71130652392173
sS'imu_torso'
p9
(dp10
g5
F5.704551349912263
sg6
F2.342868716701787
sg7
F0.3868341765425676
ssS'steplength'
p11
g2
sS'timestamp'
p12
cdatetime
datetime
p13
(S'\x07\xe2\x01\x1f\x142!\x02a`'
p14
tp15
Rp16
sS'speed'
p17
g2
sS'cadence'
p18
g2
s.(dp0
S'blood_pressure'
p1
S'no data'
p2
sS'imu_head'
p3
(dp4
S'yaw'
p5
F10.867880840577737
sS'roll'
p6
F5.242473830979906
sS'pitch'
p7
F0.5739341744765181
ssS'heart_rate'
p8
F89.12769633736296
sS'imu_torso'
p9
(dp10
g5
F3.925398245645728
sg6
F13.159525819654114
sg7
F7.607900864964126
ssS'steplength'
p11
g2
sS'timestamp'
p12
cdatetime
datetime
p13
(S'\x07\xe2\x01\x1f\x142"\x02i0'
p14
tp15
Rp16
sS'speed'
p17
g2
sS'cadence'
p18
g2
s.(dp0
S'blood_pressure'
p1
S'no data'
p2
sS'imu_head'
p3
(dp4
S'yaw'
p5
F3.336441442586777
sS'roll'
p6
F0.7963096329813557
sS'pitch'
p7
F7.374050783802513
ssS'heart_rate'
p8
F30.456113275576545
sS'imu_torso'
p9
(dp10
g5
F2.2018420084402224
sg6
F19.196105468017887
sg7
F0.44192609741801725
ssS'steplength'
p11
g2
sS'timestamp'
p12
cdatetime
datetime
p13
(S'\x07\xe2\x01\x1f\x142#\x02m\x18'
p14
tp15
Rp16
sS'speed'
p17
g2
sS'cadence'
p18
g2
s.(dp0
S'blood_pressure'
p1
S'no data'
p2
sS'imu_head'
p3
(dp4
S'yaw'
p5
F3.9622387546707327
sS'roll'
p6
F19.14323873251299
sS'pitch'
p7
F9.493205549467213
ssS'heart_rate'
p8
F92.04067351891645
sS'imu_torso'
p9
(dp10
g5
F13.130386585154435
sg6
F6.2176364661178996
sg7
F12.997275798740457
ssS'steplength'
p11
g2
sS'timestamp'
p12
cdatetime
datetime
p13
(S'\x07\xe2\x01\x1f\x142$\x02\x84\x88'
p14
tp15
Rp16
sS'speed'
p17
g2
sS'cadence'
p18
g2
s.(dp0
S'blood_pressure'
p1
S'no data'
p2
sS'imu_head'
p3
(dp4
S'yaw'
p5
F19.60613682415385
sS'roll'
p6
F14.997055674691184
sS'pitch'
p7
F2.976300712111404
ssS'heart_rate'
p8
F61.88246764467764
sS'imu_torso'
p9
(dp10
g5
F18.79232002952403
sg6
F13.810329934798391
sg7
F15.268385947541457
ssS'steplength'
p11
g2
sS'timestamp'
p12
cdatetime
datetime
p13
(S'\x07\xe2\x01\x1f\x142%\x02\x90@'
p14
tp15
Rp16
sS'speed'
p17
g2
sS'cadence'
p18
g2
s.(dp0
S'blood_pressure'
p1
S'no data'
p2
sS'imu_head'
p3
(dp4
S'yaw'
p5
F14.735702030026465
sS'roll'
p6
F12.6503718376363
sS'pitch'
p7
F15.160355225904212
ssS'heart_rate'
p8
F35.515110124424574
sS'imu_torso'
p9
(dp10
g5
F12.18191114779785
sg6
F0.29010496406267405
sg7
F11.063144220675944
ssS'steplength'
p11
g2
sS'timestamp'
p12
cdatetime
datetime
p13
(S'\x07\xe2\x01\x1f\x142&\x02\x98\x10'
p14
tp15
Rp16
sS'speed'
p17
g2
sS'cadence'
p18
g2
s.(dp0
S'blood_pressure'
p1
S'no data'
p2
sS'imu_head'
p3
(dp4
S'yaw'
p5
F6.195567501562714
sS'roll'
p6
F7.486338080553033
sS'pitch'
p7
F0.5028580472465882
ssS'heart_rate'
p8
F88.03946709653742
sS'imu_torso'
p9
(dp10
g5
F1.1288281285682777
sg6
F7.900196910424917
sg7
F7.112475274567538
ssS'steplength'
p11
g2
sS'timestamp'
p12
cdatetime
datetime
p13
(S"\x07\xe2\x01\x1f\x142'\x02\xc3\x08"
p14
tp15
Rp16
sS'speed'
p17
g2
sS'cadence'
p18
g2
s.(dp0
S'blood_pressure'
p1
S'no data'
p2
sS'imu_head'
p3
(dp4
S'yaw'
p5
F8.239154622134272
sS'roll'
p6
F1.3881753843450118
sS'pitch'
p7
F18.059830761133874
ssS'heart_rate'
p8
F33.78368439435996
sS'imu_torso'
p9
(dp10
g5
F8.580354012758962
sg6
F13.057791003850692
sg7
F6.6261663630922785
ssS'steplength'
p11
g2
sS'timestamp'
p12
cdatetime
datetime
p13
(S'\x07\xe2\x01\x1f\x142(\x02\xce\xc0'
p14
tp15
Rp16
sS'speed'
p17
g2
sS'cadence'
p18
g2
s.(dp0
S'blood_pressure'
p1
S'no data'
p2
sS'imu_head'
p3
(dp4
S'yaw'
p5
F11.172980056452314
sS'roll'
p6
F2.888619397644039
sS'pitch'
p7
F8.046933648210214
ssS'heart_rate'
p8
F74.16431514326516
sS'imu_torso'
p9
(dp10
g5
F7.70319606064813
sg6
F1.2508470364371527
sg7
F12.978891470350359
ssS'steplength'
p11
g2
sS'timestamp'
p12
cdatetime
datetime
p13
(S'\x07\xe2\x01\x1f\x142)\x02\xdax'
p14
tp15
Rp16
sS'speed'
p17
g2
sS'cadence'
p18
g2
s.(dp0
S'blood_pressure'
p1
S'no data'
p2
sS'imu_head'
p3
(dp4
S'yaw'
p5
F5.588000046928858
sS'roll'
p6
F12.47320584592541
sS'pitch'
p7
F13.164205860698416
ssS'heart_rate'
p8
F91.26956269835131
sS'imu_torso'
p9
(dp10
g5
F4.293189180278776
sg6
F15.175890990747602
sg7
F7.295298843884199
ssS'steplength'
p11
g2
sS'timestamp'
p12
cdatetime
datetime
p13
(S'\x07\xe2\x01\x1f\x142*\x02\xe2H'
p14
tp15
Rp16
sS'speed'
p17
g2
sS'cadence'
p18
g2
s.(dp0
S'blood_pressure'
p1
S'no data'
p2
sS'imu_head'
p3
(dp4
S'yaw'
p5
F3.198889870640087
sS'roll'
p6
F0.15172101256053283
sS'pitch'
p7
F13.965104965892161
ssS'heart_rate'
p8
F51.93271360608994
sS'imu_torso'
p9
(dp10
g5
F13.012576528872131
sg6
F4.160192971083281
sg7
F2.3721336855712205
ssS'steplength'
p11
g2
sS'timestamp'
p12
cdatetime
datetime
p13
(S'\x07\xe2\x01\x1f\x142+\x02\xee\x00'
p14
tp15
Rp16
sS'speed'
p17
g2
sS'cadence'
p18
g2
s.(dp0
S'blood_pressure'
p1
S'no data'
p2
sS'imu_head'
p3
(dp4
S'yaw'
p5
F16.35803830106974
sS'roll'
p6
F15.295931747527705
sS'pitch'
p7
F7.4970532493817865
ssS'heart_rate'
p8
F39.194937268118004
sS'imu_torso'
p9
(dp10
g5
F7.763488425422342
sg6
F19.543333487960606
sg7
F17.25003973617794
ssS'steplength'
p11
g2
sS'timestamp'
p12
cdatetime
datetime
p13
(S'\x07\xe2\x01\x1f\x142,\x03\x05p'
p14
tp15
Rp16
sS'speed'
p17
g2
sS'cadence'
p18
g2
s.(dp0
S'blood_pressure'
p1
S'no data'
p2
sS'imu_head'
p3
(dp4
S'yaw'
p5
F4.725174700222176
sS'roll'
p6
F4.54199874390423
sS'pitch'
p7
F6.2416500527711305
ssS'heart_rate'
p8
F21.116550708491765
sS'imu_torso'
p9
(dp10
g5
F5.323491350552292
sg6
F2.7366427936059146
sg7
F4.167514243264234
ssS'steplength'
p11
g2
sS'timestamp'
p12
cdatetime
datetime
p13
(S'\x07\xe2\x01\x1f\x142-\x03\tX'
p14
tp15
Rp16
sS'speed'
p17
g2
sS'cadence'
p18
g2
s.(dp0
S'blood_pressure'
p1
S'no data'
p2
sS'imu_head'
p3
(dp4
S'yaw'
p5
F4.207567172136795
sS'roll'
p6
F9.450937701252046
sS'pitch'
p7
F7.93910644615509
ssS'heart_rate'
p8
F21.66303873109078
sS'imu_torso'
p9
(dp10
g5
F0.34680645448215364
sg6
F12.083498752691089
sg7
F15.609312322127977
ssS'steplength'
p11
g2
sS'timestamp'
p12
cdatetime
datetime
p13
(S'\x07\xe2\x01\x1f\x142.\x03$\xb0'
p14
tp15
Rp16
sS'speed'
p17
g2
sS'cadence'
p18
g2
s.(dp0
S'blood_pressure'
p1
S'no data'
p2
sS'imu_head'
p3
(dp4
S'yaw'
p5
F11.733263261420113
sS'roll'
p6
F16.78816984571837
sS'pitch'
p7
F3.993580151633318
ssS'heart_rate'
p8
F50.56791739662213
sS'imu_torso'
p9
(dp10
g5
F15.394573518463703
sg6
F16.686991363773046
sg7
F6.532087547753402
ssS'steplength'
p11
g2
sS'timestamp'
p12
cdatetime
datetime
p13
(S'\x07\xe2\x01\x1f\x142/\x030h'
p14
tp15
Rp16
sS'speed'
p17
g2
sS'cadence'
p18
g2
s.(dp0
S'blood_pressure'
p1
S'no data'
p2
sS'imu_head'
p3
(dp4
S'yaw'
p5
F4.394878194939245
sS'roll'
p6
F10.128778548584247
sS'pitch'
p7
F4.427920444420781
ssS'heart_rate'
p8
F42.3875999196041
sS'imu_torso'
p9
(dp10
g5
F3.1055510495920435
sg6
F16.814473506122702
sg7
F13.479214930427347
ssS'steplength'
p11
g2
sS'timestamp'
p12
cdatetime
datetime
p13
(S'\x07\xe2\x01\x1f\x1420\x03C\xf0'
p14
tp15
Rp16
sS'speed'
p17
g2
sS'cadence'
p18
g2
s.(dp0
S'blood_pressure'
p1
S'no data'
p2
sS'imu_head'
p3
(dp4
S'yaw'
p5
F19.521255106988868
sS'roll'
p6
F13.526613614918816
sS'pitch'
p7
F4.528407351620862
ssS'heart_rate'
p8
F72.15079799284256
sS'imu_torso'
p9
(dp10
g5
F5.380651414637272
sg6
F2.585299768942757
sg7
F4.9596770813109226
ssS'steplength'
p11
g2
sS'timestamp'
p12
cdatetime
datetime
p13
(S'\x07\xe2\x01\x1f\x1421\x03O\xa8'
p14
tp15
Rp16
sS'speed'
p17
g2
sS'cadence'
p18
g2
s.(dp0
S'blood_pressure'
p1
S'no data'
p2
sS'imu_head'
p3
(dp4
S'yaw'
p5
F7.843773340898781
sS'roll'
p6
F18.178106401396235
sS'pitch'
p7
F1.4495124418199934
ssS'heart_rate'
p8
F69.06621165793801
sS'imu_torso'
p9
(dp10
g5
F4.269724290879671
sg6
F13.69545336385617
sg7
F5.181676847890701
ssS'steplength'
p11
g2
sS'timestamp'
p12
cdatetime
datetime
p13
(S'\x07\xe2\x01\x1f\x1422\x03[`'
p14
tp15
Rp16
sS'speed'
p17
g2
sS'cadence'
p18
g2
s.(dp0
S'blood_pressure'
p1
S'no data'
p2
sS'imu_head'
p3
(dp4
S'yaw'
p5
F17.830841714676122
sS'roll'
p6
F9.483728698483041
sS'pitch'
p7
F13.943178095435076
ssS'heart_rate'
p8
F54.211820609165265
sS'imu_torso'
p9
(dp10
g5
F0.3988233419031162
sg6
F0.2629861714954562
sg7
F9.435869355312912
ssS'steplength'
p11
g2
sS'timestamp'
p12
cdatetime
datetime
p13
(S'\x07\xe2\x01\x1f\x1423\x03c0'
p14
tp15
Rp16
sS'speed'
p17
g2
sS'cadence'
p18
g2
s.(dp0
S'blood_pressure'
p1
S'no data'
p2
sS'imu_head'
p3
(dp4
S'yaw'
p5
F9.678674197231894
sS'roll'
p6
F18.173844079564343
sS'pitch'
p7
F19.1839234336166
ssS'heart_rate'
p8
F90.3882400630177
sS'imu_torso'
p9
(dp10
g5
F4.421491572008414
sg6
F4.319948224990546
sg7
F7.512373483796049
ssS'steplength'
p11
g2
sS'timestamp'
p12
cdatetime
datetime
p13
(S'\x07\xe2\x01\x1f\x1424\x03g\x18'
p14
tp15
Rp16
sS'speed'
p17
g2
sS'cadence'
p18
g2
s.(dp0
S'blood_pressure'
p1
S'no data'
p2
sS'imu_head'
p3
(dp4
S'yaw'
p5
F7.612205832749989
sS'roll'
p6
F10.458955551814919
sS'pitch'
p7
F10.37372700989727
ssS'heart_rate'
p8
F57.12975807696664
sS'imu_torso'
p9
(dp10
g5
F13.262433116691525
sg6
F19.291306925205205
sg7
F2.8241038536729435
ssS'steplength'
p11
g2
sS'timestamp'
p12
cdatetime
datetime
p13
(S'\x07\xe2\x01\x1f\x1425\x03v\xb8'
p14
tp15
Rp16
sS'speed'
p17
g2
sS'cadence'
p18
g2
s.(dp0
S'blood_pressure'
p1
S'no data'
p2
sS'imu_head'
p3
(dp4
S'yaw'
p5
F10.104728536947452
sS'roll'
p6
F15.968705792468494
sS'pitch'
p7
F6.956116978764744
ssS'heart_rate'
p8
F93.5093223116145
sS'imu_torso'
p9
(dp10
g5
F3.162445369610567
sg6
F0.013878346682252296
sg7
F17.692757194641608
ssS'steplength'
p11
g2
sS'timestamp'
p12
cdatetime
datetime
p13
(S'\x07\xe2\x01\x1f\x1426\x03~\x88'
p14
tp15
Rp16
sS'speed'
p17
g2
sS'cadence'
p18
g2
s.(dp0
S'blood_pressure'
p1
S'no data'
p2
sS'imu_head'
p3
(dp4
S'yaw'
p5
F5.989751132672643
sS'roll'
p6
F1.1139761179933538
sS'pitch'
p7
F3.316393833656519
ssS'heart_rate'
p8
F78.53131153199809
sS'imu_torso'
p9
(dp10
g5
F16.538133810315223
sg6
F4.6430809421060415
sg7
F19.59465771033811
ssS'steplength'
p11
g2
sS'timestamp'
p12
cdatetime
datetime
p13
(S'\x07\xe2\x01\x1f\x1427\x03~\x88'
p14
tp15
Rp16
sS'speed'
p17
g2
sS'cadence'
p18
g2
s.(dp0
S'blood_pressure'
p1
S'no data'
p2
sS'imu_head'
p3
(dp4
S'yaw'
p5
F10.901838874451455
sS'roll'
p6
F14.696475650526741
sS'pitch'
p7
F7.158251204047323
ssS'heart_rate'
p8
F9.491381369365538
sS'imu_torso'
p9
(dp10
g5
F0.10166327022655297
sg6
F14.047491443731435
sg7
F14.76627172464714
ssS'steplength'
p11
g2
sS'timestamp'
p12
cdatetime
datetime
p13
(S'\x07\xe2\x01\x1f\x1428\x03\x95\xf8'
p14
tp15
Rp16
sS'speed'
p17
g2
sS'cadence'
p18
g2
s.(dp0
S'blood_pressure'
p1
S'no data'
p2
sS'imu_head'
p3
(dp4
S'yaw'
p5
F3.2292261674107836
sS'roll'
p6
F10.274702018702627
sS'pitch'
p7
F14.994498510809072
ssS'heart_rate'
p8
F3.0548644492145782
sS'imu_torso'
p9
(dp10
g5
F18.98960378489932
sg6
F8.630000914431372
sg7
F5.416045359292174
ssS'steplength'
p11
g2
sS'timestamp'
p12
cdatetime
datetime
p13
(S'\x07\xe2\x01\x1f\x1429\x03\xa1\xb0'
p14
tp15
Rp16
sS'speed'
p17
g2
sS'cadence'
p18
g2
s.(dp0
S'blood_pressure'
p1
S'no data'
p2
sS'imu_head'
p3
(dp4
S'yaw'
p5
F9.259595307304298
sS'roll'
p6
F7.889191061603644
sS'pitch'
p7
F16.701495598476782
ssS'heart_rate'
p8
F9.94117816063731
sS'imu_torso'
p9
(dp10
g5
F2.701496567804589
sg6
F0.14745479081406554
sg7
F4.332934758883546
ssS'steplength'
p11
g2
sS'timestamp'
p12
cdatetime
datetime
p13
(S'\x07\xe2\x01\x1f\x142:\x03\xb58'
p14
tp15
Rp16
sS'speed'
p17
g2
sS'cadence'
p18
g2
s.(dp0
S'blood_pressure'
p1
S'no data'
p2
sS'imu_head'
p3
(dp4
S'yaw'
p5
F10.979888964388838
sS'roll'
p6
F14.237600735255869
sS'pitch'
p7
F9.35983494424146
ssS'heart_rate'
p8
F47.13965640748135
sS'imu_torso'
p9
(dp10
g5
F10.101116030765844
sg6
F16.62176020436184
sg7
F19.51146352925729
ssS'steplength'
p11
g2
sS'timestamp'
p12
cdatetime
datetime
p13
(S'\x07\xe2\x01\x1f\x142;\x03\xbd\x08'
p14
tp15
Rp16
sS'speed'
p17
g2
sS'cadence'
p18
g2
s.(dp0
S'blood_pressure'
p1
S'no data'
p2
sS'imu_head'
p3
(dp4
S'yaw'
p5
F0.3138813267305607
sS'roll'
p6
F16.10964178722458
sS'pitch'
p7
F18.617752375639444
ssS'heart_rate'
p8
F92.98779165384889
sS'imu_torso'
p9
(dp10
g5
F12.15438098317366
sg6
F5.408693562186604
sg7
F19.58788580154653
ssS'steplength'
p11
g2
sS'timestamp'
p12
cdatetime
datetime
p13
(S'\x07\xe2\x01\x1f\x143\x00\x03\xc4\xd8'
p14
tp15
Rp16
sS'speed'
p17
g2
sS'cadence'
p18
g2
s.(dp0
S'blood_pressure'
p1
S'no data'
p2
sS'imu_head'
p3
(dp4
S'yaw'
p5
F0.7331321241347433
sS'roll'
p6
F17.525158828827983
sS'pitch'
p7
F1.1921576388206012
ssS'heart_rate'
p8
F35.24601892582587
sS'imu_torso'
p9
(dp10
g5
F7.87179057648427
sg6
F18.600841493620113
sg7
F11.258435180361142
ssS'steplength'
p11
g2
sS'timestamp'
p12
cdatetime
datetime
p13
(S'\x07\xe2\x01\x1f\x143\x01\x03\xd8`'
p14
tp15
Rp16
sS'speed'
p17
g2
sS'cadence'
p18
g2
s.(dp0
S'blood_pressure'
p1
S'no data'
p2
sS'imu_head'
p3
(dp4
S'yaw'
p5
F12.990458037638684
sS'roll'
p6
F14.546229394855654
sS'pitch'
p7
F14.606558806315771
ssS'heart_rate'
p8
F20.64280792758366
sS'imu_torso'
p9
(dp10
g5
F0.8431971783450676
sg6
F1.9442115850963093
sg7
F4.431460105610494
ssS'steplength'
p11
g2
sS'timestamp'
p12
cdatetime
datetime
p13
(S'\x07\xe2\x01\x1f\x143\x02\x03\xe00'
p14
tp15
Rp16
sS'speed'
p17
g2
sS'cadence'
p18
g2
s.(dp0
S'blood_pressure'
p1
S'no data'
p2
sS'imu_head'
p3
(dp4
S'yaw'
p5
F7.432901795266147
sS'roll'
p6
F15.317623896073743
sS'pitch'
p7
F12.226527142500654
ssS'heart_rate'
p8
F66.17652228601992
sS'imu_torso'
p9
(dp10
g5
F12.910297266899358
sg6
F3.1656157185910083
sg7
F16.18446032754301
ssS'steplength'
p11
g2
sS'timestamp'
p12
cdatetime
datetime
p13
(S'\x07\xe2\x01\x1f\x143\x03\x03\xf7\xa0'
p14
tp15
Rp16
sS'speed'
p17
g2
sS'cadence'
p18
g2
s.(dp0
S'blood_pressure'
p1
S'no data'
p2
sS'imu_head'
p3
(dp4
S'yaw'
p5
F4.669713248565537
sS'roll'
p6
F14.321455912196804
sS'pitch'
p7
F8.615350653049699
ssS'heart_rate'
p8
F66.65326950850428
sS'imu_torso'
p9
(dp10
g5
F2.775502463396655
sg6
F7.805066852033075
sg7
F15.770427795138573
ssS'steplength'
p11
g2
sS'timestamp'
p12
cdatetime
datetime
p13
(S'\x07\xe2\x01\x1f\x143\x04\x04\x07@'
p14
tp15
Rp16
sS'speed'
p17
g2
sS'cadence'
p18
g2
s.(dp0
S'blood_pressure'
p1
S'no data'
p2
sS'imu_head'
p3
(dp4
S'yaw'
p5
F19.213468536614613
sS'roll'
p6
F18.545521213990423
sS'pitch'
p7
F15.500722867856435
ssS'heart_rate'
p8
F56.85873852956872
sS'imu_torso'
p9
(dp10
g5
F11.162141017417806
sg6
F4.378819845682611
sg7
F3.9726137365725234
ssS'steplength'
p11
g2
sS'timestamp'
p12
cdatetime
datetime
p13
(S'\x07\xe2\x01\x1f\x143\x05\x04\x0b('
p14
tp15
Rp16
sS'speed'
p17
g2
sS'cadence'
p18
g2
s.(dp0
S'blood_pressure'
p1
S'no data'
p2
sS'imu_head'
p3
(dp4
S'yaw'
p5
F7.268647267525299
sS'roll'
p6
F13.978688259734042
sS'pitch'
p7
F1.062979784878868
ssS'heart_rate'
p8
F58.76441139602229
sS'imu_torso'
p9
(dp10
g5
F5.956434521066956
sg6
F14.225244157570478
sg7
F7.105130774925781
ssS'steplength'
p11
g2
sS'timestamp'
p12
cdatetime
datetime
p13
(S'\x07\xe2\x01\x1f\x143\x06\x04\x16\xe0'
p14
tp15
Rp16
sS'speed'
p17
g2
sS'cadence'
p18
g2
s.(dp0
S'blood_pressure'
p1
S'no data'
p2
sS'imu_head'
p3
(dp4
S'yaw'
p5
F10.400983100024705
sS'roll'
p6
F3.8943081990403616
sS'pitch'
p7
F18.660302120517322
ssS'heart_rate'
p8
F6.818864331306318
sS'imu_torso'
p9
(dp10
g5
F5.407722245551456
sg6
F2.501294310102533
sg7
F5.457708848540792
ssS'steplength'
p11
g2
sS'timestamp'
p12
cdatetime
datetime
p13
(S'\x07\xe2\x01\x1f\x143\x07\x04*h'
p14
tp15
Rp16
sS'speed'
p17
g2
sS'cadence'
p18
g2
s.(dp0
S'blood_pressure'
p1
S'no data'
p2
sS'imu_head'
p3
(dp4
S'yaw'
p5
F13.628931621781476
sS'roll'
p6
F6.206327099247897
sS'pitch'
p7
F1.3091779682387972
ssS'heart_rate'
p8
F95.70590925718302
sS'imu_torso'
p9
(dp10
g5
F12.522550449591527
sg6
F9.827463922404903
sg7
F18.653249657368633
ssS'steplength'
p11
g2
sS'timestamp'
p12
cdatetime
datetime
p13
(S'\x07\xe2\x01\x1f\x143\x08\x046 '
p14
tp15
Rp16
sS'speed'
p17
g2
sS'cadence'
p18
g2
s.(dp0
S'blood_pressure'
p1
S'no data'
p2
sS'imu_head'
p3
(dp4
S'yaw'
p5
F2.9357020192002747
sS'roll'
p6
F0.9572820534855286
sS'pitch'
p7
F9.759572177980395
ssS'heart_rate'
p8
F48.2186577318727
sS'imu_torso'
p9
(dp10
g5
F2.3570643159083926
sg6
F9.142944721169822
sg7
F19.613528514484887
ssS'steplength'
p11
g2
sS'timestamp'
p12
cdatetime
datetime
p13
(S'\x07\xe2\x01\x1f\x143\t\x04A\xd8'
p14
tp15
Rp16
sS'speed'
p17
g2
sS'cadence'
p18
g2
s.(dp0
S'blood_pressure'
p1
S'no data'
p2
sS'imu_head'
p3
(dp4
S'yaw'
p5
F5.584582764975736
sS'roll'
p6
F12.206269421303626
sS'pitch'
p7
F17.337996548470297
ssS'heart_rate'
p8
F91.93043547995404
sS'imu_torso'
p9
(dp10
g5
F7.365448783571522
sg6
F1.7244127644306273
sg7
F17.69544537553006
ssS'steplength'
p11
g2
sS'timestamp'
p12
cdatetime
datetime
p13
(S'\x07\xe2\x01\x1f\x143\n\x04M\x90'
p14
tp15
Rp16
sS'speed'
p17
g2
sS'cadence'
p18
g2
s.(dp0
S'blood_pressure'
p1
S'no data'
p2
sS'imu_head'
p3
(dp4
S'yaw'
p5
F9.368725895164761
sS'roll'
p6
F4.015097817590821
sS'pitch'
p7
F2.275772749657956
ssS'heart_rate'
p8
F21.26098858773696
sS'imu_torso'
p9
(dp10
g5
F13.315637019732138
sg6
F3.8132076933627035
sg7
F17.390036770678133
ssS'steplength'
p11
g2
sS'timestamp'
p12
cdatetime
datetime
p13
(S'\x07\xe2\x01\x1f\x143\x0b\x04YH'
p14
tp15
Rp16
sS'speed'
p17
g2
sS'cadence'
p18
g2
s.(dp0
S'blood_pressure'
p1
S'no data'
p2
sS'imu_head'
p3
(dp4
S'yaw'
p5
F3.6743303595968
sS'roll'
p6
F1.881697111028191
sS'pitch'
p7
F17.10211839224135
ssS'heart_rate'
p8
F1.2345438350524596
sS'imu_torso'
p9
(dp10
g5
F4.853138822333487
sg6
F9.10584090617883
sg7
F18.429613990473882
ssS'steplength'
p11
g2
sS'timestamp'
p12
cdatetime
datetime
p13
(S'\x07\xe2\x01\x1f\x143\x0c\x04]0'
p14
tp15
Rp16
sS'speed'
p17
g2
sS'cadence'
p18
g2
s.(dp0
S'blood_pressure'
p1
S'no data'
p2
sS'imu_head'
p3
(dp4
S'yaw'
p5
F0.7336236354209213
sS'roll'
p6
F11.282371717753698
sS'pitch'
p7
F17.42098784446505
ssS'heart_rate'
p8
F22.871792037245598
sS'imu_torso'
p9
(dp10
g5
F12.712716249703458
sg6
F13.850097805550126
sg7
F0.9673156186003973
ssS'steplength'
p11
g2
sS'timestamp'
p12
cdatetime
datetime
p13
(S'\x07\xe2\x01\x1f\x143\r\x04x\x88'
p14
tp15
Rp16
sS'speed'
p17
g2
sS'cadence'
p18
g2
s.(dp0
S'blood_pressure'
p1
S'no data'
p2
sS'imu_head'
p3
(dp4
S'yaw'
p5
F8.864521567401775
sS'roll'
p6
F16.20199879240196
sS'pitch'
p7
F19.11044731230525
ssS'heart_rate'
p8
F14.379848508176007
sS'imu_torso'
p9
(dp10
g5
F16.70665264818759
sg6
F11.909902377113092
sg7
F14.139306219078161
ssS'steplength'
p11
g2
sS'timestamp'
p12
cdatetime
datetime
p13
(S'\x07\xe2\x01\x1f\x143\x0e\x04\x84@'
p14
tp15
Rp16
sS'speed'
p17
g2
sS'cadence'
p18
g2
s.(dp0
S'blood_pressure'
p1
S'no data'
p2
sS'imu_head'
p3
(dp4
S'yaw'
p5
F6.572306397497409
sS'roll'
p6
F4.707175123329286
sS'pitch'
p7
F10.667510759319043
ssS'heart_rate'
p8
F40.14064289013351
sS'imu_torso'
p9
(dp10
g5
F9.519568627556215
sg6
F12.204671134933342
sg7
F2.996967585793555
ssS'steplength'
p11
g2
sS'timestamp'
p12
cdatetime
datetime
p13
(S'\x07\xe2\x01\x1f\x143\x0f\x04\x8c\x10'
p14
tp15
Rp16
sS'speed'
p17
g2
sS'cadence'
p18
g2
s.(dp0
S'blood_pressure'
p1
S'no data'
p2
sS'imu_head'
p3
(dp4
S'yaw'
p5
F19.932653945114932
sS'roll'
p6
F6.821586956595067
sS'pitch'
p7
F6.01924234013707
ssS'heart_rate'
p8
F47.23322431197647
sS'imu_torso'
p9
(dp10
g5
F2.295138959858183
sg6
F1.767934256242567
sg7
F11.842134113933538
ssS'steplength'
p11
g2
sS'timestamp'
p12
cdatetime
datetime
p13
(S'\x07\xe2\x01\x1f\x143\x10\x04\x97\xc8'
p14
tp15
Rp16
sS'speed'
p17
g2
sS'cadence'
p18
g2
s.(dp0
S'blood_pressure'
p1
S'no data'
p2
sS'imu_head'
p3
(dp4
S'yaw'
p5
F4.635321503545436
sS'roll'
p6
F5.36578981867412
sS'pitch'
p7
F16.33439570293538
ssS'heart_rate'
p8
F31.147949560786824
sS'imu_torso'
p9
(dp10
g5
F11.4073131650507
sg6
F8.686929084887813
sg7
F2.77860710846465
ssS'steplength'
p11
g2
sS'timestamp'
p12
cdatetime
datetime
p13
(S'\x07\xe2\x01\x1f\x143\x11\x04\xa3\x80'
p14
tp15
Rp16
sS'speed'
p17
g2
sS'cadence'
p18
g2
s.(dp0
S'blood_pressure'
p1
S'no data'
p2
sS'imu_head'
p3
(dp4
S'yaw'
p5
F11.14299424070156
sS'roll'
p6
F12.254979448805132
sS'pitch'
p7
F18.445820177775893
ssS'heart_rate'
p8
F36.28062241704624
sS'imu_torso'
p9
(dp10
g5
F19.985715239435205
sg6
F4.097935596530005
sg7
F15.86151876183568
ssS'steplength'
p11
g2
sS'timestamp'
p12
cdatetime
datetime
p13
(S'\x07\xe2\x01\x1f\x143\x12\x04\xb7\x08'
p14
tp15
Rp16
sS'speed'
p17
g2
sS'cadence'
p18
g2
s.(dp0
S'blood_pressure'
p1
S'no data'
p2
sS'imu_head'
p3
(dp4
S'yaw'
p5
F13.841876651925078
sS'roll'
p6
F17.673312211188417
sS'pitch'
p7
F4.345830914870728
ssS'heart_rate'
p8
F3.09079863612024
sS'imu_torso'
p9
(dp10
g5
F2.905657205971839
sg6
F16.214579628259187
sg7
F10.25497037918595
ssS'steplength'
p11
g2
sS'timestamp'
p12
cdatetime
datetime
p13
(S'\x07\xe2\x01\x1f\x143\x13\x04\xc2\xc0'
p14
tp15
Rp16
sS'speed'
p17
g2
sS'cadence'
p18
g2
s.(dp0
S'blood_pressure'
p1
S'no data'
p2
sS'imu_head'
p3
(dp4
S'yaw'
p5
F5.618221789282782
sS'roll'
p6
F12.742433183091688
sS'pitch'
p7
F2.377552164932928
ssS'heart_rate'
p8
F62.755316499818726
sS'imu_torso'
p9
(dp10
g5
F10.19515533249155
sg6
F2.556078062788676
sg7
F8.227446193808149
ssS'steplength'
p11
g2
sS'timestamp'
p12
cdatetime
datetime
p13
(S'\x07\xe2\x01\x1f\x143\x14\x04\xed\xb8'
p14
tp15
Rp16
sS'speed'
p17
g2
sS'cadence'
p18
g2
s.(dp0
S'blood_pressure'
p1
S'no data'
p2
sS'imu_head'
p3
(dp4
S'yaw'
p5
F16.53171131868375
sS'roll'
p6
F1.1925151777827603
sS'pitch'
p7
F15.05107286946123
ssS'heart_rate'
p8
F54.61717888605943
sS'imu_torso'
p9
(dp10
g5
F2.099600987887722
sg6
F16.85567742025154
sg7
F11.41226908615767
ssS'steplength'
p11
g2
sS'timestamp'
p12
cdatetime
datetime
p13
(S'\x07\xe2\x01\x1f\x143\x15\x05\x01@'
p14
tp15
Rp16
sS'speed'
p17
g2
sS'cadence'
p18
g2
s.