(dp0
S'blood_pressure'
p1
S'nd'
p2
sS'imu_head'
p3
(dp4
S'yaw'
p5
I0
sS'roll'
p6
I0
sS'pitch'
p7
I0
ssS'heart_rate'
p8
I0
sS'imu_torso'
p9
(dp10
g5
I0
sg6
I0
sg7
I0
ssS'steplength'
p11
g2
sS'timestamp'
p12
cdatetime
datetime
p13
(S'\x07\xe1\x0c\x13\x00\x00\x1b\x03\xfb\x88'
p14
tp15
Rp16
sS'speed'
p17
g2
sS'cadence'
p18
g2
s.(dp0
S'blood_pressure'
p1
S'nd'
p2
sS'imu_head'
p3
(dp4
S'yaw'
p5
I0
sS'roll'
p6
I0
sS'pitch'
p7
I0
ssS'heart_rate'
p8
I0
sS'imu_torso'
p9
(dp10
g5
I0
sg6
I0
sg7
I0
ssS'steplength'
p11
g2
sS'timestamp'
p12
cdatetime
datetime
p13
(S'\x07\xe1\x0c\x13\x00\x00\x1c\x04h\xe8'
p14
tp15
Rp16
sS'speed'
p17
g2
sS'cadence'
p18
g2
s.(dp0
S'blood_pressure'
p1
S'nd'
p2
sS'imu_head'
p3
(dp4
S'yaw'
p5
S' 3.0625'
p6
sS'roll'
p7
S' 359.9375'
p8
sS'pitch'
p9
S'132.0625 '
p10
ssS'heart_rate'
p11
I0
sS'imu_torso'
p12
(dp13
g5
S' -1.4375'
p14
sg7
S' 182.9375\n'
p15
sg9
S'-90.1875 '
p16
ssS'steplength'
p17
g2
sS'timestamp'
p18
cdatetime
datetime
p19
(S'\x07\xe1\x0c\x13\x00\x00\x1d\x04\xf5\x88'
p20
tp21
Rp22
sS'speed'
p23
g2
sS'cadence'
p24
g2
s.(dp0
S'blood_pressure'
p1
S'nd'
p2
sS'imu_head'
p3
(dp4
S'yaw'
p5
S' 3.0625'
p6
sS'roll'
p7
S' 359.9375'
p8
sS'pitch'
p9
S'132.0625 '
p10
ssS'heart_rate'
p11
I0
sS'imu_torso'
p12
(dp13
g5
S' -1.4375'
p14
sg7
S' 182.9375\n'
p15
sg9
S'-90.1875 '
p16
ssS'steplength'
p17
g2
sS'timestamp'
p18
cdatetime
datetime
p19
(S'\x07\xe1\x0c\x13\x00\x00\x1e\x06\x9fP'
p20
tp21
Rp22
sS'speed'
p23
g2
sS'cadence'
p24
g2
s.(dp0
S'blood_pressure'
p1
S'nd'
p2
sS'imu_head'
p3
(dp4
S'yaw'
p5
S' 3.0625'
p6
sS'roll'
p7
S' 359.9375'
p8
sS'pitch'
p9
S'132.0625 '
p10
ssS'heart_rate'
p11
I0
sS'imu_torso'
p12
(dp13
g5
S' -1.4375'
p14
sg7
S' 182.9375\n'
p15
sg9
S'-90.1875 '
p16
ssS'steplength'
p17
g2
sS'timestamp'
p18
cdatetime
datetime
p19
(S'\x07\xe1\x0c\x13\x00\x00\x1f\x07\xc0`'
p20
tp21
Rp22
sS'speed'
p23
g2
sS'cadence'
p24
g2
s.(dp0
S'blood_pressure'
p1
S'nd'
p2
sS'imu_head'
p3
(dp4
S'yaw'
p5
S' 3.0625'
p6
sS'roll'
p7
S' 359.9375'
p8
sS'pitch'
p9
S'132.0625 '
p10
ssS'heart_rate'
p11
I0
sS'imu_torso'
p12
(dp13
g5
S' -1.4375'
p14
sg7
S' 182.9375\n'
p15
sg9
S'-90.1875 '
p16
ssS'steplength'
p17
g2
sS'timestamp'
p18
cdatetime
datetime
p19
(S'\x07\xe1\x0c\x13\x00\x00 \x08\xd5\xb8'
p20
tp21
Rp22
sS'speed'
p23
g2
sS'cadence'
p24
g2
s.(dp0
S'blood_pressure'
p1
S'nd'
p2
sS'imu_head'
p3
(dp4
S'yaw'
p5
S' 3.0625'
p6
sS'roll'
p7
S' 359.9375'
p8
sS'pitch'
p9
S'132.0625 '
p10
ssS'heart_rate'
p11
I0
sS'imu_torso'
p12
(dp13
g5
S' -1.4375'
p14
sg7
S' 182.9375\n'
p15
sg9
S'-90.1875 '
p16
ssS'steplength'
p17
g2
sS'timestamp'
p18
cdatetime
datetime
p19
(S'\x07\xe1\x0c\x13\x00\x00!\t\xfa\xb0'
p20
tp21
Rp22
sS'speed'
p23
g2
sS'cadence'
p24
g2
s.(dp0
S'blood_pressure'
p1
S'nd'
p2
sS'imu_head'
p3
(dp4
S'yaw'
p5
S' 3.0625'
p6
sS'roll'
p7
S' 359.9375'
p8
sS'pitch'
p9
S'132.0625 '
p10
ssS'heart_rate'
p11
I0
sS'imu_torso'
p12
(dp13
g5
S' -1.4375'
p14
sg7
S' 182.9375\n'
p15
sg9
S'-90.1875 '
p16
ssS'steplength'
p17
g2
sS'timestamp'
p18
cdatetime
datetime
p19
(S'\x07\xe1\x0c\x13\x00\x00"\x0b>\xe8'
p20
tp21
Rp22
sS'speed'
p23
g2
sS'cadence'
p24
g2
s.(dp0
S'blood_pressure'
p1
S'nd'
p2
sS'imu_head'
p3
(dp4
S'yaw'
p5
S' 3.0625'
p6
sS'roll'
p7
S' 359.9375'
p8
sS'pitch'
p9
S'132.0625 '
p10
ssS'heart_rate'
p11
I0
sS'imu_torso'
p12
(dp13
g5
S' -1.4375'
p14
sg7
S' 182.9375\n'
p15
sg9
S'-90.1875 '
p16
ssS'steplength'
p17
g2
sS'timestamp'
p18
cdatetime
datetime
p19
(S'\x07\xe1\x0c\x13\x00\x00#\r\x0b\xd8'
p20
tp21
Rp22
sS'speed'
p23
g2
sS'cadence'
p24
g2
s.(dp0
S'blood_pressure'
p1
S'nd'
p2
sS'imu_head'
p3
(dp4
S'yaw'
p5
S' 3.0625'
p6
sS'roll'
p7
S' 359.9375'
p8
sS'pitch'
p9
S'132.0625 '
p10
ssS'heart_rate'
p11
I0
sS'imu_torso'
p12
(dp13
g5
S' -1.4375'
p14
sg7
S' 182.9375\n'
p15
sg9
S'-90.1875 '
p16
ssS'steplength'
p17
g2
sS'timestamp'
p18
cdatetime
datetime
p19
(S'\x07\xe1\x0c\x13\x00\x00$\r\xfa '
p20
tp21
Rp22
sS'speed'
p23
g2
sS'cadence'
p24
g2
s.(dp0
S'blood_pressure'
p1
S'nd'
p2
sS'imu_head'
p3
(dp4
S'yaw'
p5
S' 3.0625'
p6
sS'roll'
p7
S' 359.9375'
p8
sS'pitch'
p9
S'132.0625 '
p10
ssS'heart_rate'
p11
I0
sS'imu_torso'
p12
(dp13
g5
S' -1.4375'
p14
sg7
S' 182.9375\n'
p15
sg9
S'-90.1875 '
p16
ssS'steplength'
p17
g2
sS'timestamp'
p18
cdatetime
datetime
p19
(S'\x07\xe1\x0c\x13\x00\x00%\x0f#\x00'
p20
tp21
Rp22
sS'speed'
p23
g2
sS'cadence'
p24
g2
s.(dp0
S'blood_pressure'
p1
S'nd'
p2
sS'imu_head'
p3
(dp4
S'yaw'
p5
S' 3.0625'
p6
sS'roll'
p7
S' 359.9375'
p8
sS'pitch'
p9
S'132.0625 '
p10
ssS'heart_rate'
p11
I0
sS'imu_torso'
p12
(dp13
g5
S' -1.4375'
p14
sg7
S' 182.9375\n'
p15
sg9
S'-90.1875 '
p16
ssS'steplength'
p17
g2
sS'timestamp'
p18
cdatetime
datetime
p19
(S"\x07\xe1\x0c\x13\x00\x00'\x01\x86\xa0"
p20
tp21
Rp22
sS'speed'
p23
g2
sS'cadence'
p24
g2
s.(dp0
S'blood_pressure'
p1
S'nd'
p2
sS'imu_head'
p3
(dp4
S'yaw'
p5
S' 3.0625'
p6
sS'roll'
p7
S' 359.9375'
p8
sS'pitch'
p9
S'132.0625 '
p10
ssS'heart_rate'
p11
I0
sS'imu_torso'
p12
(dp13
g5
S' -1.4375'
p14
sg7
S' 182.9375\n'
p15
sg9
S'-90.1875 '
p16
ssS'steplength'
p17
g2
sS'timestamp'
p18
cdatetime
datetime
p19
(S'\x07\xe1\x0c\x13\x00\x00(\x02]x'
p20
tp21
Rp22
sS'speed'
p23
g2
sS'cadence'
p24
g2
s.(dp0
S'blood_pressure'
p1
S'nd'
p2
sS'imu_head'
p3
(dp4
S'yaw'
p5
S' 3.0625'
p6
sS'roll'
p7
S' 359.9375'
p8
sS'pitch'
p9
S'132.0625 '
p10
ssS'heart_rate'
p11
I0
sS'imu_torso'
p12
(dp13
g5
S' -1.4375'
p14
sg7
S' 182.9375\n'
p15
sg9
S'-42.1875 '
p16
ssS'steplength'
p17
g2
sS'timestamp'
p18
cdatetime
datetime
p19
(S'\x07\xe1\x0c\x13\x00\x00)\x03_H'
p20
tp21
Rp22
sS'speed'
p23
g2
sS'cadence'
p24
g2
s.(dp0
S'blood_pressure'
p1
S'nd'
p2
sS'imu_head'
p3
(dp4
S'yaw'
p5
S' 3.0625'
p6
sS'roll'
p7
S' 359.9375'
p8
sS'pitch'
p9
S'132.0625 '
p10
ssS'heart_rate'
p11
I0
sS'imu_torso'
p12
(dp13
g5
S' -1.4375'
p14
sg7
S' 182.9375\n'
p15
sg9
S'-90.1875 '
p16
ssS'steplength'
p17
g2
sS'timestamp'
p18
cdatetime
datetime
p19
(S'\x07\xe1\x0c\x13\x00\x00*\x04\xca\x90'
p20
tp21
Rp22
sS'speed'
p23
g2
sS'cadence'
p24
g2
s.(dp0
S'blood_pressure'
p1
S'nd'
p2
sS'imu_head'
p3
(dp4
S'yaw'
p5
S' 3.0625'
p6
sS'roll'
p7
S' 359.9375'
p8
sS'pitch'
p9
S'132.0625 '
p10
ssS'heart_rate'
p11
I0
sS'imu_torso'
p12
(dp13
g5
S' -1.4375'
p14
sg7
S' 182.9375\n'
p15
sg9
S'-90.1875 '
p16
ssS'steplength'
p17
g2
sS'timestamp'
p18
cdatetime
datetime
p19
(S'\x07\xe1\x0c\x13\x00\x00+\x06\\\xe8'
p20
tp21
Rp22
sS'speed'
p23
g2
sS'cadence'
p24
g2
s.(dp0
S'blood_pressure'
p1
S'nd'
p2
sS'imu_head'
p3
(dp4
S'yaw'
p5
S' 3.0625'
p6
sS'roll'
p7
S' 359.9375'
p8
sS'pitch'
p9
S'68.0625 '
p10
ssS'heart_rate'
p11
I0
sS'imu_torso'
p12
(dp13
g5
S' -1.4375'
p14
sg7
S' 182.9375\n'
p15
sg9
S'-90.1875 '
p16
ssS'steplength'
p17
g2
sS'timestamp'
p18
cdatetime
datetime
p19
(S'\x07\xe1\x0c\x13\x00\x00,\x07\xd7\xd0'
p20
tp21
Rp22
sS'speed'
p23
g2
sS'cadence'
p24
g2
s.(dp0
S'blood_pressure'
p1
S'nd'
p2
sS'imu_head'
p3
(dp4
S'yaw'
p5
S' 3.0625'
p6
sS'roll'
p7
S' 359.875'
p8
sS'pitch'
p9
S'132.0625 '
p10
ssS'heart_rate'
p11
I0
sS'imu_torso'
p12
(dp13
g5
S' -1.4375'
p14
sg7
S' 182.9375\n'
p15
sg9
S'-90.1875 '
p16
ssS'steplength'
p17
g2
sS'timestamp'
p18
cdatetime
datetime
p19
(S'\x07\xe1\x0c\x13\x00\x00;\x01o0'
p20
tp21
Rp22
sS'speed'
p23
g2
sS'cadence'
p24
g2
s.(dp0
S'blood_pressure'
p1
S'nd'
p2
sS'imu_head'
p3
(dp4
S'yaw'
p5
S' 3.0625'
p6
sS'roll'
p7
S' 359.875'
p8
sS'pitch'
p9
S'132.0625 '
p10
ssS'heart_rate'
p11
I0
sS'imu_torso'
p12
(dp13
g5
S' -1.4375'
p14
sg7
S' 182.9375\n'
p15
sg9
S'-90.1875 '
p16
ssS'steplength'
p17
g2
sS'timestamp'
p18
cdatetime
datetime
p19
(S'\x07\xe1\x0c\x13\x00\x00;\x01\x9a('
p20
tp21
Rp22
sS'speed'
p23
g2
sS'cadence'
p24
g2
s.(dp0
S'blood_pressure'
p1
S'nd'
p2
sS'imu_head'
p3
(dp4
S'yaw'
p5
S' 3.0625'
p6
sS'roll'
p7
S' 359.875'
p8
sS'pitch'
p9
S'132.0625 '
p10
ssS'heart_rate'
p11
I0
sS'imu_torso'
p12
(dp13
g5
S' -1.4375'
p14
sg7
S' 182.9375\n'
p15
sg9
S'-90.1875 '
p16
ssS'steplength'
p17
g2
sS'timestamp'
p18
cdatetime
datetime
p19
(S'\x07\xe1\x0c\x13\x00\x00;\x01\xad\xb0'
p20
tp21
Rp22
sS'speed'
p23
g2
sS'cadence'
p24
g2
s.(dp0
S'blood_pressure'
p1
S'nd'
p2
sS'imu_head'
p3
(dp4
S'yaw'
p5
S' 3.0625'
p6
sS'roll'
p7
S' 359.875'
p8
sS'pitch'
p9
S'132.0625 '
p10
ssS'heart_rate'
p11
I0
sS'imu_torso'
p12
(dp13
g5
S' -1.4375'
p14
sg7
S' 182.9375\n'
p15
sg9
S'-90.1875 '
p16
ssS'steplength'
p17
g2
sS'timestamp'
p18
cdatetime
datetime
p19
(S'\x07\xe1\x0c\x13\x00\x00;\x01\xb1\x98'
p20
tp21
Rp22
sS'speed'
p23
g2
sS'cadence'
p24
g2
s.(dp0
S'blood_pressure'
p1
S'nd'
p2
sS'imu_head'
p3
(dp4
S'yaw'
p5
S' 3.0625'
p6
sS'roll'
p7
S' 359.875'
p8
sS'pitch'
p9
S'132.0625 '
p10
ssS'heart_rate'
p11
I0
sS'imu_torso'
p12
(dp13
g5
S' -1.4375'
p14
sg7
S' 182.9375\n'
p15
sg9
S'-90.1875 '
p16
ssS'steplength'
p17
g2
sS'timestamp'
p18
cdatetime
datetime
p19
(S'\x07\xe1\x0c\x13\x00\x00;\x01\xd0\xd8'
p20
tp21
Rp22
sS'speed'
p23
g2
sS'cadence'
p24
g2
s.(dp0
S'blood_pressure'
p1
S'nd'
p2
sS'imu_head'
p3
(dp4
S'yaw'
p5
S' 3.0625'
p6
sS'roll'
p7
S' 359.875'
p8
sS'pitch'
p9
S'132.0625 '
p10
ssS'heart_rate'
p11
I0
sS'imu_torso'
p12
(dp13
g5
S' -1.4375'
p14
sg7
S' 182.9375\n'
p15
sg9
S'-90.1875 '
p16
ssS'steplength'
p17
g2
sS'timestamp'
p18
cdatetime
datetime
p19
(S'\x07\xe1\x0c\x13\x00\x00;\x01\xd8\xa8'
p20
tp21
Rp22
sS'speed'
p23
g2
sS'cadence'
p24
g2
s.(dp0
S'blood_pressure'
p1
S'nd'
p2
sS'imu_head'
p3
(dp4
S'yaw'
p5
S' 3.0625'
p6
sS'roll'
p7
S' 359.875'
p8
sS'pitch'
p9
S'132.0625 '
p10
ssS'heart_rate'
p11
I0
sS'imu_torso'
p12
(dp13
g5
S' -1.4375'
p14
sg7
S' 182.9375\n'
p15
sg9
S'-90.1875 '
p16
ssS'steplength'
p17
g2
sS'timestamp'
p18
cdatetime
datetime
p19
(S'\x07\xe1\x0c\x13\x00\x00;\x01\xdc\x90'
p20
tp21
Rp22
sS'speed'
p23
g2
sS'cadence'
p24
g2
s.(dp0
S'blood_pressure'
p1
S'nd'
p2
sS'imu_head'
p3
(dp4
S'yaw'
p5
S' 3.0625'
p6
sS'roll'
p7
S' 359.875'
p8
sS'pitch'
p9
S'132.0625 '
p10
ssS'heart_rate'
p11
I0
sS'imu_torso'
p12
(dp13
g5
S' -1.4375'
p14
sg7
S' 182.9375\n'
p15
sg9
S'-90.1875 '
p16
ssS'steplength'
p17
g2
sS'timestamp'
p18
cdatetime
datetime
p19
(S'\x07\xe1\x0c\x13\x00\x00;\x01\xe0x'
p20
tp21
Rp22
sS'speed'
p23
g2
sS'cadence'
p24
g2
s.(dp0
S'blood_pressure'
p1
S'nd'
p2
sS'imu_head'
p3
(dp4
S'yaw'
p5
S' 3.0625'
p6
sS'roll'
p7
S' 359.875'
p8
sS'pitch'
p9
S'132.0625 '
p10
ssS'heart_rate'
p11
I0
sS'imu_torso'
p12
(dp13
g5
S' -1.4375'
p14
sg7
S' 182.9375\n'
p15
sg9
S'-90.1875 '
p16
ssS'steplength'
p17
g2
sS'timestamp'
p18
cdatetime
datetime
p19
(S'\x07\xe1\x0c\x13\x00\x00;\x01\xf0\x18'
p20
tp21
Rp22
sS'speed'
p23
g2
sS'cadence'
p24
g2
s.(dp0
S'blood_pressure'
p1
S'nd'
p2
sS'imu_head'
p3
(dp4
S'yaw'
p5
S' 3.0625'
p6
sS'roll'
p7
S' 359.875'
p8
sS'pitch'
p9
S'132.0625 '
p10
ssS'heart_rate'
p11
I0
sS'imu_torso'
p12
(dp13
g5
S' -1.4375'
p14
sg7
S' 182.9375\n'
p15
sg9
S'-90.1875 '
p16
ssS'steplength'
p17
g2
sS'timestamp'
p18
cdatetime
datetime
p19
(S'\x07\xe1\x0c\x13\x00\x00;\x02\x13@'
p20
tp21
Rp22
sS'speed'
p23
g2
sS'cadence'
p24
g2
s.(dp0
S'blood_pressure'
p1
S'nd'
p2
sS'imu_head'
p3
(dp4
S'yaw'
p5
S' 3.0625'
p6
sS'roll'
p7
S' 359.875'
p8
sS'pitch'
p9
S'132.0625 '
p10
ssS'heart_rate'
p11
I0
sS'imu_torso'
p12
(dp13
g5
S' -1.4375'
p14
sg7
S' 182.9375\n'
p15
sg9
S'-90.1875 '
p16
ssS'steplength'
p17
g2
sS'timestamp'
p18
cdatetime
datetime
p19
(S'\x07\xe1\x0c\x13\x00\x00;\x02*\xb0'
p20
tp21
Rp22
sS'speed'
p23
g2
sS'cadence'
p24
g2
s.(dp0
S'blood_pressure'
p1
S'nd'
p2
sS'imu_head'
p3
(dp4
S'yaw'
p5
S' 3.0625'
p6
sS'roll'
p7
S' 359.875'
p8
sS'pitch'
p9
S'132.0625 '
p10
ssS'heart_rate'
p11
I0
sS'imu_torso'
p12
(dp13
g5
S' -1.4375'
p14
sg7
S' 182.9375\n'
p15
sg9
S'-90.1875 '
p16
ssS'steplength'
p17
g2
sS'timestamp'
p18
cdatetime
datetime
p19
(S'\x07\xe1\x0c\x13\x00\x00;\x02:P'
p20
tp21
Rp22
sS'speed'
p23
g2
sS'cadence'
p24
g2
s.(dp0
S'blood_pressure'
p1
S'nd'
p2
sS'imu_head'
p3
(dp4
S'yaw'
p5
S' 3.0625'
p6
sS'roll'
p7
S' 359.875'
p8
sS'pitch'
p9
S'132.0625 '
p10
ssS'heart_rate'
p11
I0
sS'imu_torso'
p12
(dp13
g5
S' -1.4375'
p14
sg7
S' 182.9375\n'
p15
sg9
S'-90.1875 '
p16
ssS'steplength'
p17
g2
sS'timestamp'
p18
cdatetime
datetime
p19
(S'\x07\xe1\x0c\x13\x00\x00;\x02>8'
p20
tp21
Rp22
sS'speed'
p23
g2
sS'cadence'
p24
g2
s.