(dp0
S'blood_pressure'
p1
S'nd'
p2
sS'imu_head'
p3
(dp4
S'yaw'
p5
I0
sS'roll'
p6
I0
sS'pitch'
p7
I0
ssS'heart_rate'
p8
I0
sS'imu_torso'
p9
(dp10
g5
I0
sg6
I0
sg7
I0
ssS'steplength'
p11
g2
sS'timestamp'
p12
cdatetime
datetime
p13
(S'\x07\xe1\x0c\x12\x17\x1e.\x02:P'
p14
tp15
Rp16
sS'speed'
p17
g2
sS'cadence'
p18
g2
s.(dp0
S'blood_pressure'
p1
S'nd'
p2
sS'imu_head'
p3
(dp4
S'yaw'
p5
I0
sS'roll'
p6
I0
sS'pitch'
p7
I0
ssS'heart_rate'
p8
I0
sS'imu_torso'
p9
(dp10
g5
I0
sg6
I0
sg7
I0
ssS'steplength'
p11
g2
sS'timestamp'
p12
cdatetime
datetime
p13
(S'\x07\xe1\x0c\x12\x17\x1e/\x03\tX'
p14
tp15
Rp16
sS'speed'
p17
g2
sS'cadence'
p18
g2
s.(dp0
S'blood_pressure'
p1
S'nd'
p2
sS'imu_head'
p3
(dp4
S'yaw'
p5
I0
sS'roll'
p6
I0
sS'pitch'
p7
I0
ssS'heart_rate'
p8
I0
sS'imu_torso'
p9
(dp10
g5
I0
sg6
I0
sg7
I0
ssS'steplength'
p11
g2
sS'timestamp'
p12
cdatetime
datetime
p13
(S'\x07\xe1\x0c\x12\x17\x1e0\x03\xb58'
p14
tp15
Rp16
sS'speed'
p17
g2
sS'cadence'
p18
g2
s.(dp0
S'blood_pressure'
p1
S'nd'
p2
sS'imu_head'
p3
(dp4
S'yaw'
p5
I0
sS'roll'
p6
I0
sS'pitch'
p7
I0
ssS'heart_rate'
p8
I0
sS'imu_torso'
p9
(dp10
g5
I0
sg6
I0
sg7
I0
ssS'steplength'
p11
g2
sS'timestamp'
p12
cdatetime
datetime
p13
(S'\x07\xe1\x0c\x12\x17\x1e1\x04\x0f\x10'
p14
tp15
Rp16
sS'speed'
p17
g2
sS'cadence'
p18
g2
s.(dp0
S'blood_pressure'
p1
S'nd'
p2
sS'imu_head'
p3
(dp4
S'yaw'
p5
I0
sS'roll'
p6
I0
sS'pitch'
p7
I0
ssS'heart_rate'
p8
I0
sS'imu_torso'
p9
(dp10
g5
I0
sg6
I0
sg7
I0
ssS'steplength'
p11
g2
sS'timestamp'
p12
cdatetime
datetime
p13
(S'\x07\xe1\x0c\x12\x17\x1e2\x04|p'
p14
tp15
Rp16
sS'speed'
p17
g2
sS'cadence'
p18
g2
s.(dp0
S'blood_pressure'
p1
S'nd'
p2
sS'imu_head'
p3
(dp4
S'yaw'
p5
I0
sS'roll'
p6
I0
sS'pitch'
p7
I0
ssS'heart_rate'
p8
I0
sS'imu_torso'
p9
(dp10
g5
I0
sg6
I0
sg7
I0
ssS'steplength'
p11
g2
sS'timestamp'
p12
cdatetime
datetime
p13
(S'\x07\xe1\x0c\x12\x17\x1e3\x05\x0c\xf8'
p14
tp15
Rp16
sS'speed'
p17
g2
sS'cadence'
p18
g2
s.(dp0
S'blood_pressure'
p1
S'nd'
p2
sS'imu_head'
p3
(dp4
S'yaw'
p5
I0
sS'roll'
p6
I0
sS'pitch'
p7
I0
ssS'heart_rate'
p8
I0
sS'imu_torso'
p9
(dp10
g5
I0
sg6
I0
sg7
I0
ssS'steplength'
p11
g2
sS'timestamp'
p12
cdatetime
datetime
p13
(S'\x07\xe1\x0c\x12\x17\x1e4\x069\xc0'
p14
tp15
Rp16
sS'speed'
p17
g2
sS'cadence'
p18
g2
s.(dp0
S'blood_pressure'
p1
S'nd'
p2
sS'imu_head'
p3
(dp4
S'yaw'
p5
I0
sS'roll'
p6
I0
sS'pitch'
p7
I0
ssS'heart_rate'
p8
I0
sS'imu_torso'
p9
(dp10
g5
I0
sg6
I0
sg7
I0
ssS'steplength'
p11
g2
sS'timestamp'
p12
cdatetime
datetime
p13
(S'\x07\xe1\x0c\x12\x17\x1e5\x06\xae\xf0'
p14
tp15
Rp16
sS'speed'
p17
g2
sS'cadence'
p18
g2
s.(dp0
S'blood_pressure'
p1
S'nd'
p2
sS'imu_head'
p3
(dp4
S'yaw'
p5
I0
sS'roll'
p6
I0
sS'pitch'
p7
I0
ssS'heart_rate'
p8
I0
sS'imu_torso'
p9
(dp10
g5
I0
sg6
I0
sg7
I0
ssS'steplength'
p11
g2
sS'timestamp'
p12
cdatetime
datetime
p13
(S'\x07\xe1\x0c\x12\x17\x1e6\x077\xa8'
p14
tp15
Rp16
sS'speed'
p17
g2
sS'cadence'
p18
g2
s.(dp0
S'blood_pressure'
p1
S'nd'
p2
sS'imu_head'
p3
(dp4
S'yaw'
p5
I0
sS'roll'
p6
I0
sS'pitch'
p7
I0
ssS'heart_rate'
p8
I0
sS'imu_torso'
p9
(dp10
g5
I0
sg6
I0
sg7
I0
ssS'steplength'
p11
g2
sS'timestamp'
p12
cdatetime
datetime
p13
(S'\x07\xe1\x0c\x12\x17\x1e7\x07\x08\xc8'
p14
tp15
Rp16
sS'speed'
p17
g2
sS'cadence'
p18
g2
s.(dp0
S'blood_pressure'
p1
S'nd'
p2
sS'imu_head'
p3
(dp4
S'yaw'
p5
I0
sS'roll'
p6
I0
sS'pitch'
p7
I0
ssS'heart_rate'
p8
I0
sS'imu_torso'
p9
(dp10
g5
I0
sg6
I0
sg7
I0
ssS'steplength'
p11
g2
sS'timestamp'
p12
cdatetime
datetime
p13
(S'\x07\xe1\x0c\x12\x17\x1e8\x07r@'
p14
tp15
Rp16
sS'speed'
p17
g2
sS'cadence'
p18
g2
s.(dp0
S'blood_pressure'
p1
S'nd'
p2
sS'imu_head'
p3
(dp4
S'yaw'
p5
I0
sS'roll'
p6
I0
sS'pitch'
p7
I0
ssS'heart_rate'
p8
I0
sS'imu_torso'
p9
(dp10
g5
I0
sg6
I0
sg7
I0
ssS'steplength'
p11
g2
sS'timestamp'
p12
cdatetime
datetime
p13
(S'\x07\xe1\x0c\x12\x17\x1e9\x08\x8b\x80'
p14
tp15
Rp16
sS'speed'
p17
g2
sS'cadence'
p18
g2
s.(dp0
S'blood_pressure'
p1
S'nd'
p2
sS'imu_head'
p3
(dp4
S'yaw'
p5
I0
sS'roll'
p6
I0
sS'pitch'
p7
I0
ssS'heart_rate'
p8
I0
sS'imu_torso'
p9
(dp10
g5
I0
sg6
I0
sg7
I0
ssS'steplength'
p11
g2
sS'timestamp'
p12
cdatetime
datetime
p13
(S'\x07\xe1\x0c\x12\x17\x1e:\x08\xd5\xb8'
p14
tp15
Rp16
sS'speed'
p17
g2
sS'cadence'
p18
g2
s.(dp0
S'blood_pressure'
p1
S'nd'
p2
sS'imu_head'
p3
(dp4
S'yaw'
p5
I0
sS'roll'
p6
I0
sS'pitch'
p7
I0
ssS'heart_rate'
p8
I0
sS'imu_torso'
p9
(dp10
g5
I0
sg6
I0
sg7
I0
ssS'steplength'
p11
g2
sS'timestamp'
p12
cdatetime
datetime
p13
(S'\x07\xe1\x0c\x12\x17\x1e;\t\x1c\x08'
p14
tp15
Rp16
sS'speed'
p17
g2
sS'cadence'
p18
g2
s.(dp0
S'blood_pressure'
p1
S'nd'
p2
sS'imu_head'
p3
(dp4
S'yaw'
p5
I0
sS'roll'
p6
I0
sS'pitch'
p7
I0
ssS'heart_rate'
p8
I0
sS'imu_torso'
p9
(dp10
g5
I0
sg6
I0
sg7
I0
ssS'steplength'
p11
g2
sS'timestamp'
p12
cdatetime
datetime
p13
(S'\x07\xe1\x0c\x12\x17\x1f\x00\tbX'
p14
tp15
Rp16
sS'speed'
p17
g2
sS'cadence'
p18
g2
s.(dp0
S'blood_pressure'
p1
S'nd'
p2
sS'imu_head'
p3
(dp4
S'yaw'
p5
I0
sS'roll'
p6
I0
sS'pitch'
p7
I0
ssS'heart_rate'
p8
I0
sS'imu_torso'
p9
(dp10
g5
I0
sg6
I0
sg7
I0
ssS'steplength'
p11
g2
sS'timestamp'
p12
cdatetime
datetime
p13
(S'\x07\xe1\x0c\x12\x17\x1f\x01\t\xeb\x10'
p14
tp15
Rp16
sS'speed'
p17
g2
sS'cadence'
p18
g2
s.(dp0
S'blood_pressure'
p1
S'nd'
p2
sS'imu_head'
p3
(dp4
S'yaw'
p5
I0
sS'roll'
p6
I0
sS'pitch'
p7
I0
ssS'heart_rate'
p8
I0
sS'imu_torso'
p9
(dp10
g5
I0
sg6
I0
sg7
I0
ssS'steplength'
p11
g2
sS'timestamp'
p12
cdatetime
datetime
p13
(S'\x07\xe1\x0c\x12\x17\x1f\x02\n\xb60'
p14
tp15
Rp16
sS'speed'
p17
g2
sS'cadence'
p18
g2
s.(dp0
S'blood_pressure'
p1
S'nd'
p2
sS'imu_head'
p3
(dp4
S'yaw'
p5
I0
sS'roll'
p6
I0
sS'pitch'
p7
I0
ssS'heart_rate'
p8
I0
sS'imu_torso'
p9
(dp10
g5
I0
sg6
I0
sg7
I0
ssS'steplength'
p11
g2
sS'timestamp'
p12
cdatetime
datetime
p13
(S'\x07\xe1\x0c\x12\x17\x1f\x03\n\xd5p'
p14
tp15
Rp16
sS'speed'
p17
g2
sS'cadence'
p18
g2
s.(dp0
S'blood_pressure'
p1
S'nd'
p2
sS'imu_head'
p3
(dp4
S'yaw'
p5
I0
sS'roll'
p6
I0
sS'pitch'
p7
I0
ssS'heart_rate'
p8
I0
sS'imu_torso'
p9
(dp10
g5
I0
sg6
I0
sg7
I0
ssS'steplength'
p11
g2
sS'timestamp'
p12
cdatetime
datetime
p13
(S'\x07\xe1\x0c\x12\x17\x1f\x04\x0b\x13\xf0'
p14
tp15
Rp16
sS'speed'
p17
g2
sS'cadence'
p18
g2
s.(dp0
S'blood_pressure'
p1
S'nd'
p2
sS'imu_head'
p3
(dp4
S'yaw'
p5
I0
sS'roll'
p6
I0
sS'pitch'
p7
I0
ssS'heart_rate'
p8
I0
sS'imu_torso'
p9
(dp10
g5
I0
sg6
I0
sg7
I0
ssS'steplength'
p11
g2
sS'timestamp'
p12
cdatetime
datetime
p13
(S'\x07\xe1\x0c\x12\x17\x1f\x05\x0bB\xd0'
p14
tp15
Rp16
sS'speed'
p17
g2
sS'cadence'
p18
g2
s.(dp0
S'blood_pressure'
p1
S'nd'
p2
sS'imu_head'
p3
(dp4
S'yaw'
p5
I0
sS'roll'
p6
I0
sS'pitch'
p7
I0
ssS'heart_rate'
p8
I0
sS'imu_torso'
p9
(dp10
g5
I0
sg6
I0
sg7
I0
ssS'steplength'
p11
g2
sS'timestamp'
p12
cdatetime
datetime
p13
(S'\x07\xe1\x0c\x12\x17\x1f\x06\r\x00 '
p14
tp15
Rp16
sS'speed'
p17
g2
sS'cadence'
p18
g2
s.(dp0
S'blood_pressure'
p1
S'nd'
p2
sS'imu_head'
p3
(dp4
S'yaw'
p5
I0
sS'roll'
p6
I0
sS'pitch'
p7
I0
ssS'heart_rate'
p8
I0
sS'imu_torso'
p9
(dp10
g5
I0
sg6
I0
sg7
I0
ssS'steplength'
p11
g2
sS'timestamp'
p12
cdatetime
datetime
p13
(S'\x07\xe1\x0c\x12\x17\x1f\x07\x0c@\xb8'
p14
tp15
Rp16
sS'speed'
p17
g2
sS'cadence'
p18
g2
s.(dp0
S'blood_pressure'
p1
S'nd'
p2
sS'imu_head'
p3
(dp4
S'yaw'
p5
I0
sS'roll'
p6
I0
sS'pitch'
p7
I0
ssS'heart_rate'
p8
I0
sS'imu_torso'
p9
(dp10
g5
I0
sg6
I0
sg7
I0
ssS'steplength'
p11
g2
sS'timestamp'
p12
cdatetime
datetime
p13
(S'\x07\xe1\x0c\x12\x17\x1f\x08\x0c\xa2`'
p14
tp15
Rp16
sS'speed'
p17
g2
sS'cadence'
p18
g2
s.(dp0
S'blood_pressure'
p1
S'nd'
p2
sS'imu_head'
p3
(dp4
S'yaw'
p5
I0
sS'roll'
p6
I0
sS'pitch'
p7
I0
ssS'heart_rate'
p8
I0
sS'imu_torso'
p9
(dp10
g5
I0
sg6
I0
sg7
I0
ssS'steplength'
p11
g2
sS'timestamp'
p12
cdatetime
datetime
p13
(S'\x07\xe1\x0c\x12\x17\x1f\t\x0c\xb9\xd0'
p14
tp15
Rp16
sS'speed'
p17
g2
sS'cadence'
p18
g2
s.(dp0
S'blood_pressure'
p1
S'nd'
p2
sS'imu_head'
p3
(dp4
S'yaw'
p5
I0
sS'roll'
p6
I0
sS'pitch'
p7
I0
ssS'heart_rate'
p8
I0
sS'imu_torso'
p9
(dp10
g5
I0
sg6
I0
sg7
I0
ssS'steplength'
p11
g2
sS'timestamp'
p12
cdatetime
datetime
p13
(S'\x07\xe1\x0c\x12\x17\x1f\n\r\x1bx'
p14
tp15
Rp16
sS'speed'
p17
g2
sS'cadence'
p18
g2
s.(dp0
S'blood_pressure'
p1
S'nd'
p2
sS'imu_head'
p3
(dp4
S'yaw'
p5
I0
sS'roll'
p6
I0
sS'pitch'
p7
I0
ssS'heart_rate'
p8
I0
sS'imu_torso'
p9
(dp10
g5
I0
sg6
I0
sg7
I0
ssS'steplength'
p11
g2
sS'timestamp'
p12
cdatetime
datetime
p13
(S'\x07\xe1\x0c\x12\x17\x1f\x0b\r\x81\x08'
p14
tp15
Rp16
sS'speed'
p17
g2
sS'cadence'
p18
g2
s.(dp0
S'blood_pressure'
p1
S'nd'
p2
sS'imu_head'
p3
(dp4
S'yaw'
p5
I0
sS'roll'
p6
I0
sS'pitch'
p7
I0
ssS'heart_rate'
p8
I0
sS'imu_torso'
p9
(dp10
g5
I0
sg6
I0
sg7
I0
ssS'steplength'
p11
g2
sS'timestamp'
p12
cdatetime
datetime
p13
(S'\x07\xe1\x0c\x12\x17\x1f\x0c\r\x9c`'
p14
tp15
Rp16
sS'speed'
p17
g2
sS'cadence'
p18
g2
s.(dp0
S'blood_pressure'
p1
S'nd'
p2
sS'imu_head'
p3
(dp4
S'yaw'
p5
I0
sS'roll'
p6
I0
sS'pitch'
p7
I0
ssS'heart_rate'
p8
I0
sS'imu_torso'
p9
(dp10
g5
I0
sg6
I0
sg7
I0
ssS'steplength'
p11
g2
sS'timestamp'
p12
cdatetime
datetime
p13
(S'\x07\xe1\x0c\x12\x17\x1f\r\x0e,\xe8'
p14
tp15
Rp16
sS'speed'
p17
g2
sS'cadence'
p18
g2
s.(dp0
S'blood_pressure'
p1
S'nd'
p2
sS'imu_head'
p3
(dp4
S'yaw'
p5
I0
sS'roll'
p6
I0
sS'pitch'
p7
I0
ssS'heart_rate'
p8
I0
sS'imu_torso'
p9
(dp10
g5
I0
sg6
I0
sg7
I0
ssS'steplength'
p11
g2
sS'timestamp'
p12
cdatetime
datetime
p13
(S'\x07\xe1\x0c\x12\x17\x1f\x0f\t\xcb\xd0'
p14
tp15
Rp16
sS'speed'
p17
g2
sS'cadence'
p18
g2
s.(dp0
S'blood_pressure'
p1
S'nd'
p2
sS'imu_head'
p3
(dp4
S'yaw'
p5
I0
sS'roll'
p6
I0
sS'pitch'
p7
I0
ssS'heart_rate'
p8
I0
sS'imu_torso'
p9
(dp10
g5
I0
sg6
I0
sg7
I0
ssS'steplength'
p11
g2
sS'timestamp'
p12
cdatetime
datetime
p13
(S'\x07\xe1\x0c\x12\x17\x1f\x10\x00Y\xd8'
p14
tp15
Rp16
sS'speed'
p17
g2
sS'cadence'
p18
g2
s.(dp0
S'blood_pressure'
p1
S'nd'
p2
sS'imu_head'
p3
(dp4
S'yaw'
p5
I0
sS'roll'
p6
I0
sS'pitch'
p7
I0
ssS'heart_rate'
p8
I0
sS'imu_torso'
p9
(dp10
g5
I0
sg6
I0
sg7
I0
ssS'steplength'
p11
g2
sS'timestamp'
p12
cdatetime
datetime
p13
(S'\x07\xe1\x0c\x12\x17\x1f\x11\x00\xd6\xd8'
p14
tp15
Rp16
sS'speed'
p17
g2
sS'cadence'
p18
g2
s.(dp0
S'blood_pressure'
p1
S'nd'
p2
sS'imu_head'
p3
(dp4
S'yaw'
p5
I0
sS'roll'
p6
I0
sS'pitch'
p7
I0
ssS'heart_rate'
p8
I0
sS'imu_torso'
p9
(dp10
g5
I0
sg6
I0
sg7
I0
ssS'steplength'
p11
g2
sS'timestamp'
p12
cdatetime
datetime
p13
(S'\x07\xe1\x0c\x12\x17\x1f\x12\x01L\x08'
p14
tp15
Rp16
sS'speed'
p17
g2
sS'cadence'
p18
g2
s.(dp0
S'blood_pressure'
p1
S'nd'
p2
sS'imu_head'
p3
(dp4
S'yaw'
p5
I0
sS'roll'
p6
I0
sS'pitch'
p7
I0
ssS'heart_rate'
p8
I0
sS'imu_torso'
p9
(dp10
g5
I0
sg6
I0
sg7
I0
ssS'steplength'
p11
g2
sS'timestamp'
p12
cdatetime
datetime
p13
(S'\x07\xe1\x0c\x12\x17\x1f\x1e\t\xe3@'
p14
tp15
Rp16
sS'speed'
p17
g2
sS'cadence'
p18
g2
s.(dp0
S'blood_pressure'
p1
S'nd'
p2
sS'imu_head'
p3
(dp4
S'yaw'
p5
I0
sS'roll'
p6
I0
sS'pitch'
p7
I0
ssS'heart_rate'
p8
I0
sS'imu_torso'
p9
(dp10
g5
I0
sg6
I0
sg7
I0
ssS'steplength'
p11
g2
sS'timestamp'
p12
cdatetime
datetime
p13
(S'\x07\xe1\x0c\x12\x17\x1f\x1e\t\xfe\x98'
p14
tp15
Rp16
sS'speed'
p17
g2
sS'cadence'
p18
g2
s.(dp0
S'blood_pressure'
p1
S'nd'
p2
sS'imu_head'
p3
(dp4
S'yaw'
p5
I0
sS'roll'
p6
I0
sS'pitch'
p7
I0
ssS'heart_rate'
p8
I0
sS'imu_torso'
p9
(dp10
g5
I0
sg6
I0
sg7
I0
ssS'steplength'
p11
g2
sS'timestamp'
p12
cdatetime
datetime
p13
(S'\x07\xe1\x0c\x12\x17\x1f\x1e\n\x16\x08'
p14
tp15
Rp16
sS'speed'
p17
g2
sS'cadence'
p18
g2
s.(dp0
S'blood_pressure'
p1
S'nd'
p2
sS'imu_head'
p3
(dp4
S'yaw'
p5
I0
sS'roll'
p6
I0
sS'pitch'
p7
I0
ssS'heart_rate'
p8
I0
sS'imu_torso'
p9
(dp10
g5
I0
sg6
I0
sg7
I0
ssS'steplength'
p11
g2
sS'timestamp'
p12
cdatetime
datetime
p13
(S'\x07\xe1\x0c\x12\x17\x1f\x1e\n1`'
p14
tp15
Rp16
sS'speed'
p17
g2
sS'cadence'
p18
g2
s.(dp0
S'blood_pressure'
p1
S'nd'
p2
sS'imu_head'
p3
(dp4
S'yaw'
p5
I0
sS'roll'
p6
I0
sS'pitch'
p7
I0
ssS'heart_rate'
p8
I0
sS'imu_torso'
p9
(dp10
g5
I0
sg6
I0
sg7
I0
ssS'steplength'
p11
g2
sS'timestamp'
p12
cdatetime
datetime
p13
(S'\x07\xe1\x0c\x12\x17\x1f\x1e\nA\x00'
p14
tp15
Rp16
sS'speed'
p17
g2
sS'cadence'
p18
g2
s.(dp0
S'blood_pressure'
p1
S'nd'
p2
sS'imu_head'
p3
(dp4
S'yaw'
p5
I0
sS'roll'
p6
I0
sS'pitch'
p7
I0
ssS'heart_rate'
p8
I0
sS'imu_torso'
p9
(dp10
g5
I0
sg6
I0
sg7
I0
ssS'steplength'
p11
g2
sS'timestamp'
p12
cdatetime
datetime
p13
(S'\x07\xe1\x0c\x12\x17\x1f\x1e\nL\xb8'
p14
tp15
Rp16
sS'speed'
p17
g2
sS'cadence'
p18
g2
s.(dp0
S'blood_pressure'
p1
S'nd'
p2
sS'imu_head'
p3
(dp4
S'yaw'
p5
I0
sS'roll'
p6
I0
sS'pitch'
p7
I0
ssS'heart_rate'
p8
I0
sS'imu_torso'
p9
(dp10
g5
I0
sg6
I0
sg7
I0
ssS'steplength'
p11
g2
sS'timestamp'
p12
cdatetime
datetime
p13
(S'\x07\xe1\x0c\x12\x17\x1f\x1e\nh\x10'
p14
tp15
Rp16
sS'speed'
p17
g2
sS'cadence'
p18
g2
s.(dp0
S'blood_pressure'
p1
S'nd'
p2
sS'imu_head'
p3
(dp4
S'yaw'
p5
I0
sS'roll'
p6
I0
sS'pitch'
p7
I0
ssS'heart_rate'
p8
I0
sS'imu_torso'
p9
(dp10
g5
I0
sg6
I0
sg7
I0
ssS'steplength'
p11
g2
sS'timestamp'
p12
cdatetime
datetime
p13
(S'\x07\xe1\x0c\x12\x17\x1f\x1e\no\xe0'
p14
tp15
Rp16
sS'speed'
p17
g2
sS'cadence'
p18
g2
s.(dp0
S'blood_pressure'
p1
S'nd'
p2
sS'imu_head'
p3
(dp4
S'yaw'
p5
I0
sS'roll'
p6
I0
sS'pitch'
p7
I0
ssS'heart_rate'
p8
I0
sS'imu_torso'
p9
(dp10
g5
I0
sg6
I0
sg7
I0
ssS'steplength'
p11
g2
sS'timestamp'
p12
cdatetime
datetime
p13
(S'\x07\xe1\x0c\x12\x17\x1f\x1e\nw\xb0'
p14
tp15
Rp16
sS'speed'
p17
g2
sS'cadence'
p18
g2
s.(dp0
S'blood_pressure'
p1
S'nd'
p2
sS'imu_head'
p3
(dp4
S'yaw'
p5
I0
sS'roll'
p6
I0
sS'pitch'
p7
I0
ssS'heart_rate'
p8
I0
sS'imu_torso'
p9
(dp10
g5
I0
sg6
I0
sg7
I0
ssS'steplength'
p11
g2
sS'timestamp'
p12
cdatetime
datetime
p13
(S'\x07\xe1\x0c\x12\x17\x1f\x1e\n\x9a\xd8'
p14
tp15
Rp16
sS'speed'
p17
g2
sS'cadence'
p18
g2
s.(dp0
S'blood_pressure'
p1
S'nd'
p2
sS'imu_head'
p3
(dp4
S'yaw'
p5
I0
sS'roll'
p6
I0
sS'pitch'
p7
I0
ssS'heart_rate'
p8
I0
sS'imu_torso'
p9
(dp10
g5
I0
sg6
I0
sg7
I0
ssS'steplength'
p11
g2
sS'timestamp'
p12
cdatetime
datetime
p13
(S'\x07\xe1\x0c\x12\x17\x1f\x1e\n\xae`'
p14
tp15
Rp16
sS'speed'
p17
g2
sS'cadence'
p18
g2
s.(dp0
S'blood_pressure'
p1
S'nd'
p2
sS'imu_head'
p3
(dp4
S'yaw'
p5
I0
sS'roll'
p6
I0
sS'pitch'
p7
I0
ssS'heart_rate'
p8
I0
sS'imu_torso'
p9
(dp10
g5
I0
sg6
I0
sg7
I0
ssS'steplength'
p11
g2
sS'timestamp'
p12
cdatetime
datetime
p13
(S'\x07\xe1\x0c\x12\x17\x1f\x1e\n\xc5\xd0'
p14
tp15
Rp16
sS'speed'
p17
g2
sS'cadence'
p18
g2
s.