(dp0
S'blood_pressure'
p1
S'nd'
p2
sS'imu_head'
p3
(dp4
S'yaw'
p5
F13.8448661946454
sS'roll'
p6
F0.016254684042225076
sS'pitch'
p7
F19.557749827422303
ssS'heart_rate'
p8
F2.0384039299564893
sS'imu_torso'
p9
(dp10
g5
F0.4178607415061619
sg6
F0.01690774289588859
sg7
F12.373628875389379
ssS'steplength'
p11
g2
sS'timestamp'
p12
cdatetime
datetime
p13
(S'\x07\xe1\x0c\x13\x0c(\x18\r\xa8\x18'
p14
tp15
Rp16
sS'speed'
p17
g2
sS'cadence'
p18
g2
s.(dp0
S'blood_pressure'
p1
S'nd'
p2
sS'imu_head'
p3
(dp4
S'yaw'
p5
F14.132461773381893
sS'roll'
p6
F11.11099787410327
sS'pitch'
p7
F5.444186460931313
ssS'heart_rate'
p8
F97.76204350791873
sS'imu_torso'
p9
(dp10
g5
F12.563879755689944
sg6
F18.794323464627965
sg7
F11.90780808535621
ssS'steplength'
p11
g2
sS'timestamp'
p12
cdatetime
datetime
p13
(S'\x07\xe1\x0c\x13\x0c(\x19\r\xaf\xe8'
p14
tp15
Rp16
sS'speed'
p17
g2
sS'cadence'
p18
g2
s.(dp0
S'blood_pressure'
p1
S'nd'
p2
sS'imu_head'
p3
(dp4
S'yaw'
p5
F14.840868754415117
sS'roll'
p6
F13.443706622954616
sS'pitch'
p7
F2.6636752254718377
ssS'heart_rate'
p8
F44.5558847565943
sS'imu_torso'
p9
(dp10
g5
F6.588718926841823
sg6
F5.1200591043879236
sg7
F15.794599952260198
ssS'steplength'
p11
g2
sS'timestamp'
p12
cdatetime
datetime
p13
(S'\x07\xe1\x0c\x13\x0c(\x1a\r\xb3\xd0'
p14
tp15
Rp16
sS'speed'
p17
g2
sS'cadence'
p18
g2
s.(dp0
S'blood_pressure'
p1
S'nd'
p2
sS'imu_head'
p3
(dp4
S'yaw'
p5
F5.179191776844158
sS'roll'
p6
F15.468614448054712
sS'pitch'
p7
F13.546021530879596
ssS'heart_rate'
p8
F49.147636464842336
sS'imu_torso'
p9
(dp10
g5
F12.175357721859088
sg6
F4.383646138628032
sg7
F18.21142253801105
ssS'steplength'
p11
g2
sS'timestamp'
p12
cdatetime
datetime
p13
(S'\x07\xe1\x0c\x13\x0c(\x1b\r\xbf\x88'
p14
tp15
Rp16
sS'speed'
p17
g2
sS'cadence'
p18
g2
s.(dp0
S'blood_pressure'
p1
S'nd'
p2
sS'imu_head'
p3
(dp4
S'yaw'
p5
F1.7426994496735282
sS'roll'
p6
F8.030104097192911
sS'pitch'
p7
F11.086654689320719
ssS'heart_rate'
p8
F81.19271850209037
sS'imu_torso'
p9
(dp10
g5
F2.9563543587483254
sg6
F3.1598807149178887
sg7
F1.4244253939953389
ssS'steplength'
p11
g2
sS'timestamp'
p12
cdatetime
datetime
p13
(S'\x07\xe1\x0c\x13\x0c(\x1c\r\xc3p'
p14
tp15
Rp16
sS'speed'
p17
g2
sS'cadence'
p18
g2
s.(dp0
S'blood_pressure'
p1
S'nd'
p2
sS'imu_head'
p3
(dp4
S'yaw'
p5
F13.636630030074654
sS'roll'
p6
F3.6147750992103256
sS'pitch'
p7
F12.543082123059751
ssS'heart_rate'
p8
F37.628745590172066
sS'imu_torso'
p9
(dp10
g5
F16.18464522635505
sg6
F18.235061398349814
sg7
F11.734147439534187
ssS'steplength'
p11
g2
sS'timestamp'
p12
cdatetime
datetime
p13
(S'\x07\xe1\x0c\x13\x0c(\x1d\r\xc7X'
p14
tp15
Rp16
sS'speed'
p17
g2
sS'cadence'
p18
g2
s.(dp0
S'blood_pressure'
p1
S'nd'
p2
sS'imu_head'
p3
(dp4
S'yaw'
p5
F12.464869195260118
sS'roll'
p6
F4.312550369543635
sS'pitch'
p7
F11.495410315002657
ssS'heart_rate'
p8
F25.533720149928573
sS'imu_torso'
p9
(dp10
g5
F17.4561063618967
sg6
F17.10153838028708
sg7
F2.181499362350776
ssS'steplength'
p11
g2
sS'timestamp'
p12
cdatetime
datetime
p13
(S'\x07\xe1\x0c\x13\x0c(\x1e\r\xcf('
p14
tp15
Rp16
sS'speed'
p17
g2
sS'cadence'
p18
g2
s.(dp0
S'blood_pressure'
p1
S'nd'
p2
sS'imu_head'
p3
(dp4
S'yaw'
p5
F15.679045639382565
sS'roll'
p6
F10.162614893632707
sS'pitch'
p7
F13.14786734496387
ssS'heart_rate'
p8
F32.40907588983022
sS'imu_torso'
p9
(dp10
g5
F12.868100474544965
sg6
F6.695006226558851
sg7
F1.0427603315026945
ssS'steplength'
p11
g2
sS'timestamp'
p12
cdatetime
datetime
p13
(S'\x07\xe1\x0c\x13\x0c(\x1f\r\xd6\xf8'
p14
tp15
Rp16
sS'speed'
p17
g2
sS'cadence'
p18
g2
s.(dp0
S'blood_pressure'
p1
S'nd'
p2
sS'imu_head'
p3
(dp4
S'yaw'
p5
F4.363129849462357
sS'roll'
p6
F12.214965961394878
sS'pitch'
p7
F14.72465646567412
ssS'heart_rate'
p8
F79.57800221930708
sS'imu_torso'
p9
(dp10
g5
F18.48079230586274
sg6
F11.64122145935806
sg7
F15.983877578901458
ssS'steplength'
p11
g2
sS'timestamp'
p12
cdatetime
datetime
p13
(S'\x07\xe1\x0c\x13\x0c( \r\xe2\xb0'
p14
tp15
Rp16
sS'speed'
p17
g2
sS'cadence'
p18
g2
s.(dp0
S'blood_pressure'
p1
S'nd'
p2
sS'imu_head'
p3
(dp4
S'yaw'
p5
F16.00513804056139
sS'roll'
p6
F15.107627549474058
sS'pitch'
p7
F15.341167342214712
ssS'heart_rate'
p8
F18.519221194152845
sS'imu_torso'
p9
(dp10
g5
F19.217266781478987
sg6
F1.720764242154318
sg7
F3.7818797752595024
ssS'steplength'
p11
g2
sS'timestamp'
p12
cdatetime
datetime
p13
(S'\x07\xe1\x0c\x13\x0c(!\r\xeeh'
p14
tp15
Rp16
sS'speed'
p17
g2
sS'cadence'
p18
g2
s.(dp0
S'blood_pressure'
p1
S'nd'
p2
sS'imu_head'
p3
(dp4
S'yaw'
p5
F8.29929926376563
sS'roll'
p6
F15.07703885082028
sS'pitch'
p7
F2.1365575677301885
ssS'heart_rate'
p8
F8.232914643637045
sS'imu_torso'
p9
(dp10
g5
F14.154553640157872
sg6
F9.179259237014536
sg7
F8.652421985974257
ssS'steplength'
p11
g2
sS'timestamp'
p12
cdatetime
datetime
p13
(S'\x07\xe1\x0c\x13\x0c("\r\xea\x80'
p14
tp15
Rp16
sS'speed'
p17
g2
sS'cadence'
p18
g2
s.(dp0
S'blood_pressure'
p1
S'nd'
p2
sS'imu_head'
p3
(dp4
S'yaw'
p5
F17.32165636855063
sS'roll'
p6
F7.927424596147752
sS'pitch'
p7
F14.11792011283204
ssS'heart_rate'
p8
F23.28012642415258
sS'imu_torso'
p9
(dp10
g5
F0.5558907601400676
sg6
F14.827038504388046
sg7
F2.151010068336796
ssS'steplength'
p11
g2
sS'timestamp'
p12
cdatetime
datetime
p13
(S'\x07\xe1\x0c\x13\x0c(#\r\xf68'
p14
tp15
Rp16
sS'speed'
p17
g2
sS'cadence'
p18
g2
s.(dp0
S'blood_pressure'
p1
S'nd'
p2
sS'imu_head'
p3
(dp4
S'yaw'
p5
F13.05342527508583
sS'roll'
p6
F9.461858755528263
sS'pitch'
p7
F18.759071160542195
ssS'heart_rate'
p8
F8.66156577839442
sS'imu_torso'
p9
(dp10
g5
F15.757290811306206
sg6
F2.065276157839009
sg7
F14.871080786527262
ssS'steplength'
p11
g2
sS'timestamp'
p12
cdatetime
datetime
p13
(S'\x07\xe1\x0c\x13\x0c($\r\xfe\x08'
p14
tp15
Rp16
sS'speed'
p17
g2
sS'cadence'
p18
g2
s.(dp0
S'blood_pressure'
p1
S'nd'
p2
sS'imu_head'
p3
(dp4
S'yaw'
p5
F17.155542887267973
sS'roll'
p6
F6.084445454251874
sS'pitch'
p7
F2.858370899515863
ssS'heart_rate'
p8
F49.50009917146196
sS'imu_torso'
p9
(dp10
g5
F3.738450200216774
sg6
F7.704686286823859
sg7
F11.529852098704378
ssS'steplength'
p11
g2
sS'timestamp'
p12
cdatetime
datetime
p13
(S'\x07\xe1\x0c\x13\x0c(%\x0e\x05\xd8'
p14
tp15
Rp16
sS'speed'
p17
g2
sS'cadence'
p18
g2
s.(dp0
S'blood_pressure'
p1
S'nd'
p2
sS'imu_head'
p3
(dp4
S'yaw'
p5
F12.538694483396323
sS'roll'
p6
F1.5404341377871056
sS'pitch'
p7
F17.188799942919495
ssS'heart_rate'
p8
F88.08902946351331
sS'imu_torso'
p9
(dp10
g5
F1.4670277673495358
sg6
F6.124097550333392
sg7
F9.618254978252859
ssS'steplength'
p11
g2
sS'timestamp'
p12
cdatetime
datetime
p13
(S'\x07\xe1\x0c\x13\x0c(&\x0e\x15x'
p14
tp15
Rp16
sS'speed'
p17
g2
sS'cadence'
p18
g2
s.(dp0
S'blood_pressure'
p1
S'nd'
p2
sS'imu_head'
p3
(dp4
S'yaw'
p5
F2.9262166809321166
sS'roll'
p6
F7.7982268939107335
sS'pitch'
p7
F17.42910200877195
ssS'heart_rate'
p8
F26.434475226266684
sS'imu_torso'
p9
(dp10
g5
F6.945970260241248
sg6
F16.057994735716147
sg7
F15.045780682470406
ssS'steplength'
p11
g2
sS'timestamp'
p12
cdatetime
datetime
p13
(S"\x07\xe1\x0c\x13\x0c('\x0e\x1dH"
p14
tp15
Rp16
sS'speed'
p17
g2
sS'cadence'
p18
g2
s.(dp0
S'blood_pressure'
p1
S'nd'
p2
sS'imu_head'
p3
(dp4
S'yaw'
p5
F7.426651415570333
sS'roll'
p6
F16.76067033949623
sS'pitch'
p7
F1.5962482173732773
ssS'heart_rate'
p8
F54.809334345836724
sS'imu_torso'
p9
(dp10
g5
F14.163575201805273
sg6
F8.65980300954087
sg7
F8.378395584534799
ssS'steplength'
p11
g2
sS'timestamp'
p12
cdatetime
datetime
p13
(S'\x07\xe1\x0c\x13\x0c((\x0e%\x18'
p14
tp15
Rp16
sS'speed'
p17
g2
sS'cadence'
p18
g2
s.(dp0
S'blood_pressure'
p1
S'nd'
p2
sS'imu_head'
p3
(dp4
S'yaw'
p5
F17.899261017883244
sS'roll'
p6
F5.915778906866944
sS'pitch'
p7
F15.835306619528254
ssS'heart_rate'
p8
F38.036182753381034
sS'imu_torso'
p9
(dp10
g5
F5.177225417900713
sg6
F10.323877022293024
sg7
F13.061221141625694
ssS'steplength'
p11
g2
sS'timestamp'
p12
cdatetime
datetime
p13
(S'\x07\xe1\x0c\x13\x0c()\x0e0\xd0'
p14
tp15
Rp16
sS'speed'
p17
g2
sS'cadence'
p18
g2
s.(dp0
S'blood_pressure'
p1
S'nd'
p2
sS'imu_head'
p3
(dp4
S'yaw'
p5
F2.127873944893932
sS'roll'
p6
F10.102936939130878
sS'pitch'
p7
F9.065176148855645
ssS'heart_rate'
p8
F75.67849659398705
sS'imu_torso'
p9
(dp10
g5
F19.82932410844478
sg6
F1.7463456741972139
sg7
F9.74529350200851
ssS'steplength'
p11
g2
sS'timestamp'
p12
cdatetime
datetime
p13
(S'\x07\xe1\x0c\x13\x0c(*\x0e8\xa0'
p14
tp15
Rp16
sS'speed'
p17
g2
sS'cadence'
p18
g2
s.(dp0
S'blood_pressure'
p1
S'nd'
p2
sS'imu_head'
p3
(dp4
S'yaw'
p5
F1.2980314380690627
sS'roll'
p6
F9.046824208901969
sS'pitch'
p7
F16.160974235216216
ssS'heart_rate'
p8
F14.659268145192462
sS'imu_torso'
p9
(dp10
g5
F4.221934087106931
sg6
F0.4226592074787572
sg7
F19.0982127190151
ssS'steplength'
p11
g2
sS'timestamp'
p12
cdatetime
datetime
p13
(S'\x07\xe1\x0c\x13\x0c(+\x0eH@'
p14
tp15
Rp16
sS'speed'
p17
g2
sS'cadence'
p18
g2
s.(dp0
S'blood_pressure'
p1
S'nd'
p2
sS'imu_head'
p3
(dp4
S'yaw'
p5
F7.576731013715888
sS'roll'
p6
F4.316293007239748
sS'pitch'
p7
F0.36142206535631605
ssS'heart_rate'
p8
F1.675339432643641
sS'imu_torso'
p9
(dp10
g5
F15.994950115059174
sg6
F1.1213837345706557
sg7
F15.261316896872918
ssS'steplength'
p11
g2
sS'timestamp'
p12
cdatetime
datetime
p13
(S'\x07\xe1\x0c\x13\x0c(,\x0eL('
p14
tp15
Rp16
sS'speed'
p17
g2
sS'cadence'
p18
g2
s.(dp0
S'blood_pressure'
p1
S'nd'
p2
sS'imu_head'
p3
(dp4
S'yaw'
p5
F19.30905368506178
sS'roll'
p6
F15.074341474869533
sS'pitch'
p7
F19.208422150540766
ssS'heart_rate'
p8
F72.96990817040452
sS'imu_torso'
p9
(dp10
g5
F8.639195260725472
sg6
F7.72761195714989
sg7
F3.536283305038519
ssS'steplength'
p11
g2
sS'timestamp'
p12
cdatetime
datetime
p13
(S'\x07\xe1\x0c\x13\x0c(-\x0eW\xe0'
p14
tp15
Rp16
sS'speed'
p17
g2
sS'cadence'
p18
g2
s.(dp0
S'blood_pressure'
p1
S'nd'
p2
sS'imu_head'
p3
(dp4
S'yaw'
p5
F8.52475233727968
sS'roll'
p6
F6.134984259687625
sS'pitch'
p7
F17.41944165419286
ssS'heart_rate'
p8
F10.091877699584739
sS'imu_torso'
p9
(dp10
g5
F4.076934108972972
sg6
F19.92458274829077
sg7
F11.225951175335567
ssS'steplength'
p11
g2
sS'timestamp'
p12
cdatetime
datetime
p13
(S'\x07\xe1\x0c\x13\x0c(.\x0ec\x98'
p14
tp15
Rp16
sS'speed'
p17
g2
sS'cadence'
p18
g2
s.(dp0
S'blood_pressure'
p1
S'nd'
p2
sS'imu_head'
p3
(dp4
S'yaw'
p5
F9.789691007907003
sS'roll'
p6
F17.36330032291331
sS'pitch'
p7
F10.993583754398102
ssS'heart_rate'
p8
F86.55822633496089
sS'imu_torso'
p9
(dp10
g5
F4.300434682133119
sg6
F6.78250703063922
sg7
F19.757932653463335
ssS'steplength'
p11
g2
sS'timestamp'
p12
cdatetime
datetime
p13
(S'\x07\xe1\x0c\x13\x0c(/\x0ec\x98'
p14
tp15
Rp16
sS'speed'
p17
g2
sS'cadence'
p18
g2
s.(dp0
S'blood_pressure'
p1
S'nd'
p2
sS'imu_head'
p3
(dp4
S'yaw'
p5
F7.6418784166379154
sS'roll'
p6
F13.984551865373632
sS'pitch'
p7
F18.129184486649443
ssS'heart_rate'
p8
F17.312405131892696
sS'imu_torso'
p9
(dp10
g5
F4.915839008537346
sg6
F2.630643106499886
sg7
F12.825130345638133
ssS'steplength'
p11
g2
sS'timestamp'
p12
cdatetime
datetime
p13
(S'\x07\xe1\x0c\x13\x0c(0\x0ec\x98'
p14
tp15
Rp16
sS'speed'
p17
g2
sS'cadence'
p18
g2
s.(dp0
S'blood_pressure'
p1
S'nd'
p2
sS'imu_head'
p3
(dp4
S'yaw'
p5
F19.361766373531676
sS'roll'
p6
F6.119488856028976
sS'pitch'
p7
F8.697815371447017
ssS'heart_rate'
p8
F21.08735891489786
sS'imu_torso'
p9
(dp10
g5
F0.611816871526587
sg6
F0.9441859531878238
sg7
F4.370106694527356
ssS'steplength'
p11
g2
sS'timestamp'
p12
cdatetime
datetime
p13
(S'\x07\xe1\x0c\x13\x0c(1\x0es8'
p14
tp15
Rp16
sS'speed'
p17
g2
sS'cadence'
p18
g2
s.(dp0
S'blood_pressure'
p1
S'nd'
p2
sS'imu_head'
p3
(dp4
S'yaw'
p5
F16.79606406307131
sS'roll'
p6
F10.360803865303986
sS'pitch'
p7
F4.020412983092885
ssS'heart_rate'
p8
F0.8362120119523087
sS'imu_torso'
p9
(dp10
g5
F9.830049005175214
sg6
F8.776516065316669
sg7
F14.076365837491219
ssS'steplength'
p11
g2
sS'timestamp'
p12
cdatetime
datetime
p13
(S'\x07\xe1\x0c\x13\x0c(2\x0e{\x08'
p14
tp15
Rp16
sS'speed'
p17
g2
sS'cadence'
p18
g2
s.(dp0
S'blood_pressure'
p1
S'nd'
p2
sS'imu_head'
p3
(dp4
S'yaw'
p5
F19.439952724472818
sS'roll'
p6
F8.863568120561755
sS'pitch'
p7
F7.5300386795603735
ssS'heart_rate'
p8
F27.883961902982314
sS'imu_torso'
p9
(dp10
g5
F12.086381934556051
sg6
F2.243844201315084
sg7
F4.209584600083089
ssS'steplength'
p11
g2
sS'timestamp'
p12
cdatetime
datetime
p13
(S'\x07\xe1\x0c\x13\x0c(3\x0e\x82\xd8'
p14
tp15
Rp16
sS'speed'
p17
g2
sS'cadence'
p18
g2
s.(dp0
S'blood_pressure'
p1
S'nd'
p2
sS'imu_head'
p3
(dp4
S'yaw'
p5
F11.442537879759001
sS'roll'
p6
F7.269259696865373
sS'pitch'
p7
F17.875681983892864
ssS'heart_rate'
p8
F87.31442973178072
sS'imu_torso'
p9
(dp10
g5
F19.191310409942346
sg6
F19.00282813060832
sg7
F17.968810899116644
ssS'steplength'
p11
g2
sS'timestamp'
p12
cdatetime
datetime
p13
(S'\x07\xe1\x0c\x13\x0c(4\x0e\x8a\xa8'
p14
tp15
Rp16
sS'speed'
p17
g2
sS'cadence'
p18
g2
s.(dp0
S'blood_pressure'
p1
S'nd'
p2
sS'imu_head'
p3
(dp4
S'yaw'
p5
F18.0031472536303
sS'roll'
p6
F14.015997569630903
sS'pitch'
p7
F1.7060231031735285
ssS'heart_rate'
p8
F52.09760691551756
sS'imu_torso'
p9
(dp10
g5
F14.093411858138209
sg6
F6.558871715269891
sg7
F6.006567230281304
ssS'steplength'
p11
g2
sS'timestamp'
p12
cdatetime
datetime
p13
(S'\x07\xe1\x0c\x13\x0c(5\x0e\x96`'
p14
tp15
Rp16
sS'speed'
p17
g2
sS'cadence'
p18
g2
s.(dp0
S'blood_pressure'
p1
S'nd'
p2
sS'imu_head'
p3
(dp4
S'yaw'
p5
F1.1669368923319356
sS'roll'
p6
F19.00529580219051
sS'pitch'
p7
F4.196841239168423
ssS'heart_rate'
p8
F76.86531041025187
sS'imu_torso'
p9
(dp10
g5
F11.35449181755744
sg6
F1.72603496002808
sg7
F4.621102645928747
ssS'steplength'
p11
g2
sS'timestamp'
p12
cdatetime
datetime
p13
(S'\x07\xe1\x0c\x13\x0c(6\x0e\xa9\xe8'
p14
tp15
Rp16
sS'speed'
p17
g2
sS'cadence'
p18
g2
s.(dp0
S'blood_pressure'
p1
S'nd'
p2
sS'imu_head'
p3
(dp4
S'yaw'
p5
F12.762344578930172
sS'roll'
p6
F4.232794673534126
sS'pitch'
p7
F2.1678759177200524
ssS'heart_rate'
p8
F78.7599251340223
sS'imu_torso'
p9
(dp10
g5
F17.357018158235537
sg6
F14.807229874715661
sg7
F6.042853830940091
ssS'steplength'
p11
g2
sS'timestamp'
p12
cdatetime
datetime
p13
(S'\x07\xe1\x0c\x13\x0c(7\x0e\xb1\xb8'
p14
tp15
Rp16
sS'speed'
p17
g2
sS'cadence'
p18
g2
s.(dp0
S'blood_pressure'
p1
S'nd'
p2
sS'imu_head'
p3
(dp4
S'yaw'
p5
F8.494440080059265
sS'roll'
p6
F14.672543912307106
sS'pitch'
p7
F15.047727825701056
ssS'heart_rate'
p8
F19.76766162969431
sS'imu_torso'
p9
(dp10
g5
F13.927336470915053
sg6
F0.21735978784792387
sg7
F4.150085636523277
ssS'steplength'
p11
g2
sS'timestamp'
p12
cdatetime
datetime
p13
(S'\x07\xe1\x0c\x13\x0c(8\x0e\xb9\x88'
p14
tp15
Rp16
sS'speed'
p17
g2
sS'cadence'
p18
g2
s.(dp0
S'blood_pressure'
p1
S'nd'
p2
sS'imu_head'
p3
(dp4
S'yaw'
p5
F19.560924474393225
sS'roll'
p6
F14.828280020295502
sS'pitch'
p7
F14.003378968343366
ssS'heart_rate'
p8
F82.88172727117664
sS'imu_torso'
p9
(dp10
g5
F9.971039552375121
sg6
F12.535251102974945
sg7
F6.710985573898302
ssS'steplength'
p11
g2
sS'timestamp'
p12
cdatetime
datetime
p13
(S'\x07\xe1\x0c\x13\x0c(9\x0e\xbdp'
p14
tp15
Rp16
sS'speed'
p17
g2
sS'cadence'
p18
g2
s.(dp0
S'blood_pressure'
p1
S'nd'
p2
sS'imu_head'
p3
(dp4
S'yaw'
p5
F0.4591933881719257
sS'roll'
p6
F11.96436327321745
sS'pitch'
p7
F6.361738887530734
ssS'heart_rate'
p8
F26.10318017012875
sS'imu_torso'
p9
(dp10
g5
F4.116335231506167
sg6
F5.560634211915135
sg7
F3.299984104227267
ssS'steplength'
p11
g2
sS'timestamp'
p12
cdatetime
datetime
p13
(S'\x07\xe1\x0c\x13\x0c(:\x0e\xc1X'
p14
tp15
Rp16
sS'speed'
p17
g2
sS'cadence'
p18
g2
s.(dp0
S'blood_pressure'
p1
S'nd'
p2
sS'imu_head'
p3
(dp4
S'yaw'
p5
F13.026125054585695
sS'roll'
p6
F15.474764444811164
sS'pitch'
p7
F0.6364038450217868
ssS'heart_rate'
p8
F15.097575335877234
sS'imu_torso'
p9
(dp10
g5
F13.023439496402391
sg6
F4.689508243617007
sg7
F17.10410078775345
ssS'steplength'
p11
g2
sS'timestamp'
p12
cdatetime
datetime
p13
(S'\x07\xe1\x0c\x13\x0c(;\x0e\xcd\x10'
p14
tp15
Rp16
sS'speed'
p17
g2
sS'cadence'
p18
g2
s.(dp0
S'blood_pressure'
p1
S'nd'
p2
sS'imu_head'
p3
(dp4
S'yaw'
p5
F6.336250232771747
sS'roll'
p6
F0.9221631199577862
sS'pitch'
p7
F5.437889819445787
ssS'heart_rate'
p8
F49.20196805232909
sS'imu_torso'
p9
(dp10
g5
F9.542848716283936
sg6
F11.917988509368287
sg7
F18.399157747935586
ssS'steplength'
p11
g2
sS'timestamp'
p12
cdatetime
datetime
p13
(S'\x07\xe1\x0c\x13\x0c)\x00\x0e\xd4\xe0'
p14
tp15
Rp16
sS'speed'
p17
g2
sS'cadence'
p18
g2
s.(dp0
S'blood_pressure'
p1
S'nd'
p2
sS'imu_head'
p3
(dp4
S'yaw'
p5
F17.15542683322419
sS'roll'
p6
F10.346106703697341
sS'pitch'
p7
F7.477830931935754
ssS'heart_rate'
p8
F24.236525379373163
sS'imu_torso'
p9
(dp10
g5
F14.794054596651682
sg6
F3.0489018035665705
sg7
F0.5226617309200221
ssS'steplength'
p11
g2
sS'timestamp'
p12
cdatetime
datetime
p13
(S'\x07\xe1\x0c\x13\x0c)\x01\x0e\xdc\xb0'
p14
tp15
Rp16
sS'speed'
p17
g2
sS'cadence'
p18
g2
s.(dp0
S'blood_pressure'
p1
S'nd'
p2
sS'imu_head'
p3
(dp4
S'yaw'
p5
F16.270989575476
sS'roll'
p6
F7.215391169739704
sS'pitch'
p7
F9.311723848558495
ssS'heart_rate'
p8
F17.73175598852643
sS'imu_torso'
p9
(dp10
g5
F5.157394795398755
sg6
F1.2115559059404313
sg7
F3.300225016649081
ssS'steplength'
p11
g2
sS'timestamp'
p12
cdatetime
datetime
p13
(S'\x07\xe1\x0c\x13\x0c)\x02\x0e\xe4\x80'
p14
tp15
Rp16
sS'speed'
p17
g2
sS'cadence'
p18
g2
s.(dp0
S'blood_pressure'
p1
S'nd'
p2
sS'imu_head'
p3
(dp4
S'yaw'
p5
F7.079149246244267
sS'roll'
p6
F12.280921383748758
sS'pitch'
p7
F13.640220085031025
ssS'heart_rate'
p8
F89.33356535896961
sS'imu_torso'
p9
(dp10
g5
F1.7643989028148876
sg6
F11.964199924860022
sg7
F15.902713554349102
ssS'steplength'
p11
g2
sS'timestamp'
p12
cdatetime
datetime
p13
(S'\x07\xe1\x0c\x13\x0c)\x03\x0e\xecP'
p14
tp15
Rp16
sS'speed'
p17
g2
sS'cadence'
p18
g2
s.(dp0
S'blood_pressure'
p1
S'nd'
p2
sS'imu_head'
p3
(dp4
S'yaw'
p5
F17.744486374171995
sS'roll'
p6
F9.20125343766485
sS'pitch'
p7
F3.050370462421088
ssS'heart_rate'
p8
F50.641503355544096
sS'imu_torso'
p9
(dp10
g5
F14.176912286346512
sg6
F13.627633390754564
sg7
F3.3188891158262357
ssS'steplength'
p11
g2
sS'timestamp'
p12
cdatetime
datetime
p13
(S'\x07\xe1\x0c\x13\x0c)\x04\x0e\xf4 '
p14
tp15
Rp16
sS'speed'
p17
g2
sS'cadence'
p18
g2
s.(dp0
S'blood_pressure'
p1
S'nd'
p2
sS'imu_head'
p3
(dp4
S'yaw'
p5
F2.787293293358255
sS'roll'
p6
F4.275038574406702
sS'pitch'
p7
F7.7591639734786355
ssS'heart_rate'
p8
F48.818639531675025
sS'imu_torso'
p9
(dp10
g5
F1.8034512195393515
sg6
F9.516574557852604
sg7
F1.6481904784834556
ssS'steplength'
p11
g2
sS'timestamp'
p12
cdatetime
datetime
p13
(S'\x07\xe1\x0c\x13\x0c)\x05\x0e\xff\xd8'
p14
tp15
Rp16
sS'speed'
p17
g2
sS'cadence'
p18
g2
s.(dp0
S'blood_pressure'
p1
S'nd'
p2
sS'imu_head'
p3
(dp4
S'yaw'
p5
F9.165935474375512
sS'roll'
p6
F6.124478457225935
sS'pitch'
p7
F8.538521007894378
ssS'heart_rate'
p8
F73.6045759963345
sS'imu_torso'
p9
(dp10
g5
F18.77009958639664
sg6
F10.866668427888438
sg7
F11.07890158112455
ssS'steplength'
p11
g2
sS'timestamp'
p12
cdatetime
datetime
p13
(S'\x07\xe1\x0c\x13\x0c)\x06\x0f\x07\xa8'
p14
tp15
Rp16
sS'speed'
p17
g2
sS'cadence'
p18
g2
s.(dp0
S'blood_pressure'
p1
S'nd'
p2
sS'imu_head'
p3
(dp4
S'yaw'
p5
F3.880141138905171
sS'roll'
p6
F11.875083567777695
sS'pitch'
p7
F2.5903395288523723
ssS'heart_rate'
p8
F80.86699390901157
sS'imu_torso'
p9
(dp10
g5
F4.024472537626633
sg6
F1.9828677695131547
sg7
F0.11755685273286964
ssS'steplength'
p11
g2
sS'timestamp'
p12
cdatetime
datetime
p13
(S'\x07\xe1\x0c\x13\x0c)\x07\x0f\x0fx'
p14
tp15
Rp16
sS'speed'
p17
g2
sS'cadence'
p18
g2
s.(dp0
S'blood_pressure'
p1
S'nd'
p2
sS'imu_head'
p3
(dp4
S'yaw'
p5
F2.778060252080161
sS'roll'
p6
F7.101211028136993
sS'pitch'
p7
F0.017446759381305466
ssS'heart_rate'
p8
F15.724085337864924
sS'imu_torso'
p9
(dp10
g5
F6.923735012680632
sg6
F19.149474592010886
sg7
F12.169652342686403
ssS'steplength'
p11
g2
sS'timestamp'
p12
cdatetime
datetime
p13
(S'\x07\xe1\x0c\x13\x0c)\x08\x0f\x17H'
p14
tp15
Rp16
sS'speed'
p17
g2
sS'cadence'
p18
g2
s.(dp0
S'blood_pressure'
p1
S'nd'
p2
sS'imu_head'
p3
(dp4
S'yaw'
p5
F4.671122912662236
sS'roll'
p6
F16.86014288501289
sS'pitch'
p7
F10.065765552109344
ssS'heart_rate'
p8
F44.31350224023538
sS'imu_torso'
p9
(dp10
g5
F15.920933183380257
sg6
F6.329771671788585
sg7
F1.6474456981809071
ssS'steplength'
p11
g2
sS'timestamp'
p12
cdatetime
datetime
p13
(S'\x07\xe1\x0c\x13\x0c)\t\x0f\x17H'
p14
tp15
Rp16
sS'speed'
p17
g2
sS'cadence'
p18
g2
s.(dp0
S'blood_pressure'
p1
S'nd'
p2
sS'imu_head'
p3
(dp4
S'yaw'
p5
F12.160860184974089
sS'roll'
p6
F7.315935871466966
sS'pitch'
p7
F6.500578065271938
ssS'heart_rate'
p8
F85.06730212843976
sS'imu_torso'
p9
(dp10
g5
F1.1094117123932024
sg6
F18.8868636039277
sg7
F16.872714074342344
ssS'steplength'
p11
g2
sS'timestamp'
p12
cdatetime
datetime
p13
(S'\x07\xe1\x0c\x13\x0c)\n\x0f&\xe8'
p14
tp15
Rp16
sS'speed'
p17
g2
sS'cadence'
p18
g2
s.(dp0
S'blood_pressure'
p1
S'nd'
p2
sS'imu_head'
p3
(dp4
S'yaw'
p5
F13.357237220489056
sS'roll'
p6
F18.05403681155425
sS'pitch'
p7
F9.01994065028722
ssS'heart_rate'
p8
F21.51001212859289
sS'imu_torso'
p9
(dp10
g5
F4.898669386033649
sg6
F6.4951003952761805
sg7
F4.244008725606545
ssS'steplength'
p11
g2
sS'timestamp'
p12
cdatetime
datetime
p13
(S'\x07\xe1\x0c\x13\x0c)\x0b\x0f2\xa0'
p14
tp15
Rp16
sS'speed'
p17
g2
sS'cadence'
p18
g2
s.(dp0
S'blood_pressure'
p1
S'nd'
p2
sS'imu_head'
p3
(dp4
S'yaw'
p5
F9.343951569475006
sS'roll'
p6
F0.7313400655395341
sS'pitch'
p7
F17.789468208849254
ssS'heart_rate'
p8
F85.04172977663455
sS'imu_torso'
p9
(dp10
g5
F11.889379393454245
sg6
F7.014535974118816
sg7
F5.8157291143079926
ssS'steplength'
p11
g2
sS'timestamp'
p12
cdatetime
datetime
p13
(S'\x07\xe1\x0c\x13\x0c)\x0c\x0f:p'
p14
tp15
Rp16
sS'speed'
p17
g2
sS'cadence'
p18
g2
s.(dp0
S'blood_pressure'
p1
S'nd'
p2
sS'imu_head'
p3
(dp4
S'yaw'
p5
F13.142654016563721
sS'roll'
p6
F11.661872939275531
sS'pitch'
p7
F16.59546640708585
ssS'heart_rate'
p8
F3.9948148989616405
sS'imu_torso'
p9
(dp10
g5
F18.795556931335508
sg6
F14.838335305593692
sg7
F7.43499147664163
ssS'steplength'
p11
g2
sS'timestamp'
p12
cdatetime
datetime
p13
(S'\x07\xe1\x0c\x13\x0c)\x0e\x00\x03\xe8'
p14
tp15
Rp16
sS'speed'
p17
g2
sS'cadence'
p18
g2
s.(dp0
S'blood_pressure'
p1
S'nd'
p2
sS'imu_head'
p3
(dp4
S'yaw'
p5
F16.60373306090046
sS'roll'
p6
F5.239264455105026
sS'pitch'
p7
F9.546204232892626
ssS'heart_rate'
p8
F55.11424312680943
sS'imu_torso'
p9
(dp10
g5
F13.30859694397031
sg6
F0.41756223035438467
sg7
F18.55488274310122
ssS'steplength'
p11
g2
sS'timestamp'
p12
cdatetime
datetime
p13
(S'\x07\xe1\x0c\x13\x0c)\x0f\x00\x07\xd0'
p14
tp15
Rp16
sS'speed'
p17
g2
sS'cadence'
p18
g2
s.(dp0
S'blood_pressure'
p1
S'nd'
p2
sS'imu_head'
p3
(dp4
S'yaw'
p5
F6.723974983751065
sS'roll'
p6
F3.797707007748834
sS'pitch'
p7
F6.386362961018639
ssS'heart_rate'
p8
F38.94915623951475
sS'imu_torso'
p9
(dp10
g5
F1.040708565972328
sg6
F7.8243995073137595
sg7
F17.173499748083447
ssS'steplength'
p11
g2
sS'timestamp'
p12
cdatetime
datetime
p13
(S'\x07\xe1\x0c\x13\x0c)\x10\x00\x0f\xa0'
p14
tp15
Rp16
sS'speed'
p17
g2
sS'cadence'
p18
g2
s.(dp0
S'blood_pressure'
p1
S'nd'
p2
sS'imu_head'
p3
(dp4
S'yaw'
p5
F11.399644463537877
sS'roll'
p6
F12.089869989105463
sS'pitch'
p7
F19.674316073390354
ssS'heart_rate'
p8
F11.014783428985375
sS'imu_torso'
p9
(dp10
g5
F13.546206776342252
sg6
F6.288809052623288
sg7
F6.1323057377874175
ssS'steplength'
p11
g2
sS'timestamp'
p12
cdatetime
datetime
p13
(S'\x07\xe1\x0c\x13\x0c)\x11\x00\x13\x88'
p14
tp15
Rp16
sS'speed'
p17
g2
sS'cadence'
p18
g2
s.(dp0
S'blood_pressure'
p1
S'nd'
p2
sS'imu_head'
p3
(dp4
S'yaw'
p5
F12.70563104913186
sS'roll'
p6
F18.610189404544137
sS'pitch'
p7
F14.199280420945634
ssS'heart_rate'
p8
F30.279688036516106
sS'imu_torso'
p9
(dp10
g5
F15.081182265899532
sg6
F11.710153507480728
sg7
F6.829033087219345
ssS'steplength'
p11
g2
sS'timestamp'
p12
cdatetime
datetime
p13
(S'\x07\xe1\x0c\x13\x0c)\x12\x00\x13\x88'
p14
tp15
Rp16
sS'speed'
p17
g2
sS'cadence'
p18
g2
s.(dp0
S'blood_pressure'
p1
S'nd'
p2
sS'imu_head'
p3
(dp4
S'yaw'
p5
F5.570261875645269
sS'roll'
p6
F0.10155626846341859
sS'pitch'
p7
F12.806645281667222
ssS'heart_rate'
p8
F32.940480394879344
sS'imu_torso'
p9
(dp10
g5
F9.594675834564551
sg6
F16.852795419629555
sg7
F0.017865644666466007
ssS'steplength'
p11
g2
sS'timestamp'
p12
cdatetime
datetime
p13
(S'\x07\xe1\x0c\x13\x0c)\x13\x00\x1bX'
p14
tp15
Rp16
sS'speed'
p17
g2
sS'cadence'
p18
g2
s.(dp0
S'blood_pressure'
p1
S'nd'
p2
sS'imu_head'
p3
(dp4
S'yaw'
p5
F5.454840560441063
sS'roll'
p6
F0.1584758839715361
sS'pitch'
p7
F2.959443324634956
ssS'heart_rate'
p8
F31.546010842070014
sS'imu_torso'
p9
(dp10
g5
F5.196583347423475
sg6
F1.6732337760723959
sg7
F7.530496402190705
ssS'steplength'
p11
g2
sS'timestamp'
p12
cdatetime
datetime
p13
(S"\x07\xe1\x0c\x13\x0c)\x14\x00'\x10"
p14
tp15
Rp16
sS'speed'
p17
g2
sS'cadence'
p18
g2
s.(dp0
S'blood_pressure'
p1
S'nd'
p2
sS'imu_head'
p3
(dp4
S'yaw'
p5
F12.04414461348808
sS'roll'
p6
F18.884516404822595
sS'pitch'
p7
F1.2813459810202832
ssS'heart_rate'
p8
F10.447175048807168
sS'imu_torso'
p9
(dp10
g5
F17.17459036593414
sg6
F17.073933083786443
sg7
F18.999080453708018
ssS'steplength'
p11
g2
sS'timestamp'
p12
cdatetime
datetime
p13
(S'\x07\xe1\x0c\x13\x0c)\x15\x00*\xf8'
p14
tp15
Rp16
sS'speed'
p17
g2
sS'cadence'
p18
g2
s.(dp0
S'blood_pressure'
p1
S'nd'
p2
sS'imu_head'
p3
(dp4
S'yaw'
p5
F8.676313517750089
sS'roll'
p6
F17.444017919780517
sS'pitch'
p7
F17.811474229634754
ssS'heart_rate'
p8
F51.10844552857466
sS'imu_torso'
p9
(dp10
g5
F19.271967197914293
sg6
F9.414352874290909
sg7
F8.84492727245813
ssS'steplength'
p11
g2
sS'timestamp'
p12
cdatetime
datetime
p13
(S'\x07\xe1\x0c\x13\x0c)\x16\x002\xc8'
p14
tp15
Rp16
sS'speed'
p17
g2
sS'cadence'
p18
g2
s.(dp0
S'blood_pressure'
p1
S'nd'
p2
sS'imu_head'
p3
(dp4
S'yaw'
p5
F15.987007429145967
sS'roll'
p6
F0.04269874884555547
sS'pitch'
p7
F5.487312851780219
ssS'heart_rate'
p8
F37.479263055945935
sS'imu_torso'
p9
(dp10
g5
F16.395236884560887
sg6
F12.24694435627052
sg7
F0.8680099376157369
ssS'steplength'
p11
g2
sS'timestamp'
p12
cdatetime
datetime
p13
(S'\x07\xe1\x0c\x13\x0c)\x17\x00>\x80'
p14
tp15
Rp16
sS'speed'
p17
g2
sS'cadence'
p18
g2
s.(dp0
S'blood_pressure'
p1
S'nd'
p2
sS'imu_head'
p3
(dp4
S'yaw'
p5
F14.028978600483189
sS'roll'
p6
F6.042765567707587
sS'pitch'
p7
F16.37686521248723
ssS'heart_rate'
p8
F88.08114599693894
sS'imu_torso'
p9
(dp10
g5
F4.242344939012255
sg6
F8.654458088991468
sg7
F10.925031391737122
ssS'steplength'
p11
g2
sS'timestamp'
p12
cdatetime
datetime
p13
(S'\x07\xe1\x0c\x13\x0c)\x18\x00N '
p14
tp15
Rp16
sS'speed'
p17
g2
sS'cadence'
p18
g2
s.(dp0
S'blood_pressure'
p1
S'nd'
p2
sS'imu_head'
p3
(dp4
S'yaw'
p5
F6.943342952957772
sS'roll'
p6
F16.154330653882194
sS'pitch'
p7
F3.090794383158848
ssS'heart_rate'
p8
F58.16849257161275
sS'imu_torso'
p9
(dp10
g5
F9.124207431776838
sg6
F0.8517048449248232
sg7
F7.6711161956141645
ssS'steplength'
p11
g2
sS'timestamp'
p12
cdatetime
datetime
p13
(S'\x07\xe1\x0c\x13\x0c)\x19\x00Y\xd8'
p14
tp15
Rp16
sS'speed'
p17
g2
sS'cadence'
p18
g2
s.(dp0
S'blood_pressure'
p1
S'nd'
p2
sS'imu_head'
p3
(dp4
S'yaw'
p5
F11.313048745726563
sS'roll'
p6
F17.25421206562254
sS'pitch'
p7
F17.32329843993905
ssS'heart_rate'
p8
F30.357530772734254
sS'imu_torso'
p9
(dp10
g5
F8.799080610979207
sg6
F19.727844096088887
sg7
F10.59034343347437
ssS'steplength'
p11
g2
sS'timestamp'
p12
cdatetime
datetime
p13
(S'\x07\xe1\x0c\x13\x0c)\x1a\x00a\xa8'
p14
tp15
Rp16
sS'speed'
p17
g2
sS'cadence'
p18
g2
s.(dp0
S'blood_pressure'
p1
S'nd'
p2
sS'imu_head'
p3
(dp4
S'yaw'
p5
F17.347551169608433
sS'roll'
p6
F5.648024580576827
sS'pitch'
p7
F17.988133218484673
ssS'heart_rate'
p8
F5.42037202874922
sS'imu_torso'
p9
(dp10
g5
F7.963328254649326
sg6
F14.846885972888932
sg7
F15.956448331974688
ssS'steplength'
p11
g2
sS'timestamp'
p12
cdatetime
datetime
p13
(S'\x07\xe1\x0c\x13\x0c)\x1b\x00e\x90'
p14
tp15
Rp16
sS'speed'
p17
g2
sS'cadence'
p18
g2
s.(dp0
S'blood_pressure'
p1
S'nd'
p2
sS'imu_head'
p3
(dp4
S'yaw'
p5
F0.11769665383976724
sS'roll'
p6
F6.606827279740404
sS'pitch'
p7
F16.42470277905794
ssS'heart_rate'
p8
F29.083438701415766
sS'imu_torso'
p9
(dp10
g5
F0.6355581803254728
sg6
F13.224259324475739
sg7
F1.346078195267204
ssS'steplength'
p11
g2
sS'timestamp'
p12
cdatetime
datetime
p13
(S'\x07\xe1\x0c\x13\x0c)\x1c\x00m`'
p14
tp15
Rp16
sS'speed'
p17
g2
sS'cadence'
p18
g2
s.(dp0
S'blood_pressure'
p1
S'nd'
p2
sS'imu_head'
p3
(dp4
S'yaw'
p5
F15.456138944161403
sS'roll'
p6
F4.107823348719393
sS'pitch'
p7
F4.167693008986166
ssS'heart_rate'
p8
F68.3536743937019
sS'imu_torso'
p9
(dp10
g5
F16.613767503590577
sg6
F17.967796771972083
sg7
F2.6831202507706498
ssS'steplength'
p11
g2
sS'timestamp'
p12
cdatetime
datetime
p13
(S'\x07\xe1\x0c\x13\x0c)\x1d\x00u0'
p14
tp15
Rp16
sS'speed'
p17
g2
sS'cadence'
p18
g2
s.(dp0
S'blood_pressure'
p1
S'nd'
p2
sS'imu_head'
p3
(dp4
S'yaw'
p5
F4.677935699591746
sS'roll'
p6
F19.657228347119997
sS'pitch'
p7
F12.873038028901224
ssS'heart_rate'
p8
F80.0988540573977
sS'imu_torso'
p9
(dp10
g5
F9.097174252697153
sg6
F17.272467255533947
sg7
F1.559372987763148
ssS'steplength'
p11
g2
sS'timestamp'
p12
cdatetime
datetime
p13
(S'\x07\xe1\x0c\x13\x0c)\x1e\x00\x80\xe8'
p14
tp15
Rp16
sS'speed'
p17
g2
sS'cadence'
p18
g2
s.(dp0
S'blood_pressure'
p1
S'nd'
p2
sS'imu_head'
p3
(dp4
S'yaw'
p5
F2.6016722264953884
sS'roll'
p6
F16.430772577866172
sS'pitch'
p7
F3.681180943269202
ssS'heart_rate'
p8
F70.57597908994347
sS'imu_torso'
p9
(dp10
g5
F13.86473448221917
sg6
F16.27580721299909
sg7
F11.751516131303262
ssS'steplength'
p11
g2
sS'timestamp'
p12
cdatetime
datetime
p13
(S'\x07\xe1\x0c\x13\x0c)\x1f\x00\x88\xb8'
p14
tp15
Rp16
sS'speed'
p17
g2
sS'cadence'
p18
g2
s.(dp0
S'blood_pressure'
p1
S'nd'
p2
sS'imu_head'
p3
(dp4
S'yaw'
p5
F12.333519631380552
sS'roll'
p6
F8.27503943841542
sS'pitch'
p7
F16.340239331205588
ssS'heart_rate'
p8
F22.388113614837437
sS'imu_torso'
p9
(dp10
g5
F13.29598521964346
sg6
F19.11366069425638
sg7
F17.051164878643124
ssS'steplength'
p11
g2
sS'timestamp'
p12
cdatetime
datetime
p13
(S'\x07\xe1\x0c\x13\x0c) \x00\x90\x88'
p14
tp15
Rp16
sS'speed'
p17
g2
sS'cadence'
p18
g2
s.(dp0
S'blood_pressure'
p1
S'nd'
p2
sS'imu_head'
p3
(dp4
S'yaw'
p5
F11.16416310143701
sS'roll'
p6
F17.638220189674044
sS'pitch'
p7
F11.719325718201574
ssS'heart_rate'
p8
F3.4364058029418776
sS'imu_torso'
p9
(dp10
g5
F6.904423099775954
sg6
F16.477345705142746
sg7
F2.4747240702639495
ssS'steplength'
p11
g2
sS'timestamp'
p12
cdatetime
datetime
p13
(S'\x07\xe1\x0c\x13\x0c)!\x00\x98X'
p14
tp15
Rp16
sS'speed'
p17
g2
sS'cadence'
p18
g2
s.(dp0
S'blood_pressure'
p1
S'nd'
p2
sS'imu_head'
p3
(dp4
S'yaw'
p5
F17.02497397525485
sS'roll'
p6
F4.080378781640777
sS'pitch'
p7
F5.662227919923712
ssS'heart_rate'
p8
F70.53048662592587
sS'imu_torso'
p9
(dp10
g5
F18.165882811121882
sg6
F1.4031035580426354
sg7
F15.098009048105839
ssS'steplength'
p11
g2
sS'timestamp'
p12
cdatetime
datetime
p13
(S'\x07\xe1\x0c\x13\x0c)"\x00\xa0('
p14
tp15
Rp16
sS'speed'
p17
g2
sS'cadence'
p18
g2
s.(dp0
S'blood_pressure'
p1
S'nd'
p2
sS'imu_head'
p3
(dp4
S'yaw'
p5
F7.877346257144115
sS'roll'
p6
F14.90312745088814
sS'pitch'
p7
F12.48656040945258
ssS'heart_rate'
p8
F49.854956717450435
sS'imu_torso'
p9
(dp10
g5
F12.323602382954261
sg6
F16.340200638930618
sg7
F15.997857856409453
ssS'steplength'
p11
g2
sS'timestamp'
p12
cdatetime
datetime
p13
(S'\x07\xe1\x0c\x13\x0c)#\x00\xa7\xf8'
p14
tp15
Rp16
sS'speed'
p17
g2
sS'cadence'
p18
g2
s.(dp0
S'blood_pressure'
p1
S'nd'
p2
sS'imu_head'
p3
(dp4
S'yaw'
p5
F15.80328195539666
sS'roll'
p6
F14.274353982373512
sS'pitch'
p7
F12.936871851141573
ssS'heart_rate'
p8
F74.85884562682733
sS'imu_torso'
p9
(dp10
g5
F18.167588525022666
sg6
F8.70562958645366
sg7
F8.151500517960892
ssS'steplength'
p11
g2
sS'timestamp'
p12
cdatetime
datetime
p13
(S'\x07\xe1\x0c\x13\x0c)$\x00\xaf\xc8'
p14
tp15
Rp16
sS'speed'
p17
g2
sS'cadence'
p18
g2
s.(dp0
S'blood_pressure'
p1
S'nd'
p2
sS'imu_head'
p3
(dp4
S'yaw'
p5
F13.801084507195707
sS'roll'
p6
F10.281827502823933
sS'pitch'
p7
F12.966557124567892
ssS'heart_rate'
p8
F14.757594427299981
sS'imu_torso'
p9
(dp10
g5
F5.940940625343156
sg6
F7.989564804065434
sg7
F13.880300662425798
ssS'steplength'
p11
g2
sS'timestamp'
p12
cdatetime
datetime
p13
(S'\x07\xe1\x0c\x13\x0c)%\x00\xb3\xb0'
p14
tp15
Rp16
sS'speed'
p17
g2
sS'cadence'
p18
g2
s.(dp0
S'blood_pressure'
p1
S'nd'
p2
sS'imu_head'
p3
(dp4
S'yaw'
p5
F14.220721668637598
sS'roll'
p6
F7.257858530300907
sS'pitch'
p7
F3.4855697403328723
ssS'heart_rate'
p8
F82.66433980770331
sS'imu_torso'
p9
(dp10
g5
F2.711083160292489
sg6
F12.534620472547616
sg7
F15.583055961434649
ssS'steplength'
p11
g2
sS'timestamp'
p12
cdatetime
datetime
p13
(S'\x07\xe1\x0c\x13\x0c)&\x00\xbb\x80'
p14
tp15
Rp16
sS'speed'
p17
g2
sS'cadence'
p18
g2
s.(dp0
S'blood_pressure'
p1
S'nd'
p2
sS'imu_head'
p3
(dp4
S'yaw'
p5
F0.9771458587093274
sS'roll'
p6
F19.249608051377397
sS'pitch'
p7
F19.375518578437873
ssS'heart_rate'
p8
F47.134367466414965
sS'imu_torso'
p9
(dp10
g5
F19.562640192071253
sg6
F4.217782056097297
sg7
F3.540328347728372
ssS'steplength'
p11
g2
sS'timestamp'
p12
cdatetime
datetime
p13
(S"\x07\xe1\x0c\x13\x0c)'\x00\xbfh"
p14
tp15
Rp16
sS'speed'
p17
g2
sS'cadence'
p18
g2
s.(dp0
S'blood_pressure'
p1
S'nd'
p2
sS'imu_head'
p3
(dp4
S'yaw'
p5
F5.980610250684027
sS'roll'
p6
F15.863620812571549
sS'pitch'
p7
F8.635797501674995
ssS'heart_rate'
p8
F89.16727370285797
sS'imu_torso'
p9
(dp10
g5
F18.716671619527393
sg6
F0.9792451453288975
sg7
F11.546027537023289
ssS'steplength'
p11
g2
sS'timestamp'
p12
cdatetime
datetime
p13
(S'\x07\xe1\x0c\x13\x0c)(\x00\xcb '
p14
tp15
Rp16
sS'speed'
p17
g2
sS'cadence'
p18
g2
s.(dp0
S'blood_pressure'
p1
S'nd'
p2
sS'imu_head'
p3
(dp4
S'yaw'
p5
F17.781203628722327
sS'roll'
p6
F2.165104840871872
sS'pitch'
p7
F6.356119270056504
ssS'heart_rate'
p8
F60.91070539897605
sS'imu_torso'
p9
(dp10
g5
F17.90292322201652
sg6
F0.28847036620973654
sg7
F12.713212128200361
ssS'steplength'
p11
g2
sS'timestamp'
p12
cdatetime
datetime
p13
(S'\x07\xe1\x0c\x13\x0c))\x00\xd6\xd8'
p14
tp15
Rp16
sS'speed'
p17
g2
sS'cadence'
p18
g2
s.(dp0
S'blood_pressure'
p1
S'nd'
p2
sS'imu_head'
p3
(dp4
S'yaw'
p5
F17.870667129836917
sS'roll'
p6
F16.98193862940299
sS'pitch'
p7
F16.29757542842009
ssS'heart_rate'
p8
F95.67996695574654
sS'imu_torso'
p9
(dp10
g5
F10.460522139596492
sg6
F14.421622472462733
sg7
F11.495443232257397
ssS'steplength'
p11
g2
sS'timestamp'
p12
cdatetime
datetime
p13
(S'\x07\xe1\x0c\x13\x0c)*\x00\xde\xa8'
p14
tp15
Rp16
sS'speed'
p17
g2
sS'cadence'
p18
g2
s.(dp0
S'blood_pressure'
p1
S'nd'
p2
sS'imu_head'
p3
(dp4
S'yaw'
p5
F7.287381447714189
sS'roll'
p6
F5.978420530404658
sS'pitch'
p7
F10.40760633520837
ssS'heart_rate'
p8
F34.53489093873139
sS'imu_torso'
p9
(dp10
g5
F2.6738735913203104
sg6
F16.38372197767902
sg7
F13.62029068931301
ssS'steplength'
p11
g2
sS'timestamp'
p12
cdatetime
datetime
p13
(S'\x07\xe1\x0c\x13\x0c)+\x00\xe6x'
p14
tp15
Rp16
sS'speed'
p17
g2
sS'cadence'
p18
g2
s.(dp0
S'blood_pressure'
p1
S'nd'
p2
sS'imu_head'
p3
(dp4
S'yaw'
p5
F7.367905895830152
sS'roll'
p6
F2.2328665815963467
sS'pitch'
p7
F4.858854358737165
ssS'heart_rate'
p8
F69.45473118331584
sS'imu_torso'
p9
(dp10
g5
F7.206398093330051
sg6
F0.41151513604946954
sg7
F11.247657967607697
ssS'steplength'
p11
g2
sS'timestamp'
p12
cdatetime
datetime
p13
(S'\x07\xe1\x0c\x13\x0c),\x00\xeeH'
p14
tp15
Rp16
sS'speed'
p17
g2
sS'cadence'
p18
g2
s.(dp0
S'blood_pressure'
p1
S'nd'
p2
sS'imu_head'
p3
(dp4
S'yaw'
p5
F3.5615140663791856
sS'roll'
p6
F5.234545241477089
sS'pitch'
p7
F17.9422395062586
ssS'heart_rate'
p8
F90.33064699481899
sS'imu_torso'
p9
(dp10
g5
F12.105616842470091
sg6
F15.713642787709329
sg7
F6.24742937549825
ssS'steplength'
p11
g2
sS'timestamp'
p12
cdatetime
datetime
p13
(S'\x07\xe1\x0c\x13\x0c)-\x00\xfa\x00'
p14
tp15
Rp16
sS'speed'
p17
g2
sS'cadence'
p18
g2
s.(dp0
S'blood_pressure'
p1
S'nd'
p2
sS'imu_head'
p3
(dp4
S'yaw'
p5
F17.47735447800689
sS'roll'
p6
F5.935510470203848
sS'pitch'
p7
F11.92730069497129
ssS'heart_rate'
p8
F18.204942924631695
sS'imu_torso'
p9
(dp10
g5
F8.465869945082138
sg6
F5.443272737190917
sg7
F18.80235402832766
ssS'steplength'
p11
g2
sS'timestamp'
p12
cdatetime
datetime
p13
(S'\x07\xe1\x0c\x13\x0c).\x01\x01\xd0'
p14
tp15
Rp16
sS'speed'
p17
g2
sS'cadence'
p18
g2
s.(dp0
S'blood_pressure'
p1
S'nd'
p2
sS'imu_head'
p3
(dp4
S'yaw'
p5
F2.966214562860454
sS'roll'
p6
F18.62948608822722
sS'pitch'
p7
F19.93341482817386
ssS'heart_rate'
p8
F76.30917520051234
sS'imu_torso'
p9
(dp10
g5
F2.2567322690717595
sg6
F5.002910227877484
sg7
F2.4307306491668768
ssS'steplength'
p11
g2
sS'timestamp'
p12
cdatetime
datetime
p13
(S'\x07\xe1\x0c\x13\x0c)/\x01\r\x88'
p14
tp15
Rp16
sS'speed'
p17
g2
sS'cadence'
p18
g2
s.(dp0
S'blood_pressure'
p1
S'nd'
p2
sS'imu_head'
p3
(dp4
S'yaw'
p5
F14.005303995613804
sS'roll'
p6
F5.254703033891417
sS'pitch'
p7
F11.365000457367165
ssS'heart_rate'
p8
F9.176276425631002
sS'imu_torso'
p9
(dp10
g5
F1.5559708830958097
sg6
F11.928978714509794
sg7
F4.610461282132685
ssS'steplength'
p11
g2
sS'timestamp'
p12
cdatetime
datetime
p13
(S'\x07\xe1\x0c\x13\x0c)0\x01\x19@'
p14
tp15
Rp16
sS'speed'
p17
g2
sS'cadence'
p18
g2
s.(dp0
S'blood_pressure'
p1
S'nd'
p2
sS'imu_head'
p3
(dp4
S'yaw'
p5
F18.11357376962041
sS'roll'
p6
F4.82448830754727
sS'pitch'
p7
F16.692618265499874
ssS'heart_rate'
p8
F61.23483268567427
sS'imu_torso'
p9
(dp10
g5
F19.47973705110714
sg6
F19.13367348859738
sg7
F14.76595691056593
ssS'steplength'
p11
g2
sS'timestamp'
p12
cdatetime
datetime
p13
(S'\x07\xe1\x0c\x13\x0c)1\x01\x1d('
p14
tp15
Rp16
sS'speed'
p17
g2
sS'cadence'
p18
g2
s.(dp0
S'blood_pressure'
p1
S'nd'
p2
sS'imu_head'
p3
(dp4
S'yaw'
p5
F15.360651583833269
sS'roll'
p6
F9.846126249485
sS'pitch'
p7
F19.131672353978264
ssS'heart_rate'
p8
F16.355881383825288
sS'imu_torso'
p9
(dp10
g5
F8.98023501184599
sg6
F5.4795179153477225
sg7
F1.4449491107856716
ssS'steplength'
p11
g2
sS'timestamp'
p12
cdatetime
datetime
p13
(S'\x07\xe1\x0c\x13\x0c)2\x01$\xf8'
p14
tp15
Rp16
sS'speed'
p17
g2
sS'cadence'
p18
g2
s.(dp0
S'blood_pressure'
p1
S'nd'
p2
sS'imu_head'
p3
(dp4
S'yaw'
p5
F1.021353900468689
sS'roll'
p6
F18.037771875254233
sS'pitch'
p7
F2.0053023926815117
ssS'heart_rate'
p8
F95.61113395322039
sS'imu_torso'
p9
(dp10
g5
F10.09301954583588
sg6
F15.966295502457331
sg7
F3.8932483659167216
ssS'steplength'
p11
g2
sS'timestamp'
p12
cdatetime
datetime
p13
(S'\x07\xe1\x0c\x13\x0c)3\x014\x98'
p14
tp15
Rp16
sS'speed'
p17
g2
sS'cadence'
p18
g2
s.(dp0
S'blood_pressure'
p1
S'nd'
p2
sS'imu_head'
p3
(dp4
S'yaw'
p5
F8.327343370662415
sS'roll'
p6
F8.590562069654684
sS'pitch'
p7
F8.468325179637588
ssS'heart_rate'
p8
F77.98568085350527
sS'imu_torso'
p9
(dp10
g5
F10.14813702008986
sg6
F4.00006741244346
sg7
F10.537087994621892
ssS'steplength'
p11
g2
sS'timestamp'
p12
cdatetime
datetime
p13
(S'\x07\xe1\x0c\x13\x0c)4\x01<h'
p14
tp15
Rp16
sS'speed'
p17
g2
sS'cadence'
p18
g2
s.(dp0
S'blood_pressure'
p1
S'nd'
p2
sS'imu_head'
p3
(dp4
S'yaw'
p5
F17.172524836288932
sS'roll'
p6
F18.77624526842964
sS'pitch'
p7
F7.32098962767834
ssS'heart_rate'
p8
F59.42011886735143
sS'imu_torso'
p9
(dp10
g5
F1.714277792665233
sg6
F12.745773433921064
sg7
F17.157716614636463
ssS'steplength'
p11
g2
sS'timestamp'
p12
cdatetime
datetime
p13
(S'\x07\xe1\x0c\x13\x0c)5\x01H '
p14
tp15
Rp16
sS'speed'
p17
g2
sS'cadence'
p18
g2
s.(dp0
S'blood_pressure'
p1
S'nd'
p2
sS'imu_head'
p3
(dp4
S'yaw'
p5
F6.218309987252455
sS'roll'
p6
F8.694022501455672
sS'pitch'
p7
F15.800137259987501
ssS'heart_rate'
p8
F34.18335077308733
sS'imu_torso'
p9
(dp10
g5
F10.21086143494809
sg6
F13.470935967986026
sg7
F17.120218539299877
ssS'steplength'
p11
g2
sS'timestamp'
p12
cdatetime
datetime
p13
(S'\x07\xe1\x0c\x13\x0c)6\x01L\x08'
p14
tp15
Rp16
sS'speed'
p17
g2
sS'cadence'
p18
g2
s.(dp0
S'blood_pressure'
p1
S'nd'
p2
sS'imu_head'
p3
(dp4
S'yaw'
p5
F19.132972025134293
sS'roll'
p6
F14.578239259621789
sS'pitch'
p7
F6.286809913485589
ssS'heart_rate'
p8
F59.430508244069934
sS'imu_torso'
p9
(dp10
g5
F7.542574221785516
sg6
F2.5677293582832594
sg7
F3.216137395376224
ssS'steplength'
p11
g2
sS'timestamp'
p12
cdatetime
datetime
p13
(S'\x07\xe1\x0c\x13\x0c)7\x01S\xd8'
p14
tp15
Rp16
sS'speed'
p17
g2
sS'cadence'
p18
g2
s.(dp0
S'blood_pressure'
p1
S'nd'
p2
sS'imu_head'
p3
(dp4
S'yaw'
p5
F8.742744344152397
sS'roll'
p6
F3.010225068621113
sS'pitch'
p7
F11.536340349278271
ssS'heart_rate'
p8
F17.722065993388448
sS'imu_torso'
p9
(dp10
g5
F19.224800822890913
sg6
F7.371105691860535
sg7
F6.490759880906529
ssS'steplength'
p11
g2
sS'timestamp'
p12
cdatetime
datetime
p13
(S'\x07\xe1\x0c\x13\x0c)8\x01[\xa8'
p14
tp15
Rp16
sS'speed'
p17
g2
sS'cadence'
p18
g2
s.(dp0
S'blood_pressure'
p1
S'nd'
p2
sS'imu_head'
p3
(dp4
S'yaw'
p5
F10.679087691238657
sS'roll'
p6
F7.479030444287542
sS'pitch'
p7
F6.820634456897661
ssS'heart_rate'
p8
F82.70139653457122
sS'imu_torso'
p9
(dp10
g5
F8.188594376677194
sg6
F16.400256572367798
sg7
F7.944541342179255
ssS'steplength'
p11
g2
sS'timestamp'
p12
cdatetime
datetime
p13
(S'\x07\xe1\x0c\x13\x0c)9\x01cx'
p14
tp15
Rp16
sS'speed'
p17
g2
sS'cadence'
p18
g2
s.(dp0
S'blood_pressure'
p1
S'nd'
p2
sS'imu_head'
p3
(dp4
S'yaw'
p5
F16.04730389070661
sS'roll'
p6
F5.736039901164585
sS'pitch'
p7
F0.8056396554830791
ssS'heart_rate'
p8
F52.44494326832393
sS'imu_torso'
p9
(dp10
g5
F18.695485556955177
sg6
F4.776965587513571
sg7
F11.641653989965373
ssS'steplength'
p11
g2
sS'timestamp'
p12
cdatetime
datetime
p13
(S'\x07\xe1\x0c\x13\x0c):\x01o0'
p14
tp15
Rp16
sS'speed'
p17
g2
sS'cadence'
p18
g2
s.(dp0
S'blood_pressure'
p1
S'nd'
p2
sS'imu_head'
p3
(dp4
S'yaw'
p5
F6.108086672802456
sS'roll'
p6
F15.642115079350345
sS'pitch'
p7
F5.551323500432219
ssS'heart_rate'
p8
F50.190654860431806
sS'imu_torso'
p9
(dp10
g5
F17.82059165647318
sg6
F13.384608790141655
sg7
F5.573399721010799
ssS'steplength'
p11
g2
sS'timestamp'
p12
cdatetime
datetime
p13
(S'\x07\xe1\x0c\x13\x0c);\x01w\x00'
p14
tp15
Rp16
sS'speed'
p17
g2
sS'cadence'
p18
g2
s.(dp0
S'blood_pressure'
p1
S'nd'
p2
sS'imu_head'
p3
(dp4
S'yaw'
p5
F9.268735622362417
sS'roll'
p6
F1.4940742204878132
sS'pitch'
p7
F14.407216406996916
ssS'heart_rate'
p8
F27.209200127993594
sS'imu_torso'
p9
(dp10
g5
F18.726760240026238
sg6
F4.29496857794275
sg7
F4.85598201032214
ssS'steplength'
p11
g2
sS'timestamp'
p12
cdatetime
datetime
p13
(S'\x07\xe1\x0c\x13\x0c*\x00\x01z\xe8'
p14
tp15
Rp16
sS'speed'
p17
g2
sS'cadence'
p18
g2
s.(dp0
S'blood_pressure'
p1
S'nd'
p2
sS'imu_head'
p3
(dp4
S'yaw'
p5
F10.486198777559064
sS'roll'
p6
F17.83269863756055
sS'pitch'
p7
F18.17328317512049
ssS'heart_rate'
p8
F53.825123067057476
sS'imu_torso'
p9
(dp10
g5
F10.141131530709712
sg6
F11.889628850575702
sg7
F16.394095364198886
ssS'steplength'
p11
g2
sS'timestamp'
p12
cdatetime
datetime
p13
(S'\x07\xe1\x0c\x13\x0c*\x01\x01\x82\xb8'
p14
tp15
Rp16
sS'speed'
p17
g2
sS'cadence'
p18
g2
s.(dp0
S'blood_pressure'
p1
S'nd'
p2
sS'imu_head'
p3
(dp4
S'yaw'
p5
F14.637874789567299
sS'roll'
p6
F13.833571635384548
sS'pitch'
p7
F16.371179598518445
ssS'heart_rate'
p8
F96.63450130890719
sS'imu_torso'
p9
(dp10
g5
F14.199734604403623
sg6
F4.645329581341868
sg7
F15.313624104525994
ssS'steplength'
p11
g2
sS'timestamp'
p12
cdatetime
datetime
p13
(S'\x07\xe1\x0c\x13\x0c*\x02\x01\x8a\x88'
p14
tp15
Rp16
sS'speed'
p17
g2
sS'cadence'
p18
g2
s.(dp0
S'blood_pressure'
p1
S'nd'
p2
sS'imu_head'
p3
(dp4
S'yaw'
p5
F10.658892229584469
sS'roll'
p6
F16.36003613621609
sS'pitch'
p7
F17.866066790886464
ssS'heart_rate'
p8
F72.50110298775293
sS'imu_torso'
p9
(dp10
g5
F13.430737535829508
sg6
F9.799684785823391
sg7
F18.073066389582326
ssS'steplength'
p11
g2
sS'timestamp'
p12
cdatetime
datetime
p13
(S'\x07\xe1\x0c\x13\x0c*\x03\x01\x92X'
p14
tp15
Rp16
sS'speed'
p17
g2
sS'cadence'
p18
g2
s.(dp0
S'blood_pressure'
p1
S'nd'
p2
sS'imu_head'
p3
(dp4
S'yaw'
p5
F18.884973493828753
sS'roll'
p6
F12.359540275315899
sS'pitch'
p7
F13.371310280272246
ssS'heart_rate'
p8
F69.11713257996051
sS'imu_torso'
p9
(dp10
g5
F16.696874577226918
sg6
F11.420785732583596
sg7
F18.950476960505757
ssS'steplength'
p11
g2
sS'timestamp'
p12
cdatetime
datetime
p13
(S'\x07\xe1\x0c\x13\x0c*\x04\x01\x9e\x10'
p14
tp15
Rp16
sS'speed'
p17
g2
sS'cadence'
p18
g2
s.(dp0
S'blood_pressure'
p1
S'nd'
p2
sS'imu_head'
p3
(dp4
S'yaw'
p5
F1.4433606180367087
sS'roll'
p6
F3.0025188103410816
sS'pitch'
p7
F3.207228593163045
ssS'heart_rate'
p8
F99.61807474113748
sS'imu_torso'
p9
(dp10
g5
F3.1974634340782293
sg6
F5.694131928922841
sg7
F13.511035969995035
ssS'steplength'
p11
g2
sS'timestamp'
p12
cdatetime
datetime
p13
(S'\x07\xe1\x0c\x13\x0c*\x05\x01\xa1\xf8'
p14
tp15
Rp16
sS'speed'
p17
g2
sS'cadence'
p18
g2
s.(dp0
S'blood_pressure'
p1
S'nd'
p2
sS'imu_head'
p3
(dp4
S'yaw'
p5
F10.001073857875795
sS'roll'
p6
F1.9384277496822189
sS'pitch'
p7
F1.7748110343235957
ssS'heart_rate'
p8
F2.6823809369617146
sS'imu_torso'
p9
(dp10
g5
F14.845488092138073
sg6
F17.288207190979307
sg7
F16.844481306417716
ssS'steplength'
p11
g2
sS'timestamp'
p12
cdatetime
datetime
p13
(S'\x07\xe1\x0c\x13\x0c*\x06\x01\xad\xb0'
p14
tp15
Rp16
sS'speed'
p17
g2
sS'cadence'
p18
g2
s.(dp0
S'blood_pressure'
p1
S'nd'
p2
sS'imu_head'
p3
(dp4
S'yaw'
p5
F18.582672346672084
sS'roll'
p6
F2.2012586300971493
sS'pitch'
p7
F11.690310930484886
ssS'heart_rate'
p8
F4.671655678086362
sS'imu_torso'
p9
(dp10
g5
F16.882099044466674
sg6
F18.027794080520202
sg7
F6.741516781968084
ssS'steplength'
p11
g2
sS'timestamp'
p12
cdatetime
datetime
p13
(S'\x07\xe1\x0c\x13\x0c*\x07\x01\xb5\x80'
p14
tp15
Rp16
sS'speed'
p17
g2
sS'cadence'
p18
g2
s.(dp0
S'blood_pressure'
p1
S'nd'
p2
sS'imu_head'
p3
(dp4
S'yaw'
p5
F18.435350542087836
sS'roll'
p6
F5.949998296840729
sS'pitch'
p7
F9.035032876205456
ssS'heart_rate'
p8
F47.52553433320615
sS'imu_torso'
p9
(dp10
g5
F7.065208451893752
sg6
F9.630217014959507
sg7
F17.846299172821546
ssS'steplength'
p11
g2
sS'timestamp'
p12
cdatetime
datetime
p13
(S'\x07\xe1\x0c\x13\x0c*\x08\x01\xbdP'
p14
tp15
Rp16
sS'speed'
p17
g2
sS'cadence'
p18
g2
s.(dp0
S'blood_pressure'
p1
S'nd'
p2
sS'imu_head'
p3
(dp4
S'yaw'
p5
F16.184336733527097
sS'roll'
p6
F7.808848066315144
sS'pitch'
p7
F16.493464540855577
ssS'heart_rate'
p8
F95.59641143002258
sS'imu_torso'
p9
(dp10
g5
F18.327126888802454
sg6
F5.065679098778759
sg7
F0.3594153149881607
ssS'steplength'
p11
g2
sS'timestamp'
p12
cdatetime
datetime
p13
(S'\x07\xe1\x0c\x13\x0c*\t\x01\xc9\x08'
p14
tp15
Rp16
sS'speed'
p17
g2
sS'cadence'
p18
g2
s.(dp0
S'blood_pressure'
p1
S'nd'
p2
sS'imu_head'
p3
(dp4
S'yaw'
p5
F8.077359151596168
sS'roll'
p6
F15.044075710677962
sS'pitch'
p7
F1.5861550534192848
ssS'heart_rate'
p8
F50.92130553361337
sS'imu_torso'
p9
(dp10
g5
F14.727294795315027
sg6
F6.318529055230197
sg7
F14.993326823260748
ssS'steplength'
p11
g2
sS'timestamp'
p12
cdatetime
datetime
p13
(S'\x07\xe1\x0c\x13\x0c*\n\x01\xcc\xf0'
p14
tp15
Rp16
sS'speed'
p17
g2
sS'cadence'
p18
g2
s.(dp0
S'blood_pressure'
p1
S'nd'
p2
sS'imu_head'
p3
(dp4
S'yaw'
p5
F14.269413247914873
sS'roll'
p6
F8.77611293703348
sS'pitch'
p7
F11.579247424203846
ssS'heart_rate'
p8
F88.62466811390979
sS'imu_torso'
p9
(dp10
g5
F15.22246899115933
sg6
F19.966973579168553
sg7
F19.357660165056544
ssS'steplength'
p11
g2
sS'timestamp'
p12
cdatetime
datetime
p13
(S'\x07\xe1\x0c\x13\x0c*\x0b\x01\xd8\xa8'
p14
tp15
Rp16
sS'speed'
p17
g2
sS'cadence'
p18
g2
s.(dp0
S'blood_pressure'
p1
S'nd'
p2
sS'imu_head'
p3
(dp4
S'yaw'
p5
F16.390432865467343
sS'roll'
p6
F3.5608154314059615
sS'pitch'
p7
F17.83289794644458
ssS'heart_rate'
p8
F35.40553159786916
sS'imu_torso'
p9
(dp10
g5
F5.390817486614761
sg6
F3.350410272120967
sg7
F0.040669412524831916
ssS'steplength'
p11
g2
sS'timestamp'
p12
cdatetime
datetime
p13
(S'\x07\xe1\x0c\x13\x0c*\x0c\x01\xe0x'
p14
tp15
Rp16
sS'speed'
p17
g2
sS'cadence'
p18
g2
s.(dp0
S'blood_pressure'
p1
S'nd'
p2
sS'imu_head'
p3
(dp4
S'yaw'
p5
F14.733748656209409
sS'roll'
p6
F7.196951740438244
sS'pitch'
p7
F15.11570456942156
ssS'heart_rate'
p8
F34.156387287930855
sS'imu_torso'
p9
(dp10
g5
F17.659733612495074
sg6
F11.819615274821109
sg7
F13.550115828591915
ssS'steplength'
p11
g2
sS'timestamp'
p12
cdatetime
datetime
p13
(S'\x07\xe1\x0c\x13\x0c*\r\x01\xe8H'
p14
tp15
Rp16
sS'speed'
p17
g2
sS'cadence'
p18
g2
s.(dp0
S'blood_pressure'
p1
S'nd'
p2
sS'imu_head'
p3
(dp4
S'yaw'
p5
F8.473825769077123
sS'roll'
p6
F3.0793245449699413
sS'pitch'
p7
F11.345179655290664
ssS'heart_rate'
p8
F34.46048666394154
sS'imu_torso'
p9
(dp10
g5
F4.699997722451721
sg6
F15.856811945914473
sg7
F18.37049257639165
ssS'steplength'
p11
g2
sS'timestamp'
p12
cdatetime
datetime
p13
(S'\x07\xe1\x0c\x13\x0c*\x0e\x01\xec0'
p14
tp15
Rp16
sS'speed'
p17
g2
sS'cadence'
p18
g2
s.(dp0
S'blood_pressure'
p1
S'nd'
p2
sS'imu_head'
p3
(dp4
S'yaw'
p5
F9.47533366088961
sS'roll'
p6
F0.5527302164176273
sS'pitch'
p7
F8.715655070120787
ssS'heart_rate'
p8
F35.657251940682876
sS'imu_torso'
p9
(dp10
g5
F19.73407569075203
sg6
F0.606728484597796
sg7
F13.965996003194237
ssS'steplength'
p11
g2
sS'timestamp'
p12
cdatetime
datetime
p13
(S'\x07\xe1\x0c\x13\x0c*\x0f\x01\xfb\xd0'
p14
tp15
Rp16
sS'speed'
p17
g2
sS'cadence'
p18
g2
s.(dp0
S'blood_pressure'
p1
S'nd'
p2
sS'imu_head'
p3
(dp4
S'yaw'
p5
F4.570595035290255
sS'roll'
p6
F6.487239922177044
sS'pitch'
p7
F10.72713819614727
ssS'heart_rate'
p8
F45.59256374522393
sS'imu_torso'
p9
(dp10
g5
F9.480260231872954
sg6
F17.524558660064088
sg7
F5.992251640130299
ssS'steplength'
p11
g2
sS'timestamp'
p12
cdatetime
datetime
p13
(S'\x07\xe1\x0c\x13\x0c*\x10\x02\x03\xa0'
p14
tp15
Rp16
sS'speed'
p17
g2
sS'cadence'
p18
g2
s.(dp0
S'blood_pressure'
p1
S'nd'
p2
sS'imu_head'
p3
(dp4
S'yaw'
p5
F5.594339222696416
sS'roll'
p6
F0.6123142840107243
sS'pitch'
p7
F15.914438188769022
ssS'heart_rate'
p8
F91.6392391139853
sS'imu_torso'
p9
(dp10
g5
F19.343593805604378
sg6
F1.1781082288461775
sg7
F11.83162000856137
ssS'steplength'
p11
g2
sS'timestamp'
p12
cdatetime
datetime
p13
(S'\x07\xe1\x0c\x13\x0c*\x11\x02\x0bp'
p14
tp15
Rp16
sS'speed'
p17
g2
sS'cadence'
p18
g2
s.(dp0
S'blood_pressure'
p1
S'nd'
p2
sS'imu_head'
p3
(dp4
S'yaw'
p5
F15.621261870840499
sS'roll'
p6
F19.93630771157984
sS'pitch'
p7
F14.733848507099852
ssS'heart_rate'
p8
F51.11064519408561
sS'imu_torso'
p9
(dp10
g5
F19.405612463010172
sg6
F19.50554386162567
sg7
F9.065946936629803
ssS'steplength'
p11
g2
sS'timestamp'
p12
cdatetime
datetime
p13
(S'\x07\xe1\x0c\x13\x0c*\x12\x02\x17('
p14
tp15
Rp16
sS'speed'
p17
g2
sS'cadence'
p18
g2
s.(dp0
S'blood_pressure'
p1
S'nd'
p2
sS'imu_head'
p3
(dp4
S'yaw'
p5
F18.467782811961317
sS'roll'
p6
F18.48958548019992
sS'pitch'
p7
F18.213019224062442
ssS'heart_rate'
p8
F86.0362801765991
sS'imu_torso'
p9
(dp10
g5
F0.19380832958913796
sg6
F9.452154114239262
sg7
F0.7410479168527284
ssS'steplength'
p11
g2
sS'timestamp'
p12
cdatetime
datetime
p13
(S'\x07\xe1\x0c\x13\x0c*\x13\x02\x1e\xf8'
p14
tp15
Rp16
sS'speed'
p17
g2
sS'cadence'
p18
g2
s.(dp0
S'blood_pressure'
p1
S'nd'
p2
sS'imu_head'
p3
(dp4
S'yaw'
p5
F18.79338261195532
sS'roll'
p6
F10.812200062973375
sS'pitch'
p7
F2.80077605038475
ssS'heart_rate'
p8
F49.421409950436676
sS'imu_torso'
p9
(dp10
g5
F3.3543236133395715
sg6
F9.08032951671319
sg7
F11.380728551303003
ssS'steplength'
p11
g2
sS'timestamp'
p12
cdatetime
datetime
p13
(S'\x07\xe1\x0c\x13\x0c*\x14\x02&\xc8'
p14
tp15
Rp16
sS'speed'
p17
g2
sS'cadence'
p18
g2
s.(dp0
S'blood_pressure'
p1
S'nd'
p2
sS'imu_head'
p3
(dp4
S'yaw'
p5
F1.6625823543880758
sS'roll'
p6
F4.014734118018852
sS'pitch'
p7
F4.352417648230853
ssS'heart_rate'
p8
F64.80216817256174
sS'imu_torso'
p9
(dp10
g5
F19.147534934504485
sg6
F10.094373505045382
sg7
F2.0255476496407265
ssS'steplength'
p11
g2
sS'timestamp'
p12
cdatetime
datetime
p13
(S'\x07\xe1\x0c\x13\x0c*\x15\x02.\x98'
p14
tp15
Rp16
sS'speed'
p17
g2
sS'cadence'
p18
g2
s.(dp0
S'blood_pressure'
p1
S'nd'
p2
sS'imu_head'
p3
(dp4
S'yaw'
p5
F8.593848535666766
sS'roll'
p6
F18.818855559982445
sS'pitch'
p7
F15.774043022192467
ssS'heart_rate'
p8
F36.56707973635041
sS'imu_torso'
p9
(dp10
g5
F11.90211133859242
sg6
F8.811571435662024
sg7
F2.9074468017379473
ssS'steplength'
p11
g2
sS'timestamp'
p12
cdatetime
datetime
p13
(S'\x07\xe1\x0c\x13\x0c*\x16\x026h'
p14
tp15
Rp16
sS'speed'
p17
g2
sS'cadence'
p18
g2
s.(dp0
S'blood_pressure'
p1
S'nd'
p2
sS'imu_head'
p3
(dp4
S'yaw'
p5
F7.578870270743739
sS'roll'
p6
F2.9188411830586913
sS'pitch'
p7
F16.31962325036439
ssS'heart_rate'
p8
F63.41881844814743
sS'imu_torso'
p9
(dp10
g5
F10.883154802302194
sg6
F4.90221408060048
sg7
F15.037712829164231
ssS'steplength'
p11
g2
sS'timestamp'
p12
cdatetime
datetime
p13
(S'\x07\xe1\x0c\x13\x0c*\x17\x02>8'
p14
tp15
Rp16
sS'speed'
p17
g2
sS'cadence'
p18
g2
s.(dp0
S'blood_pressure'
p1
S'nd'
p2
sS'imu_head'
p3
(dp4
S'yaw'
p5
F12.899821565571097
sS'roll'
p6
F14.273100858963124
sS'pitch'
p7
F0.46827601734323876
ssS'heart_rate'
p8
F17.49909315980178
sS'imu_torso'
p9
(dp10
g5
F10.149069274465067
sg6
F1.0896085604429984
sg7
F8.240152605837807
ssS'steplength'
p11
g2
sS'timestamp'
p12
cdatetime
datetime
p13
(S'\x07\xe1\x0c\x13\x0c*\x18\x02F\x08'
p14
tp15
Rp16
sS'speed'
p17
g2
sS'cadence'
p18
g2
s.(dp0
S'blood_pressure'
p1
S'nd'
p2
sS'imu_head'
p3
(dp4
S'yaw'
p5
F18.79930622468399
sS'roll'
p6
F9.137405628498714
sS'pitch'
p7
F12.103403514795566
ssS'heart_rate'
p8
F4.624193654584818
sS'imu_torso'
p9
(dp10
g5
F3.597974449191299
sg6
F16.456314009105224
sg7
F17.109010218322908
ssS'steplength'
p11
g2
sS'timestamp'
p12
cdatetime
datetime
p13
(S'\x07\xe1\x0c\x13\x0c*\x19\x02I\xf0'
p14
tp15
Rp16
sS'speed'
p17
g2
sS'cadence'
p18
g2
s.(dp0
S'blood_pressure'
p1
S'nd'
p2
sS'imu_head'
p3
(dp4
S'yaw'
p5
F9.916978603066745
sS'roll'
p6
F19.631859203158182
sS'pitch'
p7
F13.696291915144553
ssS'heart_rate'
p8
F73.7743644432544
sS'imu_torso'
p9
(dp10
g5
F5.889783408887618
sg6
F18.567478502641265
sg7
F5.824144021305218
ssS'steplength'
p11
g2
sS'timestamp'
p12
cdatetime
datetime
p13
(S'\x07\xe1\x0c\x13\x0c*\x1a\x02U\xa8'
p14
tp15
Rp16
sS'speed'
p17
g2
sS'cadence'
p18
g2
s.(dp0
S'blood_pressure'
p1
S'nd'
p2
sS'imu_head'
p3
(dp4
S'yaw'
p5
F18.978211138687396
sS'roll'
p6
F18.994669638764453
sS'pitch'
p7
F15.717885092392885
ssS'heart_rate'
p8
F90.45816093274527
sS'imu_torso'
p9
(dp10
g5
F6.876926436549495
sg6
F17.556311395831663
sg7
F18.68538283466837
ssS'steplength'
p11
g2
sS'timestamp'
p12
cdatetime
datetime
p13
(S'\x07\xe1\x0c\x13\x0c*\x1b\x02Y\x90'
p14
tp15
Rp16
sS'speed'
p17
g2
sS'cadence'
p18
g2
s.(dp0
S'blood_pressure'
p1
S'nd'
p2
sS'imu_head'
p3
(dp4
S'yaw'
p5
F10.46469912063738
sS'roll'
p6
F1.1008394567941937
sS'pitch'
p7
F10.99977639216122
ssS'heart_rate'
p8
F39.118088764844636
sS'imu_torso'
p9
(dp10
g5
F17.834275882072046
sg6
F13.296621981134283
sg7
F18.082505357260036
ssS'steplength'
p11
g2
sS'timestamp'
p12
cdatetime
datetime
p13
(S'\x07\xe1\x0c\x13\x0c*\x1c\x02a`'
p14
tp15
Rp16
sS'speed'
p17
g2
sS'cadence'
p18
g2
s.(dp0
S'blood_pressure'
p1
S'nd'
p2
sS'imu_head'
p3
(dp4
S'yaw'
p5
F19.259112842945207
sS'roll'
p6
F12.316979956795596
sS'pitch'
p7
F4.519872162694856
ssS'heart_rate'
p8
F52.25305065671386
sS'imu_torso'
p9
(dp10
g5
F5.183958798666726
sg6
F12.69168429864158
sg7
F17.688933920310316
ssS'steplength'
p11
g2
sS'timestamp'
p12
cdatetime
datetime
p13
(S'\x07\xe1\x0c\x13\x0c*\x1d\x02m\x18'
p14
tp15
Rp16
sS'speed'
p17
g2
sS'cadence'
p18
g2
s.(dp0
S'blood_pressure'
p1
S'nd'
p2
sS'imu_head'
p3
(dp4
S'yaw'
p5
F17.052805849080343
sS'roll'
p6
F2.95313425843283
sS'pitch'
p7
F0.012742473113960262
ssS'heart_rate'
p8
F65.60098290060455
sS'imu_torso'
p9
(dp10
g5
F15.18938167040988
sg6
F19.564680013646207
sg7
F1.4788442839264104
ssS'steplength'
p11
g2
sS'timestamp'
p12
cdatetime
datetime
p13
(S'\x07\xe1\x0c\x13\x0c*\x1e\x02q\x00'
p14
tp15
Rp16
sS'speed'
p17
g2
sS'cadence'
p18
g2
s.(dp0
S'blood_pressure'
p1
S'nd'
p2
sS'imu_head'
p3
(dp4
S'yaw'
p5
F5.60693213795052
sS'roll'
p6
F3.4983979984622593
sS'pitch'
p7
F1.1375373313422976
ssS'heart_rate'
p8
F84.13996149143199
sS'imu_torso'
p9
(dp10
g5
F12.418456937918727
sg6
F19.332882297100173
sg7
F1.9885879862971811
ssS'steplength'
p11
g2
sS'timestamp'
p12
cdatetime
datetime
p13
(S'\x07\xe1\x0c\x13\x0c*\x1f\x02|\xb8'
p14
tp15
Rp16
sS'speed'
p17
g2
sS'cadence'
p18
g2
s.(dp0
S'blood_pressure'
p1
S'nd'
p2
sS'imu_head'
p3
(dp4
S'yaw'
p5
F4.631901556273748
sS'roll'
p6
F2.370859204011999
sS'pitch'
p7
F0.49679427580345825
ssS'heart_rate'
p8
F91.20047172633545
sS'imu_torso'
p9
(dp10
g5
F2.8756703580443954
sg6
F18.293146800769513
sg7
F1.7817392001074173
ssS'steplength'
p11
g2
sS'timestamp'
p12
cdatetime
datetime
p13
(S'\x07\xe1\x0c\x13\x0c* \x02\x84\x88'
p14
tp15
Rp16
sS'speed'
p17
g2
sS'cadence'
p18
g2
s.(dp0
S'blood_pressure'
p1
S'nd'
p2
sS'imu_head'
p3
(dp4
S'yaw'
p5
F1.1750450070148988
sS'roll'
p6
F7.132788809338946
sS'pitch'
p7
F11.387147871336678
ssS'heart_rate'
p8
F83.10041985549863
sS'imu_torso'
p9
(dp10
g5
F1.4214268376470973
sg6
F12.339902061437247
sg7
F9.358632905937583
ssS'steplength'
p11
g2
sS'timestamp'
p12
cdatetime
datetime
p13
(S'\x07\xe1\x0c\x13\x0c*!\x02\x90@'
p14
tp15
Rp16
sS'speed'
p17
g2
sS'cadence'
p18
g2
s.(dp0
S'blood_pressure'
p1
S'nd'
p2
sS'imu_head'
p3
(dp4
S'yaw'
p5
F7.117159880745188
sS'roll'
p6
F12.918422163331421
sS'pitch'
p7
F18.1991372798487
ssS'heart_rate'
p8
F82.83296071988843
sS'imu_torso'
p9
(dp10
g5
F5.349111395934816
sg6
F7.047395934106435
sg7
F7.112033283953907
ssS'steplength'
p11
g2
sS'timestamp'
p12
cdatetime
datetime
p13
(S'\x07\xe1\x0c\x13\x0c*"\x02\x98\x10'
p14
tp15
Rp16
sS'speed'
p17
g2
sS'cadence'
p18
g2
s.(dp0
S'blood_pressure'
p1
S'nd'
p2
sS'imu_head'
p3
(dp4
S'yaw'
p5
F12.92501246287946
sS'roll'
p6
F15.037649558305436
sS'pitch'
p7
F14.964958697369466
ssS'heart_rate'
p8
F0.9096391636983281
sS'imu_torso'
p9
(dp10
g5
F1.1072709294670258
sg6
F5.752036955888644
sg7
F0.27772569383104573
ssS'steplength'
p11
g2
sS'timestamp'
p12
cdatetime
datetime
p13
(S'\x07\xe1\x0c\x13\x0c*#\x02\x9f\xe0'
p14
tp15
Rp16
sS'speed'
p17
g2
sS'cadence'
p18
g2
s.(dp0
S'blood_pressure'
p1
S'nd'
p2
sS'imu_head'
p3
(dp4
S'yaw'
p5
F8.521669835296912
sS'roll'
p6
F14.204147234998715
sS'pitch'
p7
F18.93753043316306
ssS'heart_rate'
p8
F91.57909423165916
sS'imu_torso'
p9
(dp10
g5
F9.800877808544758
sg6
F19.812167154596906
sg7
F7.464114078653905
ssS'steplength'
p11
g2
sS'timestamp'
p12
cdatetime
datetime
p13
(S'\x07\xe1\x0c\x13\x0c*$\x02\xab\x98'
p14
tp15
Rp16
sS'speed'
p17
g2
sS'cadence'
p18
g2
s.(dp0
S'blood_pressure'
p1
S'nd'
p2
sS'imu_head'
p3
(dp4
S'yaw'
p5
F16.187819887038984
sS'roll'
p6
F6.93672355423738
sS'pitch'
p7
F9.611286337314697
ssS'heart_rate'
p8
F7.843439316231649
sS'imu_torso'
p9
(dp10
g5
F10.198666381605916
sg6
F1.7612100053671176
sg7
F12.15282340333492
ssS'steplength'
p11
g2
sS'timestamp'
p12
cdatetime
datetime
p13
(S'\x07\xe1\x0c\x13\x0c*%\x02\xb7P'
p14
tp15
Rp16
sS'speed'
p17
g2
sS'cadence'
p18
g2
s.(dp0
S'blood_pressure'
p1
S'nd'
p2
sS'imu_head'
p3
(dp4
S'yaw'
p5
F10.05544524669595
sS'roll'
p6
F14.494652179698269
sS'pitch'
p7
F2.5662486323828193
ssS'heart_rate'
p8
F84.90696499753862
sS'imu_torso'
p9
(dp10
g5
F19.2970267939809
sg6
F19.911608723159592
sg7
F1.2585492445084512
ssS'steplength'
p11
g2
sS'timestamp'
p12
cdatetime
datetime
p13
(S'\x07\xe1\x0c\x13\x0c*&\x02\xbf '
p14
tp15
Rp16
sS'speed'
p17
g2
sS'cadence'
p18
g2
s.(dp0
S'blood_pressure'
p1
S'nd'
p2
sS'imu_head'
p3
(dp4
S'yaw'
p5
F11.252510829704462
sS'roll'
p6
F15.953436923032227
sS'pitch'
p7
F10.753038941238124
ssS'heart_rate'
p8
F41.679181619221694
sS'imu_torso'
p9
(dp10
g5
F8.531341519559854
sg6
F12.328247382636597
sg7
F10.024129559378093
ssS'steplength'
p11
g2
sS'timestamp'
p12
cdatetime
datetime
p13
(S"\x07\xe1\x0c\x13\x0c*'\x02\xca\xd8"
p14
tp15
Rp16
sS'speed'
p17
g2
sS'cadence'
p18
g2
s.(dp0
S'blood_pressure'
p1
S'nd'
p2
sS'imu_head'
p3
(dp4
S'yaw'
p5
F18.698614170296512
sS'roll'
p6
F15.282757478724534
sS'pitch'
p7
F17.0014762789364
ssS'heart_rate'
p8
F7.731698496898732
sS'imu_torso'
p9
(dp10
g5
F18.73023471784325
sg6
F5.856077495896564
sg7
F16.562847196430596
ssS'steplength'
p11
g2
sS'timestamp'
p12
cdatetime
datetime
p13
(S'\x07\xe1\x0c\x13\x0c*(\x02\xd2\xa8'
p14
tp15
Rp16
sS'speed'
p17
g2
sS'cadence'
p18
g2
s.(dp0
S'blood_pressure'
p1
S'nd'
p2
sS'imu_head'
p3
(dp4
S'yaw'
p5
F0.3281655385828386
sS'roll'
p6
F10.885730075632225
sS'pitch'
p7
F2.2261586402590505
ssS'heart_rate'
p8
F17.577611376663327
sS'imu_torso'
p9
(dp10
g5
F9.478387914398589
sg6
F16.334426336722196
sg7
F16.56673861834021
ssS'steplength'
p11
g2
sS'timestamp'
p12
cdatetime
datetime
p13
(S'\x07\xe1\x0c\x13\x0c*)\x02\xdax'
p14
tp15
Rp16
sS'speed'
p17
g2
sS'cadence'
p18
g2
s.(dp0
S'blood_pressure'
p1
S'nd'
p2
sS'imu_head'
p3
(dp4
S'yaw'
p5
F15.011236832156236
sS'roll'
p6
F18.1228916756636
sS'pitch'
p7
F8.891071580164345
ssS'heart_rate'
p8
F42.55609881281687
sS'imu_torso'
p9
(dp10
g5
F12.136543505209739
sg6
F14.914924724736828
sg7
F5.345358940653142
ssS'steplength'
p11
g2
sS'timestamp'
p12
cdatetime
datetime
p13
(S'\x07\xe1\x0c\x13\x0c**\x02\xe2H'
p14
tp15
Rp16
sS'speed'
p17
g2
sS'cadence'
p18
g2
s.(dp0
S'blood_pressure'
p1
S'nd'
p2
sS'imu_head'
p3
(dp4
S'yaw'
p5
F18.50296705819385
sS'roll'
p6
F10.916887357909486
sS'pitch'
p7
F14.431576046302723
ssS'heart_rate'
p8
F96.93515611735072
sS'imu_torso'
p9
(dp10
g5
F9.542124425914764
sg6
F3.7700903604586222
sg7
F5.51679254096578
ssS'steplength'
p11
g2
sS'timestamp'
p12
cdatetime
datetime
p13
(S'\x07\xe1\x0c\x13\x0c*+\x02\xe2H'
p14
tp15
Rp16
sS'speed'
p17
g2
sS'cadence'
p18
g2
s.(dp0
S'blood_pressure'
p1
S'nd'
p2
sS'imu_head'
p3
(dp4
S'yaw'
p5
F8.737594955276434
sS'roll'
p6
F10.174293984967795
sS'pitch'
p7
F2.975670648689932
ssS'heart_rate'
p8
F50.76118817343318
sS'imu_torso'
p9
(dp10
g5
F3.558847749655585
sg6
F7.6485446943727675
sg7
F11.462687853540896
ssS'steplength'
p11
g2
sS'timestamp'
p12
cdatetime
datetime
p13
(S'\x07\xe1\x0c\x13\x0c*,\x02\xee\x00'
p14
tp15
Rp16
sS'speed'
p17
g2
sS'cadence'
p18
g2
s.(dp0
S'blood_pressure'
p1
S'nd'
p2
sS'imu_head'
p3
(dp4
S'yaw'
p5
F4.88985545322697
sS'roll'
p6
F15.857883710313427
sS'pitch'
p7
F19.90282903949292
ssS'heart_rate'
p8
F84.01210858924564
sS'imu_torso'
p9
(dp10
g5
F1.9002279351183038
sg6
F7.12313292472158
sg7
F1.9774634153259352
ssS'steplength'
p11
g2
sS'timestamp'
p12
cdatetime
datetime
p13
(S'\x07\xe1\x0c\x13\x0c*-\x02\xf5\xd0'
p14
tp15
Rp16
sS'speed'
p17
g2
sS'cadence'
p18
g2
s.(dp0
S'blood_pressure'
p1
S'nd'
p2
sS'imu_head'
p3
(dp4
S'yaw'
p5
F17.709817823338064
sS'roll'
p6
F13.677736165646282
sS'pitch'
p7
F15.57569927874977
ssS'heart_rate'
p8
F97.55374036310103
sS'imu_torso'
p9
(dp10
g5
F2.711905771486953
sg6
F16.850340443327696
sg7
F5.190977221680281
ssS'steplength'
p11
g2
sS'timestamp'
p12
cdatetime
datetime
p13
(S'\x07\xe1\x0c\x13\x0c*.\x02\xfd\xa0'
p14
tp15
Rp16
sS'speed'
p17
g2
sS'cadence'
p18
g2
s.(dp0
S'blood_pressure'
p1
S'nd'
p2
sS'imu_head'
p3
(dp4
S'yaw'
p5
F4.2898505840201455
sS'roll'
p6
F8.877385008910057
sS'pitch'
p7
F18.55774389289816
ssS'heart_rate'
p8
F15.037093347964081
sS'imu_torso'
p9
(dp10
g5
F9.632144188112992
sg6
F1.4903414974105011
sg7
F11.325258405312955
ssS'steplength'
p11
g2
sS'timestamp'
p12
cdatetime
datetime
p13
(S'\x07\xe1\x0c\x13\x0c*/\x03\x05p'
p14
tp15
Rp16
sS'speed'
p17
g2
sS'cadence'
p18
g2
s.(dp0
S'blood_pressure'
p1
S'nd'
p2
sS'imu_head'
p3
(dp4
S'yaw'
p5
F12.678286550904872
sS'roll'
p6
F8.408416895107946
sS'pitch'
p7
F9.513947527325865
ssS'heart_rate'
p8
F49.58962569464399
sS'imu_torso'
p9
(dp10
g5
F9.171235792117978
sg6
F11.98068724270711
sg7
F13.555471175196676
ssS'steplength'
p11
g2
sS'timestamp'
p12
cdatetime
datetime
p13
(S'\x07\xe1\x0c\x13\x0c*0\x03\r@'
p14
tp15
Rp16
sS'speed'
p17
g2
sS'cadence'
p18
g2
s.(dp0
S'blood_pressure'
p1
S'nd'
p2
sS'imu_head'
p3
(dp4
S'yaw'
p5
F6.1507949759336285
sS'roll'
p6
F9.036139786456726
sS'pitch'
p7
F10.510421019191384
ssS'heart_rate'
p8
F25.115755024488262
sS'imu_torso'
p9
(dp10
g5
F10.882382057383666
sg6
F1.1528804743721266
sg7
F16.213401463746344
ssS'steplength'
p11
g2
sS'timestamp'
p12
cdatetime
datetime
p13
(S'\x07\xe1\x0c\x13\x0c*1\x03\x15\x10'
p14
tp15
Rp16
sS'speed'
p17
g2
sS'cadence'
p18
g2
s.(dp0
S'blood_pressure'
p1
S'nd'
p2
sS'imu_head'
p3
(dp4
S'yaw'
p5
F18.67204804936939
sS'roll'
p6
F8.90109599562372
sS'pitch'
p7
F10.322853522532544
ssS'heart_rate'
p8
F68.97122809817724
sS'imu_torso'
p9
(dp10
g5
F14.925812473872515
sg6
F6.698077387723583
sg7
F13.261738955434444
ssS'steplength'
p11
g2
sS'timestamp'
p12
cdatetime
datetime
p13
(S'\x07\xe1\x0c\x13\x0c*2\x03 \xc8'
p14
tp15
Rp16
sS'speed'
p17
g2
sS'cadence'
p18
g2
s.(dp0
S'blood_pressure'
p1
S'nd'
p2
sS'imu_head'
p3
(dp4
S'yaw'
p5
F6.461408122183354
sS'roll'
p6
F19.778537483422248
sS'pitch'
p7
F10.333616741516794
ssS'heart_rate'
p8
F4.299377426440176
sS'imu_torso'
p9
(dp10
g5
F2.883002587449055
sg6
F6.6037613715034755
sg7
F19.547634576151722
ssS'steplength'
p11
g2
sS'timestamp'
p12
cdatetime
datetime
p13
(S'\x07\xe1\x0c\x13\x0c*3\x03(\x98'
p14
tp15
Rp16
sS'speed'
p17
g2
sS'cadence'
p18
g2
s.(dp0
S'blood_pressure'
p1
S'nd'
p2
sS'imu_head'
p3
(dp4
S'yaw'
p5
F4.492117446278126
sS'roll'
p6
F4.895596295170437
sS'pitch'
p7
F14.911740249516438
ssS'heart_rate'
p8
F97.8148513698368
sS'imu_torso'
p9
(dp10
g5
F6.7814265912363965
sg6
F13.449939610396623
sg7
F11.463823335853757
ssS'steplength'
p11
g2
sS'timestamp'
p12
cdatetime
datetime
p13
(S'\x07\xe1\x0c\x13\x0c*4\x034P'
p14
tp15
Rp16
sS'speed'
p17
g2
sS'cadence'
p18
g2
s.(dp0
S'blood_pressure'
p1
S'nd'
p2
sS'imu_head'
p3
(dp4
S'yaw'
p5
F3.122991719573507
sS'roll'
p6
F3.9985493394605154
sS'pitch'
p7
F7.238792867761859
ssS'heart_rate'
p8
F94.54336820712238
sS'imu_torso'
p9
(dp10
g5
F2.1036268633247635
sg6
F12.484354718850843
sg7
F1.3450203532664928
ssS'steplength'
p11
g2
sS'timestamp'
p12
cdatetime
datetime
p13
(S'\x07\xe1\x0c\x13\x0c*5\x034P'
p14
tp15
Rp16
sS'speed'
p17
g2
sS'cadence'
p18
g2
s.(dp0
S'blood_pressure'
p1
S'nd'
p2
sS'imu_head'
p3
(dp4
S'yaw'
p5
F17.59753061408059
sS'roll'
p6
F3.2783962667815425
sS'pitch'
p7
F11.263382999118818
ssS'heart_rate'
p8
F12.727034723240338
sS'imu_torso'
p9
(dp10
g5
F19.821978321008544
sg6
F8.397125037639961
sg7
F12.32300965367256
ssS'steplength'
p11
g2
sS'timestamp'
p12
cdatetime
datetime
p13
(S'\x07\xe1\x0c\x13\x0c*6\x03@\x08'
p14
tp15
Rp16
sS'speed'
p17
g2
sS'cadence'
p18
g2
s.(dp0
S'blood_pressure'
p1
S'nd'
p2
sS'imu_head'
p3
(dp4
S'yaw'
p5
F15.623280427194983
sS'roll'
p6
F14.079906223934685
sS'pitch'
p7
F1.406980469241117
ssS'heart_rate'
p8
F87.37994368661658
sS'imu_torso'
p9
(dp10
g5
F10.340568532744694
sg6
F6.24555587158393
sg7
F0.09850013488783338
ssS'steplength'
p11
g2
sS'timestamp'
p12
cdatetime
datetime
p13
(S'\x07\xe1\x0c\x13\x0c*7\x03K\xc0'
p14
tp15
Rp16
sS'speed'
p17
g2
sS'cadence'
p18
g2
s.(dp0
S'blood_pressure'
p1
S'nd'
p2
sS'imu_head'
p3
(dp4
S'yaw'
p5
F18.114865937573114
sS'roll'
p6
F19.243549051195767
sS'pitch'
p7
F16.392220689228203
ssS'heart_rate'
p8
F26.119274075136246
sS'imu_torso'
p9
(dp10
g5
F13.198290426847114
sg6
F16.859225834113246
sg7
F6.266154113481197
ssS'steplength'
p11
g2
sS'timestamp'
p12
cdatetime
datetime
p13
(S'\x07\xe1\x0c\x13\x0c*8\x03O\xa8'
p14
tp15
Rp16
sS'speed'
p17
g2
sS'cadence'
p18
g2
s.(dp0
S'blood_pressure'
p1
S'nd'
p2
sS'imu_head'
p3
(dp4
S'yaw'
p5
F7.7970600534473755
sS'roll'
p6
F4.752354314649558
sS'pitch'
p7
F10.51834723679229
ssS'heart_rate'
p8
F62.79821552051911
sS'imu_torso'
p9
(dp10
g5
F13.771337380578085
sg6
F10.072967324684111
sg7
F6.075654964778261
ssS'steplength'
p11
g2
sS'timestamp'
p12
cdatetime
datetime
p13
(S'\x07\xe1\x0c\x13\x0c*9\x03Wx'
p14
tp15
Rp16
sS'speed'
p17
g2
sS'cadence'
p18
g2
s.(dp0
S'blood_pressure'
p1
S'nd'
p2
sS'imu_head'
p3
(dp4
S'yaw'
p5
F7.912373569583964
sS'roll'
p6
F4.932029494124461
sS'pitch'
p7
F19.07185768082293
ssS'heart_rate'
p8
F89.11767254875012
sS'imu_torso'
p9
(dp10
g5
F17.8569682199278
sg6
F14.812176194850634
sg7
F0.009741298988463765
ssS'steplength'
p11
g2
sS'timestamp'
p12
cdatetime
datetime
p13
(S'\x07\xe1\x0c\x13\x0c*:\x03c0'
p14
tp15
Rp16
sS'speed'
p17
g2
sS'cadence'
p18
g2
s.(dp0
S'blood_pressure'
p1
S'nd'
p2
sS'imu_head'
p3
(dp4
S'yaw'
p5
F9.306944085570896
sS'roll'
p6
F1.8458271821065475
sS'pitch'
p7
F5.381505971341101
ssS'heart_rate'
p8
F52.08509256031696
sS'imu_torso'
p9
(dp10
g5
F6.7953715058719055
sg6
F15.867759212445073
sg7
F7.223776022463532
ssS'steplength'
p11
g2
sS'timestamp'
p12
cdatetime
datetime
p13
(S'\x07\xe1\x0c\x13\x0c*;\x03k\x00'
p14
tp15
Rp16
sS'speed'
p17
g2
sS'cadence'
p18
g2
s.(dp0
S'blood_pressure'
p1
S'nd'
p2
sS'imu_head'
p3
(dp4
S'yaw'
p5
F8.097746359953366
sS'roll'
p6
F6.950520708796857
sS'pitch'
p7
F10.85763478501808
ssS'heart_rate'
p8
F97.79862515284688
sS'imu_torso'
p9
(dp10
g5
F8.930418013289893
sg6
F15.672953825858114
sg7
F17.986787330842997
ssS'steplength'
p11
g2
sS'timestamp'
p12
cdatetime
datetime
p13
(S'\x07\xe1\x0c\x13\x0c+\x00\x03r\xd0'
p14
tp15
Rp16
sS'speed'
p17
g2
sS'cadence'
p18
g2
s.(dp0
S'blood_pressure'
p1
S'nd'
p2
sS'imu_head'
p3
(dp4
S'yaw'
p5
F3.8280381138899933
sS'roll'
p6
F18.98411541876778
sS'pitch'
p7
F14.08322891510429
ssS'heart_rate'
p8
F49.32018663539949
sS'imu_torso'
p9
(dp10
g5
F17.11367030648944
sg6
F2.7778912551425705
sg7
F15.631256440766052
ssS'steplength'
p11
g2
sS'timestamp'
p12
cdatetime
datetime
p13
(S'\x07\xe1\x0c\x13\x0c+\x01\x03~\x88'
p14
tp15
Rp16
sS'speed'
p17
g2
sS'cadence'
p18
g2
s.(dp0
S'blood_pressure'
p1
S'nd'
p2
sS'imu_head'
p3
(dp4
S'yaw'
p5
F12.709800489150691
sS'roll'
p6
F18.02787539457348
sS'pitch'
p7
F2.9947929254170336
ssS'heart_rate'
p8
F33.82662704315161
sS'imu_torso'
p9
(dp10
g5
F2.7790991983088165
sg6
F2.9428824736312653
sg7
F17.502666787266705
ssS'steplength'
p11
g2
sS'timestamp'
p12
cdatetime
datetime
p13
(S'\x07\xe1\x0c\x13\x0c+\x02\x03\x82p'
p14
tp15
Rp16
sS'speed'
p17
g2
sS'cadence'
p18
g2
s.(dp0
S'blood_pressure'
p1
S'nd'
p2
sS'imu_head'
p3
(dp4
S'yaw'
p5
F18.9551588687985
sS'roll'
p6
F7.3579874433539665
sS'pitch'
p7
F4.4745059832761385
ssS'heart_rate'
p8
F37.12054522610184
sS'imu_torso'
p9
(dp10
g5
F18.73482582566996
sg6
F6.336414771234271
sg7
F13.847083983230725
ssS'steplength'
p11
g2
sS'timestamp'
p12
cdatetime
datetime
p13
(S'\x07\xe1\x0c\x13\x0c+\x03\x03\x8a@'
p14
tp15
Rp16
sS'speed'
p17
g2
sS'cadence'
p18
g2
s.(dp0
S'blood_pressure'
p1
S'nd'
p2
sS'imu_head'
p3
(dp4
S'yaw'
p5
F10.204033582295002
sS'roll'
p6
F19.730256265418795
sS'pitch'
p7
F16.966643917933308
ssS'heart_rate'
p8
F52.04453566573463
sS'imu_torso'
p9
(dp10
g5
F9.464532186726057
sg6
F5.6061279199681096
sg7
F1.6474495748412177
ssS'steplength'
p11
g2
sS'timestamp'
p12
cdatetime
datetime
p13
(S'\x07\xe1\x0c\x13\x0c+\x04\x03\x92\x10'
p14
tp15
Rp16
sS'speed'
p17
g2
sS'cadence'
p18
g2
s.(dp0
S'blood_pressure'
p1
S'nd'
p2
sS'imu_head'
p3
(dp4
S'yaw'
p5
F17.23619173781716
sS'roll'
p6
F6.869229467811131
sS'pitch'
p7
F12.193999888956133
ssS'heart_rate'
p8
F9.836103230905124
sS'imu_torso'
p9
(dp10
g5
F15.740050638063439
sg6
F13.849526996562044
sg7
F6.115403581814154
ssS'steplength'
p11
g2
sS'timestamp'
p12
cdatetime
datetime
p13
(S'\x07\xe1\x0c\x13\x0c+\x05\x03\x99\xe0'
p14
tp15
Rp16
sS'speed'
p17
g2
sS'cadence'
p18
g2
s.(dp0
S'blood_pressure'
p1
S'nd'
p2
sS'imu_head'
p3
(dp4
S'yaw'
p5
F19.777567736183865
sS'roll'
p6
F3.356429931001408
sS'pitch'
p7
F0.900921911388175
ssS'heart_rate'
p8
F67.8100116041397
sS'imu_torso'
p9
(dp10
g5
F6.960932769676962
sg6
F4.683207717228544
sg7
F0.45849157873367075
ssS'steplength'
p11
g2
sS'timestamp'
p12
cdatetime
datetime
p13
(S'\x07\xe1\x0c\x13\x0c+\x06\x03\xa1\xb0'
p14
tp15
Rp16
sS'speed'
p17
g2
sS'cadence'
p18
g2
s.(dp0
S'blood_pressure'
p1
S'nd'
p2
sS'imu_head'
p3
(dp4
S'yaw'
p5
F13.540583860063176
sS'roll'
p6
F6.983666880162744
sS'pitch'
p7
F14.600659782313137
ssS'heart_rate'
p8
F45.200475884044145
sS'imu_torso'
p9
(dp10
g5
F3.4465623614258534
sg6
F15.139625199959701
sg7
F19.981265649582664
ssS'steplength'
p11
g2
sS'timestamp'
p12
cdatetime
datetime
p13
(S'\x07\xe1\x0c\x13\x0c+\x07\x03\xa9\x80'
p14
tp15
Rp16
sS'speed'
p17
g2
sS'cadence'
p18
g2
s.(dp0
S'blood_pressure'
p1
S'nd'
p2
sS'imu_head'
p3
(dp4
S'yaw'
p5
F5.375335590974208
sS'roll'
p6
F19.68027584157498
sS'pitch'
p7
F13.474134349212612
ssS'heart_rate'
p8
F22.603798141385823
sS'imu_torso'
p9
(dp10
g5
F12.780387189597365
sg6
F17.690311845612477
sg7
F17.461638186330532
ssS'steplength'
p11
g2
sS'timestamp'
p12
cdatetime
datetime
p13
(S'\x07\xe1\x0c\x13\x0c+\x08\x03\xb1P'
p14
tp15
Rp16
sS'speed'
p17
g2
sS'cadence'
p18
g2
s.(dp0
S'blood_pressure'
p1
S'nd'
p2
sS'imu_head'
p3
(dp4
S'yaw'
p5
F9.436022554685103
sS'roll'
p6
F7.0223769843815065
sS'pitch'
p7
F17.53803920202146
ssS'heart_rate'
p8
F80.18006546999203
sS'imu_torso'
p9
(dp10
g5
F5.8890936324659116
sg6
F13.804634237355772
sg7
F6.441454567132345
ssS'steplength'
p11
g2
sS'timestamp'
p12
cdatetime
datetime
p13
(S'\x07\xe1\x0c\x13\x0c+\t\x03\xb9 '
p14
tp15
Rp16
sS'speed'
p17
g2
sS'cadence'
p18
g2
s.(dp0
S'blood_pressure'
p1
S'nd'
p2
sS'imu_head'
p3
(dp4
S'yaw'
p5
F19.20054328895769
sS'roll'
p6
F1.5253841395313827
sS'pitch'
p7
F13.170364308735515
ssS'heart_rate'
p8
F36.1576530156494
sS'imu_torso'
p9
(dp10
g5
F19.045861998279047
sg6
F10.478152027652303
sg7
F16.791176609958665
ssS'steplength'
p11
g2
sS'timestamp'
p12
cdatetime
datetime
p13
(S'\x07\xe1\x0c\x13\x0c+\n\x03\xc4\xd8'
p14
tp15
Rp16
sS'speed'
p17
g2
sS'cadence'
p18
g2
s.(dp0
S'blood_pressure'
p1
S'nd'
p2
sS'imu_head'
p3
(dp4
S'yaw'
p5
F19.95713403967808
sS'roll'
p6
F12.854298689512262
sS'pitch'
p7
F15.30477680788035
ssS'heart_rate'
p8
F21.932116880913988
sS'imu_torso'
p9
(dp10
g5
F14.8806621870647
sg6
F19.485947358030625
sg7
F3.188443629847708
ssS'steplength'
p11
g2
sS'timestamp'
p12
cdatetime
datetime
p13
(S'\x07\xe1\x0c\x13\x0c+\x0b\x03\xcc\xa8'
p14
tp15
Rp16
sS'speed'
p17
g2
sS'cadence'
p18
g2
s.(dp0
S'blood_pressure'
p1
S'nd'
p2
sS'imu_head'
p3
(dp4
S'yaw'
p5
F2.726045242247137
sS'roll'
p6
F6.781177021374778
sS'pitch'
p7
F0.6935059705554147
ssS'heart_rate'
p8
F82.48366382505937
sS'imu_torso'
p9
(dp10
g5
F10.3488013085349
sg6
F14.66861612458084
sg7
F1.0562692670050366
ssS'steplength'
p11
g2
sS'timestamp'
p12
cdatetime
datetime
p13
(S'\x07\xe1\x0c\x13\x0c+\x0c\x03\xd4x'
p14
tp15
Rp16
sS'speed'
p17
g2
sS'cadence'
p18
g2
s.(dp0
S'blood_pressure'
p1
S'nd'
p2
sS'imu_head'
p3
(dp4
S'yaw'
p5
F16.97918039019141
sS'roll'
p6
F7.797046204311668
sS'pitch'
p7
F14.613580948790732
ssS'heart_rate'
p8
F56.06770397804836
sS'imu_torso'
p9
(dp10
g5
F2.200145543390677
sg6
F11.644231524340476
sg7
F18.161343083008504
ssS'steplength'
p11
g2
sS'timestamp'
p12
cdatetime
datetime
p13
(S'\x07\xe1\x0c\x13\x0c+\r\x03\xdcH'
p14
tp15
Rp16
sS'speed'
p17
g2
sS'cadence'
p18
g2
s.(dp0
S'blood_pressure'
p1
S'nd'
p2
sS'imu_head'
p3
(dp4
S'yaw'
p5
F1.3256420260086288
sS'roll'
p6
F10.72045847743357
sS'pitch'
p7
F12.773714295787288
ssS'heart_rate'
p8
F23.93472328613161
sS'imu_torso'
p9
(dp10
g5
F8.780599515225735
sg6
F9.52503436617246
sg7
F5.757512572429453
ssS'steplength'
p11
g2
sS'timestamp'
p12
cdatetime
datetime
p13
(S'\x07\xe1\x0c\x13\x0c+\x0e\x03\xe4\x18'
p14
tp15
Rp16
sS'speed'
p17
g2
sS'cadence'
p18
g2
s.(dp0
S'blood_pressure'
p1
S'nd'
p2
sS'imu_head'
p3
(dp4
S'yaw'
p5
F8.423334783957845
sS'roll'
p6
F3.9445600714453444
sS'pitch'
p7
F12.811852260812554
ssS'heart_rate'
p8
F76.26796963698723
sS'imu_torso'
p9
(dp10
g5
F0.16595345091182878
sg6
F16.199982705890474
sg7
F17.811611195853864
ssS'steplength'
p11
g2
sS'timestamp'
p12
cdatetime
datetime
p13
(S'\x07\xe1\x0c\x13\x0c+\x0f\x03\xef\xd0'
p14
tp15
Rp16
sS'speed'
p17
g2
sS'cadence'
p18
g2
s.(dp0
S'blood_pressure'
p1
S'nd'
p2
sS'imu_head'
p3
(dp4
S'yaw'
p5
F17.816973482905873
sS'roll'
p6
F0.8388480692839484
sS'pitch'
p7
F5.310492251654784
ssS'heart_rate'
p8
F59.117347807677376
sS'imu_torso'
p9
(dp10
g5
F8.820859483053873
sg6
F18.15560438174116
sg7
F11.737093245428492
ssS'steplength'
p11
g2
sS'timestamp'
p12
cdatetime
datetime
p13
(S'\x07\xe1\x0c\x13\x0c+\x10\x03\xfb\x88'
p14
tp15
Rp16
sS'speed'
p17
g2
sS'cadence'
p18
g2
s.(dp0
S'blood_pressure'
p1
S'nd'
p2
sS'imu_head'
p3
(dp4
S'yaw'
p5
F10.480352258049228
sS'roll'
p6
F11.44470745397939
sS'pitch'
p7
F6.251572483377668
ssS'heart_rate'
p8
F80.42830948794044
sS'imu_torso'
p9
(dp10
g5
F16.458675294869025
sg6
F17.332686218928497
sg7
F17.33169144226847
ssS'steplength'
p11
g2
sS'timestamp'
p12
cdatetime
datetime
p13
(S'\x07\xe1\x0c\x13\x0c+\x11\x03\xffp'
p14
tp15
Rp16
sS'speed'
p17
g2
sS'cadence'
p18
g2
s.(dp0
S'blood_pressure'
p1
S'nd'
p2
sS'imu_head'
p3
(dp4
S'yaw'
p5
F2.813786730179728
sS'roll'
p6
F8.604142802763903
sS'pitch'
p7
F5.43491207521506
ssS'heart_rate'
p8
F15.248654328920974
sS'imu_torso'
p9
(dp10
g5
F6.705063490541465
sg6
F18.234083690215236
sg7
F17.796062894561217
ssS'steplength'
p11
g2
sS'timestamp'
p12
cdatetime
datetime
p13
(S'\x07\xe1\x0c\x13\x0c+\x12\x04\x0b('
p14
tp15
Rp16
sS'speed'
p17
g2
sS'cadence'
p18
g2
s.(dp0
S'blood_pressure'
p1
S'nd'
p2
sS'imu_head'
p3
(dp4
S'yaw'
p5
F19.904877341699617
sS'roll'
p6
F17.076999364999143
sS'pitch'
p7
F1.5792600570241944
ssS'heart_rate'
p8
F86.79902988471622
sS'imu_torso'
p9
(dp10
g5
F19.010726770299552
sg6
F0.8057205098105702
sg7
F1.568146670563011
ssS'steplength'
p11
g2
sS'timestamp'
p12
cdatetime
datetime
p13
(S'\x07\xe1\x0c\x13\x0c+\x13\x04\x0f\x10'
p14
tp15
Rp16
sS'speed'
p17
g2
sS'cadence'
p18
g2
s.(dp0
S'blood_pressure'
p1
S'nd'
p2
sS'imu_head'
p3
(dp4
S'yaw'
p5
F9.35189161829014
sS'roll'
p6
F19.992812461213898
sS'pitch'
p7
F16.045184997827477
ssS'heart_rate'
p8
F0.7541120398571355
sS'imu_torso'
p9
(dp10
g5
F14.19069417947724
sg6
F5.68440925472673
sg7
F2.8907922536705777
ssS'steplength'
p11
g2
sS'timestamp'
p12
cdatetime
datetime
p13
(S'\x07\xe1\x0c\x13\x0c+\x14\x04\x1a\xc8'
p14
tp15
Rp16
sS'speed'
p17
g2
sS'cadence'
p18
g2
s.(dp0
S'blood_pressure'
p1
S'nd'
p2
sS'imu_head'
p3
(dp4
S'yaw'
p5
F6.632739230796214
sS'roll'
p6
F19.424301605990927
sS'pitch'
p7
F15.124845275239359
ssS'heart_rate'
p8
F9.596898225045269
sS'imu_torso'
p9
(dp10
g5
F11.508660280767218
sg6
F3.165372172324503
sg7
F6.7117431264212986
ssS'steplength'
p11
g2
sS'timestamp'
p12
cdatetime
datetime
p13
(S'\x07\xe1\x0c\x13\x0c+\x15\x04&\x80'
p14
tp15
Rp16
sS'speed'
p17
g2
sS'cadence'
p18
g2
s.(dp0
S'blood_pressure'
p1
S'nd'
p2
sS'imu_head'
p3
(dp4
S'yaw'
p5
F15.077969133554527
sS'roll'
p6
F4.762833696564693
sS'pitch'
p7
F18.87495829739478
ssS'heart_rate'
p8
F48.7512876339543
sS'imu_torso'
p9
(dp10
g5
F15.029168695010489
sg6
F8.27622394041141
sg7
F19.095960117967216
ssS'steplength'
p11
g2
sS'timestamp'
p12
cdatetime
datetime
p13
(S'\x07\xe1\x0c\x13\x0c+\x16\x0428'
p14
tp15
Rp16
sS'speed'
p17
g2
sS'cadence'
p18
g2
s.(dp0
S'blood_pressure'
p1
S'nd'
p2
sS'imu_head'
p3
(dp4
S'yaw'
p5
F18.7342367762561
sS'roll'
p6
F9.39128436230707
sS'pitch'
p7
F9.895300071144833
ssS'heart_rate'
p8
F5.823609967809018
sS'imu_torso'
p9
(dp10
g5
F3.488645169849851
sg6
F9.920502883421548
sg7
F3.6813899801188166
ssS'steplength'
p11
g2
sS'timestamp'
p12
cdatetime
datetime
p13
(S'\x07\xe1\x0c\x13\x0c+\x17\x04:\x08'
p14
tp15
Rp16
sS'speed'
p17
g2
sS'cadence'
p18
g2
s.(dp0
S'blood_pressure'
p1
S'nd'
p2
sS'imu_head'
p3
(dp4
S'yaw'
p5
F2.365845187540161
sS'roll'
p6
F11.387645648865107
sS'pitch'
p7
F0.35540384793293134
ssS'heart_rate'
p8
F91.8456880365301
sS'imu_torso'
p9
(dp10
g5
F8.046105116854518
sg6
F14.921483573612264
sg7
F0.6218245152434654
ssS'steplength'
p11
g2
sS'timestamp'
p12
cdatetime
datetime
p13
(S'\x07\xe1\x0c\x13\x0c+\x18\x04A\xd8'
p14
tp15
Rp16
sS'speed'
p17
g2
sS'cadence'
p18
g2
s.(dp0
S'blood_pressure'
p1
S'nd'
p2
sS'imu_head'
p3
(dp4
S'yaw'
p5
F3.6316682254511634
sS'roll'
p6
F12.849371031255883
sS'pitch'
p7
F11.422654528235485
ssS'heart_rate'
p8
F8.92890327223993
sS'imu_torso'
p9
(dp10
g5
F6.0643881275118865
sg6
F12.088142406959218
sg7
F18.585155889274773
ssS'steplength'
p11
g2
sS'timestamp'
p12
cdatetime
datetime
p13
(S'\x07\xe1\x0c\x13\x0c+\x19\x04I\xa8'
p14
tp15
Rp16
sS'speed'
p17
g2
sS'cadence'
p18
g2
s.(dp0
S'blood_pressure'
p1
S'nd'
p2
sS'imu_head'
p3
(dp4
S'yaw'
p5
F19.96518653542006
sS'roll'
p6
F14.253301100763643
sS'pitch'
p7
F16.974048489390448
ssS'heart_rate'
p8
F53.87698970282172
sS'imu_torso'
p9
(dp10
g5
F13.208802351834743
sg6
F12.075889832306537
sg7
F2.919111130588896
ssS'steplength'
p11
g2
sS'timestamp'
p12
cdatetime
datetime
p13
(S'\x07\xe1\x0c\x13\x0c+\x1a\x04U`'
p14
tp15
Rp16
sS'speed'
p17
g2
sS'cadence'
p18
g2
s.(dp0
S'blood_pressure'
p1
S'nd'
p2
sS'imu_head'
p3
(dp4
S'yaw'
p5
F9.384540374285507
sS'roll'
p6
F2.55982358404208
sS'pitch'
p7
F7.408766341752642
ssS'heart_rate'
p8
F26.178482814242297
sS'imu_torso'
p9
(dp10
g5
F13.861620858031714
sg6
F12.953436112324596
sg7
F1.5546358930697535
ssS'steplength'
p11
g2
sS'timestamp'
p12
cdatetime
datetime
p13
(S'\x07\xe1\x0c\x13\x0c+\x1b\x04]0'
p14
tp15
Rp16
sS'speed'
p17
g2
sS'cadence'
p18
g2
s.(dp0
S'blood_pressure'
p1
S'nd'
p2
sS'imu_head'
p3
(dp4
S'yaw'
p5
F7.096851763946928
sS'roll'
p6
F4.521797141164521
sS'pitch'
p7
F4.162633773078078
ssS'heart_rate'
p8
F95.3091270447152
sS'imu_torso'
p9
(dp10
g5
F19.941002001085224
sg6
F11.419138435443344
sg7
F18.902939369559757
ssS'steplength'
p11
g2
sS'timestamp'
p12
cdatetime
datetime
p13
(S'\x07\xe1\x0c\x13\x0c+\x1c\x04e\x00'
p14
tp15
Rp16
sS'speed'
p17
g2
sS'cadence'
p18
g2
s.(dp0
S'blood_pressure'
p1
S'nd'
p2
sS'imu_head'
p3
(dp4
S'yaw'
p5
F7.02697928514572
sS'roll'
p6
F14.850193345101466
sS'pitch'
p7
F18.655310249805435
ssS'heart_rate'
p8
F5.056634313574193
sS'imu_torso'
p9
(dp10
g5
F1.5018742976771526
sg6
F3.893584179691063
sg7
F17.267404969467737
ssS'steplength'
p11
g2
sS'timestamp'
p12
cdatetime
datetime
p13
(S'\x07\xe1\x0c\x13\x0c+\x1d\x04l\xd0'
p14
tp15
Rp16
sS'speed'
p17
g2
sS'cadence'
p18
g2
s.(dp0
S'blood_pressure'
p1
S'nd'
p2
sS'imu_head'
p3
(dp4
S'yaw'
p5
F18.122823747767377
sS'roll'
p6
F12.295822573989533
sS'pitch'
p7
F19.541025650047924
ssS'heart_rate'
p8
F80.98608968107943
sS'imu_torso'
p9
(dp10
g5
F4.920436196165023
sg6
F5.890346794432972
sg7
F17.984451405526155
ssS'steplength'
p11
g2
sS'timestamp'
p12
cdatetime
datetime
p13
(S'\x07\xe1\x0c\x13\x0c+\x1e\x04t\xa0'
p14
tp15
Rp16
sS'speed'
p17
g2
sS'cadence'
p18
g2
s.(dp0
S'blood_pressure'
p1
S'nd'
p2
sS'imu_head'
p3
(dp4
S'yaw'
p5
F0.19887475622396344
sS'roll'
p6
F8.181130004755763
sS'pitch'
p7
F16.566801744148776
ssS'heart_rate'
p8
F13.924958757863958
sS'imu_torso'
p9
(dp10
g5
F8.855989127798603
sg6
F19.7884195646981
sg7
F0.5505823819162337
ssS'steplength'
p11
g2
sS'timestamp'
p12
cdatetime
datetime
p13
(S'\x07\xe1\x0c\x13\x0c+\x1f\x04|p'
p14
tp15
Rp16
sS'speed'
p17
g2
sS'cadence'
p18
g2
s.(dp0
S'blood_pressure'
p1
S'nd'
p2
sS'imu_head'
p3
(dp4
S'yaw'
p5
F14.579216455201996
sS'roll'
p6
F2.754452719874585
sS'pitch'
p7
F15.694078195128714
ssS'heart_rate'
p8
F64.95924444723917
sS'imu_torso'
p9
(dp10
g5
F15.30896571643372
sg6
F17.529124076222804
sg7
F11.936007396252231
ssS'steplength'
p11
g2
sS'timestamp'
p12
cdatetime
datetime
p13
(S'\x07\xe1\x0c\x13\x0c+ \x04\x84@'
p14
tp15
Rp16
sS'speed'
p17
g2
sS'cadence'
p18
g2
s.(dp0
S'blood_pressure'
p1
S'nd'
p2
sS'imu_head'
p3
(dp4
S'yaw'
p5
F1.6900585352118558
sS'roll'
p6
F19.08085983382314
sS'pitch'
p7
F0.85429969181128
ssS'heart_rate'
p8
F84.92348772148132
sS'imu_torso'
p9
(dp10
g5
F12.877079694469353
sg6
F15.468709418662648
sg7
F18.11449953789433
ssS'steplength'
p11
g2
sS'timestamp'
p12
cdatetime
datetime
p13
(S'\x07\xe1\x0c\x13\x0c+!\x04\x88('
p14
tp15
Rp16
sS'speed'
p17
g2
sS'cadence'
p18
g2
s.(dp0
S'blood_pressure'
p1
S'nd'
p2
sS'imu_head'
p3
(dp4
S'yaw'
p5
F14.318889109154117
sS'roll'
p6
F3.3463786079780955
sS'pitch'
p7
F8.935352391082565
ssS'heart_rate'
p8
F16.936889439095324
sS'imu_torso'
p9
(dp10
g5
F4.52446427876632
sg6
F9.793671693922448
sg7
F11.089409920628011
ssS'steplength'
p11
g2
sS'timestamp'
p12
cdatetime
datetime
p13
(S'\x07\xe1\x0c\x13\x0c+"\x04\x8f\xf8'
p14
tp15
Rp16
sS'speed'
p17
g2
sS'cadence'
p18
g2
s.(dp0
S'blood_pressure'
p1
S'nd'
p2
sS'imu_head'
p3
(dp4
S'yaw'
p5
F17.68997285191586
sS'roll'
p6
F12.394258197220395
sS'pitch'
p7
F13.319304955162178
ssS'heart_rate'
p8
F48.59334153678174
sS'imu_torso'
p9
(dp10
g5
F8.866811083412827
sg6
F6.176687687672365
sg7
F9.375219423338146
ssS'steplength'
p11
g2
sS'timestamp'
p12
cdatetime
datetime
p13
(S'\x07\xe1\x0c\x13\x0c+#\x04\x9f\x98'
p14
tp15
Rp16
sS'speed'
p17
g2
sS'cadence'
p18
g2
s.(dp0
S'blood_pressure'
p1
S'nd'
p2
sS'imu_head'
p3
(dp4
S'yaw'
p5
F4.6742460646241035
sS'roll'
p6
F13.76843984917343
sS'pitch'
p7
F6.905537899789627
ssS'heart_rate'
p8
F21.217039663367522
sS'imu_torso'
p9
(dp10
g5
F6.9058092019303485
sg6
F15.469534756972092
sg7
F13.914375505590083
ssS'steplength'
p11
g2
sS'timestamp'
p12
cdatetime
datetime
p13
(S'\x07\xe1\x0c\x13\x0c+$\x04\xa3\x80'
p14
tp15
Rp16
sS'speed'
p17
g2
sS'cadence'
p18
g2
s.(dp0
S'blood_pressure'
p1
S'nd'
p2
sS'imu_head'
p3
(dp4
S'yaw'
p5
F17.466831732799907
sS'roll'
p6
F3.595052192880701
sS'pitch'
p7
F19.631346783923085
ssS'heart_rate'
p8
F95.60831786839621
sS'imu_torso'
p9
(dp10
g5
F13.86004031518465
sg6
F11.136440223845003
sg7
F0.37675647719541017
ssS'steplength'
p11
g2
sS'timestamp'
p12
cdatetime
datetime
p13
(S'\x07\xe1\x0c\x13\x0c+%\x04\xa7h'
p14
tp15
Rp16
sS'speed'
p17
g2
sS'cadence'
p18
g2
s.(dp0
S'blood_pressure'
p1
S'nd'
p2
sS'imu_head'
p3
(dp4
S'yaw'
p5
F19.285494865001166
sS'roll'
p6
F8.855064540789915
sS'pitch'
p7
F3.2510254363044133
ssS'heart_rate'
p8
F34.26561770414816
sS'imu_torso'
p9
(dp10
g5
F5.5781124726986615
sg6
F15.54938882035666
sg7
F8.126243778188682
ssS'steplength'
p11
g2
sS'timestamp'
p12
cdatetime
datetime
p13
(S'\x07\xe1\x0c\x13\x0c+&\x04\xaf8'
p14
tp15
Rp16
sS'speed'
p17
g2
sS'cadence'
p18
g2
s.(dp0
S'blood_pressure'
p1
S'nd'
p2
sS'imu_head'
p3
(dp4
S'yaw'
p5
F12.913112542022983
sS'roll'
p6
F10.141953610667274
sS'pitch'
p7
F1.960393305774084
ssS'heart_rate'
p8
F10.435323469488178
sS'imu_torso'
p9
(dp10
g5
F9.506798707792722
sg6
F14.972543525090076
sg7
F11.098843655325952
ssS'steplength'
p11
g2
sS'timestamp'
p12
cdatetime
datetime
p13
(S"\x07\xe1\x0c\x13\x0c+'\x04\xba\xf0"
p14
tp15
Rp16
sS'speed'
p17
g2
sS'cadence'
p18
g2
s.(dp0
S'blood_pressure'
p1
S'nd'
p2
sS'imu_head'
p3
(dp4
S'yaw'
p5
F3.89134736686811
sS'roll'
p6
F6.657281968360149
sS'pitch'
p7
F18.32775623210222
ssS'heart_rate'
p8
F2.860997479077898
sS'imu_torso'
p9
(dp10
g5
F10.440047206093437
sg6
F11.269906404509948
sg7
F8.865013611657469
ssS'steplength'
p11
g2
sS'timestamp'
p12
cdatetime
datetime
p13
(S'\x07\xe1\x0c\x13\x0c+(\x04\xc6\xa8'
p14
tp15
Rp16
sS'speed'
p17
g2
sS'cadence'
p18
g2
s.(dp0
S'blood_pressure'
p1
S'nd'
p2
sS'imu_head'
p3
(dp4
S'yaw'
p5
F11.34561918962075
sS'roll'
p6
F7.823785103688206
sS'pitch'
p7
F11.93823642988616
ssS'heart_rate'
p8
F76.94447633578605
sS'imu_torso'
p9
(dp10
g5
F7.277384702898582
sg6
F5.818041963826797
sg7
F11.785428179164967
ssS'steplength'
p11
g2
sS'timestamp'
p12
cdatetime
datetime
p13
(S'\x07\xe1\x0c\x13\x0c+)\x04\xca\x90'
p14
tp15
Rp16
sS'speed'
p17
g2
sS'cadence'
p18
g2
s.(dp0
S'blood_pressure'
p1
S'nd'
p2
sS'imu_head'
p3
(dp4
S'yaw'
p5
F5.884462815938902
sS'roll'
p6
F5.352213082715331
sS'pitch'
p7
F3.6721507033391454
ssS'heart_rate'
p8
F81.2200826402557
sS'imu_torso'
p9
(dp10
g5
F7.405290317726849
sg6
F1.6807169353078444
sg7
F9.352891786759246
ssS'steplength'
p11
g2
sS'timestamp'
p12
cdatetime
datetime
p13
(S'\x07\xe1\x0c\x13\x0c+*\x04\xd2`'
p14
tp15
Rp16
sS'speed'
p17
g2
sS'cadence'
p18
g2
s.(dp0
S'blood_pressure'
p1
S'nd'
p2
sS'imu_head'
p3
(dp4
S'yaw'
p5
F13.450659352542822
sS'roll'
p6
F3.491410239876993
sS'pitch'
p7
F11.58004276432184
ssS'heart_rate'
p8
F11.416674479650668
sS'imu_torso'
p9
(dp10
g5
F8.126843372692782
sg6
F15.99533859807381
sg7
F6.156246092768278
ssS'steplength'
p11
g2
sS'timestamp'
p12
cdatetime
datetime
p13
(S'\x07\xe1\x0c\x13\x0c++\x04\xde\x18'
p14
tp15
Rp16
sS'speed'
p17
g2
sS'cadence'
p18
g2
s.(dp0
S'blood_pressure'
p1
S'nd'
p2
sS'imu_head'
p3
(dp4
S'yaw'
p5
F16.001861105083098
sS'roll'
p6
F8.628108541251109
sS'pitch'
p7
F19.941048984464572
ssS'heart_rate'
p8
F28.3158810405446
sS'imu_torso'
p9
(dp10
g5
F4.777696876725932
sg6
F10.434082117729009
sg7
F15.631000530394466
ssS'steplength'
p11
g2
sS'timestamp'
p12
cdatetime
datetime
p13
(S'\x07\xe1\x0c\x13\x0c+,\x04\xe5\xe8'
p14
tp15
Rp16
sS'speed'
p17
g2
sS'cadence'
p18
g2
s.(dp0
S'blood_pressure'
p1
S'nd'
p2
sS'imu_head'
p3
(dp4
S'yaw'
p5
F0.07022375204778442
sS'roll'
p6
F12.216817597232335
sS'pitch'
p7
F6.935080689040037
ssS'heart_rate'
p8
F59.6989042396218
sS'imu_torso'
p9
(dp10
g5
F1.659916803184005
sg6
F5.076683482523969
sg7
F15.12248932998977
ssS'steplength'
p11
g2
sS'timestamp'
p12
cdatetime
datetime
p13
(S'\x07\xe1\x0c\x13\x0c+-\x04\xed\xb8'
p14
tp15
Rp16
sS'speed'
p17
g2
sS'cadence'
p18
g2
s.(dp0
S'blood_pressure'
p1
S'nd'
p2
sS'imu_head'
p3
(dp4
S'yaw'
p5
F7.4901669587407715
sS'roll'
p6
F12.444510968175722
sS'pitch'
p7
F0.5308307058052986
ssS'heart_rate'
p8
F36.323339173303694
sS'imu_torso'
p9
(dp10
g5
F5.845034550466002
sg6
F5.4710973846766375
sg7
F9.548239731323736
ssS'steplength'
p11
g2
sS'timestamp'
p12
cdatetime
datetime
p13
(S'\x07\xe1\x0c\x13\x0c+.\x04\xf5\x88'
p14
tp15
Rp16
sS'speed'
p17
g2
sS'cadence'
p18
g2
s.(dp0
S'blood_pressure'
p1
S'nd'
p2
sS'imu_head'
p3
(dp4
S'yaw'
p5
F8.326687924104572
sS'roll'
p6
F4.2576572491100695
sS'pitch'
p7
F3.1017872904638844
ssS'heart_rate'
p8
F51.7129035812337
sS'imu_torso'
p9
(dp10
g5
F2.4914453452486574
sg6
F19.46157888672635
sg7
F11.358582155848751
ssS'steplength'
p11
g2
sS'timestamp'
p12
cdatetime
datetime
p13
(S'\x07\xe1\x0c\x13\x0c+;\x02Q\xc0'
p14
tp15
Rp16
sS'speed'
p17
g2
sS'cadence'
p18
g2
s.(dp0
S'blood_pressure'
p1
S'nd'
p2
sS'imu_head'
p3
(dp4
S'yaw'
p5
F8.326687924104572
sS'roll'
p6
F4.2576572491100695
sS'pitch'
p7
F3.1017872904638844
ssS'heart_rate'
p8
F51.7129035812337
sS'imu_torso'
p9
(dp10
g5
F2.4914453452486574
sg6
F19.46157888672635
sg7
F11.358582155848751
ssS'steplength'
p11
g2
sS'timestamp'
p12
cdatetime
datetime
p13
(S'\x07\xe1\x0c\x13\x0c+;\x02Q\xc0'
p14
tp15
Rp16
sS'speed'
p17
g2
sS'cadence'
p18
g2
s.(dp0
S'blood_pressure'
p1
S'nd'
p2
sS'imu_head'
p3
(dp4
S'yaw'
p5
F8.326687924104572
sS'roll'
p6
F4.2576572491100695
sS'pitch'
p7
F3.1017872904638844
ssS'heart_rate'
p8
F51.7129035812337
sS'imu_torso'
p9
(dp10
g5
F2.4914453452486574
sg6
F19.46157888672635
sg7
F11.358582155848751
ssS'steplength'
p11
g2
sS'timestamp'
p12
cdatetime
datetime
p13
(S'\x07\xe1\x0c\x13\x0c+;\x02Q\xc0'
p14
tp15
Rp16
sS'speed'
p17
g2
sS'cadence'
p18
g2
s.(dp0
S'blood_pressure'
p1
S'nd'
p2
sS'imu_head'
p3
(dp4
S'yaw'
p5
F8.326687924104572
sS'roll'
p6
F4.2576572491100695
sS'pitch'
p7
F3.1017872904638844
ssS'heart_rate'
p8
F51.7129035812337
sS'imu_torso'
p9
(dp10
g5
F2.4914453452486574
sg6
F19.46157888672635
sg7
F11.358582155848751
ssS'steplength'
p11
g2
sS'timestamp'
p12
cdatetime
datetime
p13
(S'\x07\xe1\x0c\x13\x0c+;\x02Q\xc0'
p14
tp15
Rp16
sS'speed'
p17
g2
sS'cadence'
p18
g2
s.(dp0
S'blood_pressure'
p1
S'nd'
p2
sS'imu_head'
p3
(dp4
S'yaw'
p5
F8.326687924104572
sS'roll'
p6
F4.2576572491100695
sS'pitch'
p7
F3.1017872904638844
ssS'heart_rate'
p8
F51.7129035812337
sS'imu_torso'
p9
(dp10
g5
F2.4914453452486574
sg6
F19.46157888672635
sg7
F11.358582155848751
ssS'steplength'
p11
g2
sS'timestamp'
p12
cdatetime
datetime
p13
(S'\x07\xe1\x0c\x13\x0c+;\x02Q\xc0'
p14
tp15
Rp16
sS'speed'
p17
g2
sS'cadence'
p18
g2
s.(dp0
S'blood_pressure'
p1
S'nd'
p2
sS'imu_head'
p3
(dp4
S'yaw'
p5
F8.326687924104572
sS'roll'
p6
F4.2576572491100695
sS'pitch'
p7
F3.1017872904638844
ssS'heart_rate'
p8
F51.7129035812337
sS'imu_torso'
p9
(dp10
g5
F2.4914453452486574
sg6
F19.46157888672635
sg7
F11.358582155848751
ssS'steplength'
p11
g2
sS'timestamp'
p12
cdatetime
datetime
p13
(S'\x07\xe1\x0c\x13\x0c+;\x02Q\xc0'
p14
tp15
Rp16
sS'speed'
p17
g2
sS'cadence'
p18
g2
s.(dp0
S'blood_pressure'
p1
S'nd'
p2
sS'imu_head'
p3
(dp4
S'yaw'
p5
F8.326687924104572
sS'roll'
p6
F4.2576572491100695
sS'pitch'
p7
F3.1017872904638844
ssS'heart_rate'
p8
F51.7129035812337
sS'imu_torso'
p9
(dp10
g5
F2.4914453452486574
sg6
F19.46157888672635
sg7
F11.358582155848751
ssS'steplength'
p11
g2
sS'timestamp'
p12
cdatetime
datetime
p13
(S'\x07\xe1\x0c\x13\x0c+;\x02U\xa8'
p14
tp15
Rp16
sS'speed'
p17
g2
sS'cadence'
p18
g2
s.(dp0
S'blood_pressure'
p1
S'nd'
p2
sS'imu_head'
p3
(dp4
S'yaw'
p5
F8.326687924104572
sS'roll'
p6
F4.2576572491100695
sS'pitch'
p7
F3.1017872904638844
ssS'heart_rate'
p8
F51.7129035812337
sS'imu_torso'
p9
(dp10
g5
F2.4914453452486574
sg6
F19.46157888672635
sg7
F11.358582155848751
ssS'steplength'
p11
g2
sS'timestamp'
p12
cdatetime
datetime
p13
(S'\x07\xe1\x0c\x13\x0c+;\x02U\xa8'
p14
tp15
Rp16
sS'speed'
p17
g2
sS'cadence'
p18
g2
s.(dp0
S'blood_pressure'
p1
S'nd'
p2
sS'imu_head'
p3
(dp4
S'yaw'
p5
F8.326687924104572
sS'roll'
p6
F4.2576572491100695
sS'pitch'
p7
F3.1017872904638844
ssS'heart_rate'
p8
F51.7129035812337
sS'imu_torso'
p9
(dp10
g5
F2.4914453452486574
sg6
F19.46157888672635
sg7
F11.358582155848751
ssS'steplength'
p11
g2
sS'timestamp'
p12
cdatetime
datetime
p13
(S'\x07\xe1\x0c\x13\x0c+;\x02U\xa8'
p14
tp15
Rp16
sS'speed'
p17
g2
sS'cadence'
p18
g2
s.(dp0
S'blood_pressure'
p1
S'nd'
p2
sS'imu_head'
p3
(dp4
S'yaw'
p5
F8.326687924104572
sS'roll'
p6
F4.2576572491100695
sS'pitch'
p7
F3.1017872904638844
ssS'heart_rate'
p8
F51.7129035812337
sS'imu_torso'
p9
(dp10
g5
F2.4914453452486574
sg6
F19.46157888672635
sg7
F11.358582155848751
ssS'steplength'
p11
g2
sS'timestamp'
p12
cdatetime
datetime
p13
(S'\x07\xe1\x0c\x13\x0c+;\x02U\xa8'
p14
tp15
Rp16
sS'speed'
p17
g2
sS'cadence'
p18
g2
s.(dp0
S'blood_pressure'
p1
S'nd'
p2
sS'imu_head'
p3
(dp4
S'yaw'
p5
F8.326687924104572
sS'roll'
p6
F4.2576572491100695
sS'pitch'
p7
F3.1017872904638844
ssS'heart_rate'
p8
F51.7129035812337
sS'imu_torso'
p9
(dp10
g5
F2.4914453452486574
sg6
F19.46157888672635
sg7
F11.358582155848751
ssS'steplength'
p11
g2
sS'timestamp'
p12
cdatetime
datetime
p13
(S'\x07\xe1\x0c\x13\x0c+;\x02U\xa8'
p14
tp15
Rp16
sS'speed'
p17
g2
sS'cadence'
p18
g2
s.(dp0
S'blood_pressure'
p1
S'nd'
p2
sS'imu_head'
p3
(dp4
S'yaw'
p5
F8.326687924104572
sS'roll'
p6
F4.2576572491100695
sS'pitch'
p7
F3.1017872904638844
ssS'heart_rate'
p8
F51.7129035812337
sS'imu_torso'
p9
(dp10
g5
F2.4914453452486574
sg6
F19.46157888672635
sg7
F11.358582155848751
ssS'steplength'
p11
g2
sS'timestamp'
p12
cdatetime
datetime
p13
(S'\x07\xe1\x0c\x13\x0c+;\x02U\xa8'
p14
tp15
Rp16
sS'speed'
p17
g2
sS'cadence'
p18
g2
s.