(dp0
S'blood_pressure'
p1
S'nd'
p2
sS'imu_head'
p3
(dp4
S'yaw'
p5
F10.56031389458052
sS'roll'
p6
F8.291651575323293
sS'pitch'
p7
F3.63757874728474
ssS'heart_rate'
p8
F14.787584705829682
sS'imu_torso'
p9
(dp10
g5
F13.52347963674697
sg6
F12.30801937244155
sg7
F0.5345699284559791
ssS'steplength'
p11
g2
sS'timestamp'
p12
cdatetime
datetime
p13
(S'\x07\xe1\x0c\x13\x0e\x05\x10\x06\xce0'
p14
tp15
Rp16
sS'speed'
p17
g2
sS'cadence'
p18
g2
s.(dp0
S'blood_pressure'
p1
S'nd'
p2
sS'imu_head'
p3
(dp4
S'yaw'
p5
F1.5713069978671768
sS'roll'
p6
F0.3336586953721876
sS'pitch'
p7
F1.2151386223951177
ssS'heart_rate'
p8
F57.203671533397014
sS'imu_torso'
p9
(dp10
g5
F1.8616446290382793
sg6
F11.059596509641958
sg7
F19.89833440891861
ssS'steplength'
p11
g2
sS'timestamp'
p12
cdatetime
datetime
p13
(S'\x07\xe1\x0c\x13\x0e\x05\x11\x06\xd6\x00'
p14
tp15
Rp16
sS'speed'
p17
g2
sS'cadence'
p18
g2
s.(dp0
S'blood_pressure'
p1
S'nd'
p2
sS'imu_head'
p3
(dp4
S'yaw'
p5
F10.75335756933507
sS'roll'
p6
F3.3923679830066678
sS'pitch'
p7
F2.7241709878544174
ssS'heart_rate'
p8
F42.05176992752373
sS'imu_torso'
p9
(dp10
g5
F18.239650564425357
sg6
F13.857021902330906
sg7
F14.278122851841683
ssS'steplength'
p11
g2
sS'timestamp'
p12
cdatetime
datetime
p13
(S'\x07\xe1\x0c\x13\x0e\x05\x12\x06\xd9\xe8'
p14
tp15
Rp16
sS'speed'
p17
g2
sS'cadence'
p18
g2
s.(dp0
S'blood_pressure'
p1
S'nd'
p2
sS'imu_head'
p3
(dp4
S'yaw'
p5
F14.26248152191539
sS'roll'
p6
F11.664979978022059
sS'pitch'
p7
F18.644616593773918
ssS'heart_rate'
p8
F36.785380724970565
sS'imu_torso'
p9
(dp10
g5
F8.61071306838486
sg6
F2.8075702583613804
sg7
F13.58059553078468
ssS'steplength'
p11
g2
sS'timestamp'
p12
cdatetime
datetime
p13
(S'\x07\xe1\x0c\x13\x0e\x05\x13\x06\xe1\xb8'
p14
tp15
Rp16
sS'speed'
p17
g2
sS'cadence'
p18
g2
s.(dp0
S'blood_pressure'
p1
S'nd'
p2
sS'imu_head'
p3
(dp4
S'yaw'
p5
F12.059808045197677
sS'roll'
p6
F17.20762472650655
sS'pitch'
p7
F13.560769003014988
ssS'heart_rate'
p8
F94.42621483645117
sS'imu_torso'
p9
(dp10
g5
F7.102357976431026
sg6
F15.331070803261792
sg7
F8.771489732395576
ssS'steplength'
p11
g2
sS'timestamp'
p12
cdatetime
datetime
p13
(S'\x07\xe1\x0c\x13\x0e\x05\x14\x06\xedp'
p14
tp15
Rp16
sS'speed'
p17
g2
sS'cadence'
p18
g2
s.(dp0
S'blood_pressure'
p1
S'nd'
p2
sS'imu_head'
p3
(dp4
S'yaw'
p5
F0.8749915818331044
sS'roll'
p6
F14.60407002235329
sS'pitch'
p7
F19.162181154179272
ssS'heart_rate'
p8
F98.52931165223058
sS'imu_torso'
p9
(dp10
g5
F5.2957501283630215
sg6
F19.862632172848894
sg7
F9.181177808578607
ssS'steplength'
p11
g2
sS'timestamp'
p12
cdatetime
datetime
p13
(S'\x07\xe1\x0c\x13\x0e\x05\x15\x06\xf1X'
p14
tp15
Rp16
sS'speed'
p17
g2
sS'cadence'
p18
g2
s.(dp0
S'blood_pressure'
p1
S'nd'
p2
sS'imu_head'
p3
(dp4
S'yaw'
p5
F19.437270817868455
sS'roll'
p6
F17.47478568432658
sS'pitch'
p7
F5.132129330854238
ssS'heart_rate'
p8
F46.66411901383519
sS'imu_torso'
p9
(dp10
g5
F2.7665964854373426
sg6
F16.55145723988133
sg7
F4.63726635186238
ssS'steplength'
p11
g2
sS'timestamp'
p12
cdatetime
datetime
p13
(S'\x07\xe1\x0c\x13\x0e\x05\x16\x06\xf9('
p14
tp15
Rp16
sS'speed'
p17
g2
sS'cadence'
p18
g2
s.(dp0
S'blood_pressure'
p1
S'nd'
p2
sS'imu_head'
p3
(dp4
S'yaw'
p5
F10.046547601616048
sS'roll'
p6
F9.63047750751619
sS'pitch'
p7
F0.6223720292725576
ssS'heart_rate'
p8
F9.698084518534655
sS'imu_torso'
p9
(dp10
g5
F15.382142580090042
sg6
F19.988909088933042
sg7
F5.417485078825514
ssS'steplength'
p11
g2
sS'timestamp'
p12
cdatetime
datetime
p13
(S'\x07\xe1\x0c\x13\x0e\x05\x17\x06\xfd\x10'
p14
tp15
Rp16
sS'speed'
p17
g2
sS'cadence'
p18
g2
s.(dp0
S'blood_pressure'
p1
S'nd'
p2
sS'imu_head'
p3
(dp4
S'yaw'
p5
F14.44466245948643
sS'roll'
p6
F16.382322593449743
sS'pitch'
p7
F4.740614067097715
ssS'heart_rate'
p8
F19.995492810264903
sS'imu_torso'
p9
(dp10
g5
F1.3529737145368292
sg6
F1.76547464790757
sg7
F13.486946048010628
ssS'steplength'
p11
g2
sS'timestamp'
p12
cdatetime
datetime
p13
(S'\x07\xe1\x0c\x13\x0e\x05\x18\x07\x04\xe0'
p14
tp15
Rp16
sS'speed'
p17
g2
sS'cadence'
p18
g2
s.(dp0
S'blood_pressure'
p1
S'nd'
p2
sS'imu_head'
p3
(dp4
S'yaw'
p5
F6.765940638195483
sS'roll'
p6
F3.003743627035831
sS'pitch'
p7
F9.121210407345393
ssS'heart_rate'
p8
F36.45776490751827
sS'imu_torso'
p9
(dp10
g5
F0.9792881914793417
sg6
F0.1455048898343425
sg7
F15.261861486475183
ssS'steplength'
p11
g2
sS'timestamp'
p12
cdatetime
datetime
p13
(S'\x07\xe1\x0c\x13\x0e\x05\x19\x07\x10\x98'
p14
tp15
Rp16
sS'speed'
p17
g2
sS'cadence'
p18
g2
s.(dp0
S'blood_pressure'
p1
S'nd'
p2
sS'imu_head'
p3
(dp4
S'yaw'
p5
F8.198972781339052
sS'roll'
p6
F6.670537741522047
sS'pitch'
p7
F8.829044477432134
ssS'heart_rate'
p8
F38.09911805473399
sS'imu_torso'
p9
(dp10
g5
F18.35964654391893
sg6
F0.0772451265366425
sg7
F11.263584277124295
ssS'steplength'
p11
g2
sS'timestamp'
p12
cdatetime
datetime
p13
(S'\x07\xe1\x0c\x13\x0e\x05\x1a\x07\x14\x80'
p14
tp15
Rp16
sS'speed'
p17
g2
sS'cadence'
p18
g2
s.(dp0
S'blood_pressure'
p1
S'nd'
p2
sS'imu_head'
p3
(dp4
S'yaw'
p5
F16.731478186261974
sS'roll'
p6
F14.88891983626518
sS'pitch'
p7
F0.5727833470724031
ssS'heart_rate'
p8
F43.682809265594756
sS'imu_torso'
p9
(dp10
g5
F9.673412020229213
sg6
F12.7757025841095
sg7
F2.3687852919685226
ssS'steplength'
p11
g2
sS'timestamp'
p12
cdatetime
datetime
p13
(S'\x07\xe1\x0c\x13\x0e\x05\x1b\x07\x18h'
p14
tp15
Rp16
sS'speed'
p17
g2
sS'cadence'
p18
g2
s.(dp0
S'blood_pressure'
p1
S'nd'
p2
sS'imu_head'
p3
(dp4
S'yaw'
p5
F3.256187135289379
sS'roll'
p6
F14.414342338580195
sS'pitch'
p7
F7.237929067712119
ssS'heart_rate'
p8
F50.97558766745117
sS'imu_torso'
p9
(dp10
g5
F15.657815007615
sg6
F12.2120779201721
sg7
F19.37948333067824
ssS'steplength'
p11
g2
sS'timestamp'
p12
cdatetime
datetime
p13
(S'\x07\xe1\x0c\x13\x0e\x05\x1c\x07 8'
p14
tp15
Rp16
sS'speed'
p17
g2
sS'cadence'
p18
g2
s.(dp0
S'blood_pressure'
p1
S'nd'
p2
sS'imu_head'
p3
(dp4
S'yaw'
p5
F19.14557997513462
sS'roll'
p6
F11.550615650844092
sS'pitch'
p7
F19.214743919192127
ssS'heart_rate'
p8
F41.661643840231235
sS'imu_torso'
p9
(dp10
g5
F3.603406906921096
sg6
F11.885435923836
sg7
F17.42855952987516
ssS'steplength'
p11
g2
sS'timestamp'
p12
cdatetime
datetime
p13
(S'\x07\xe1\x0c\x13\x0e\x05\x1d\x07(\x08'
p14
tp15
Rp16
sS'speed'
p17
g2
sS'cadence'
p18
g2
s.(dp0
S'blood_pressure'
p1
S'nd'
p2
sS'imu_head'
p3
(dp4
S'yaw'
p5
F16.579220231214723
sS'roll'
p6
F4.817379753503747
sS'pitch'
p7
F14.404715740758483
ssS'heart_rate'
p8
F41.72745767538747
sS'imu_torso'
p9
(dp10
g5
F0.7432281960170584
sg6
F5.348682046508937
sg7
F9.284850044540532
ssS'steplength'
p11
g2
sS'timestamp'
p12
cdatetime
datetime
p13
(S'\x07\xe1\x0c\x13\x0e\x05\x1e\x07/\xd8'
p14
tp15
Rp16
sS'speed'
p17
g2
sS'cadence'
p18
g2
s.(dp0
S'blood_pressure'
p1
S'nd'
p2
sS'imu_head'
p3
(dp4
S'yaw'
p5
F13.464018267675552
sS'roll'
p6
F11.910888355270334
sS'pitch'
p7
F3.650226754139647
ssS'heart_rate'
p8
F59.70915785047691
sS'imu_torso'
p9
(dp10
g5
F12.45891818493558
sg6
F18.116060603158154
sg7
F19.52107519315031
ssS'steplength'
p11
g2
sS'timestamp'
p12
cdatetime
datetime
p13
(S'\x07\xe1\x0c\x13\x0e\x05\x1f\x07;\x90'
p14
tp15
Rp16
sS'speed'
p17
g2
sS'cadence'
p18
g2
s.(dp0
S'blood_pressure'
p1
S'nd'
p2
sS'imu_head'
p3
(dp4
S'yaw'
p5
F4.110433715226853
sS'roll'
p6
F9.51087574067688
sS'pitch'
p7
F18.16573611550897
ssS'heart_rate'
p8
F95.52067013864526
sS'imu_torso'
p9
(dp10
g5
F14.97286948862297
sg6
F0.4047357810485197
sg7
F4.109630216395724
ssS'steplength'
p11
g2
sS'timestamp'
p12
cdatetime
datetime
p13
(S'\x07\xe1\x0c\x13\x0e\x05 \x07C`'
p14
tp15
Rp16
sS'speed'
p17
g2
sS'cadence'
p18
g2
s.(dp0
S'blood_pressure'
p1
S'nd'
p2
sS'imu_head'
p3
(dp4
S'yaw'
p5
F1.1267606599449298
sS'roll'
p6
F7.060928908354045
sS'pitch'
p7
F17.169938608318123
ssS'heart_rate'
p8
F23.662348822540714
sS'imu_torso'
p9
(dp10
g5
F6.976834480251366
sg6
F13.272024690562333
sg7
F12.035662495524196
ssS'steplength'
p11
g2
sS'timestamp'
p12
cdatetime
datetime
p13
(S'\x07\xe1\x0c\x13\x0e\x05!\x07GH'
p14
tp15
Rp16
sS'speed'
p17
g2
sS'cadence'
p18
g2
s.(dp0
S'blood_pressure'
p1
S'nd'
p2
sS'imu_head'
p3
(dp4
S'yaw'
p5
F5.425374182536233
sS'roll'
p6
F17.451700104761485
sS'pitch'
p7
F3.735773987189155
ssS'heart_rate'
p8
F77.03433838545541
sS'imu_torso'
p9
(dp10
g5
F11.753779780450792
sg6
F4.502594387878018
sg7
F10.006089179254383
ssS'steplength'
p11
g2
sS'timestamp'
p12
cdatetime
datetime
p13
(S'\x07\xe1\x0c\x13\x0e\x05"\x07O\x18'
p14
tp15
Rp16
sS'speed'
p17
g2
sS'cadence'
p18
g2
s.(dp0
S'blood_pressure'
p1
S'nd'
p2
sS'imu_head'
p3
(dp4
S'yaw'
p5
F15.449244137712801
sS'roll'
p6
F7.59411179714923
sS'pitch'
p7
F14.305249744464305
ssS'heart_rate'
p8
F20.293166662741925
sS'imu_torso'
p9
(dp10
g5
F14.47614959152113
sg6
F2.68313950260189
sg7
F3.1671979049806964
ssS'steplength'
p11
g2
sS'timestamp'
p12
cdatetime
datetime
p13
(S'\x07\xe1\x0c\x13\x0e\x05#\x07V\xe8'
p14
tp15
Rp16
sS'speed'
p17
g2
sS'cadence'
p18
g2
s.(dp0
S'blood_pressure'
p1
S'nd'
p2
sS'imu_head'
p3
(dp4
S'yaw'
p5
F16.331210974874
sS'roll'
p6
F14.516090977971732
sS'pitch'
p7
F17.638009633059866
ssS'heart_rate'
p8
F88.43939121010406
sS'imu_torso'
p9
(dp10
g5
F10.843564078003658
sg6
F4.539893659992666
sg7
F7.404791226623817
ssS'steplength'
p11
g2
sS'timestamp'
p12
cdatetime
datetime
p13
(S'\x07\xe1\x0c\x13\x0e\x05$\x07^\xb8'
p14
tp15
Rp16
sS'speed'
p17
g2
sS'cadence'
p18
g2
s.(dp0
S'blood_pressure'
p1
S'nd'
p2
sS'imu_head'
p3
(dp4
S'yaw'
p5
F5.988455068574783
sS'roll'
p6
F18.852857911625012
sS'pitch'
p7
F6.624853669783182
ssS'heart_rate'
p8
F60.90609120653935
sS'imu_torso'
p9
(dp10
g5
F17.484363556370454
sg6
F10.133830286645814
sg7
F16.072931161463508
ssS'steplength'
p11
g2
sS'timestamp'
p12
cdatetime
datetime
p13
(S'\x07\xe1\x0c\x13\x0e\x05%\x07f\x88'
p14
tp15
Rp16
sS'speed'
p17
g2
sS'cadence'
p18
g2
s.(dp0
S'blood_pressure'
p1
S'nd'
p2
sS'imu_head'
p3
(dp4
S'yaw'
p5
F0.366986325629437
sS'roll'
p6
F1.7929834065830108
sS'pitch'
p7
F2.0550066344073903
ssS'heart_rate'
p8
F84.35605451794676
sS'imu_torso'
p9
(dp10
g5
F17.0264609129054
sg6
F6.83664842609959
sg7
F19.062514179110675
ssS'steplength'
p11
g2
sS'timestamp'
p12
cdatetime
datetime
p13
(S'\x07\xe1\x0c\x13\x0e\x05&\x07nX'
p14
tp15
Rp16
sS'speed'
p17
g2
sS'cadence'
p18
g2
s.(dp0
S'blood_pressure'
p1
S'nd'
p2
sS'imu_head'
p3
(dp4
S'yaw'
p5
F19.841680101629244
sS'roll'
p6
F12.028889146319532
sS'pitch'
p7
F1.2764584496325893
ssS'heart_rate'
p8
F22.06883303765286
sS'imu_torso'
p9
(dp10
g5
F19.037583668071726
sg6
F3.0445665078924544
sg7
F10.287860494087314
ssS'steplength'
p11
g2
sS'timestamp'
p12
cdatetime
datetime
p13
(S"\x07\xe1\x0c\x13\x0e\x05'\x07v("
p14
tp15
Rp16
sS'speed'
p17
g2
sS'cadence'
p18
g2
s.(dp0
S'blood_pressure'
p1
S'nd'
p2
sS'imu_head'
p3
(dp4
S'yaw'
p5
F12.069068462520207
sS'roll'
p6
F4.024661911657512
sS'pitch'
p7
F5.25460247479516
ssS'heart_rate'
p8
F67.48651743136669
sS'imu_torso'
p9
(dp10
g5
F5.800335727424677
sg6
F3.0634496097869435
sg7
F18.532967189606623
ssS'steplength'
p11
g2
sS'timestamp'
p12
cdatetime
datetime
p13
(S'\x07\xe1\x0c\x13\x0e\x054\x02Q\xc0'
p14
tp15
Rp16
sS'speed'
p17
g2
sS'cadence'
p18
g2
s.(dp0
S'blood_pressure'
p1
S'nd'
p2
sS'imu_head'
p3
(dp4
S'yaw'
p5
F12.069068462520207
sS'roll'
p6
F4.024661911657512
sS'pitch'
p7
F5.25460247479516
ssS'heart_rate'
p8
F67.48651743136669
sS'imu_torso'
p9
(dp10
g5
F5.800335727424677
sg6
F3.0634496097869435
sg7
F18.532967189606623
ssS'steplength'
p11
g2
sS'timestamp'
p12
cdatetime
datetime
p13
(S'\x07\xe1\x0c\x13\x0e\x054\x02Q\xc0'
p14
tp15
Rp16
sS'speed'
p17
g2
sS'cadence'
p18
g2
s.(dp0
S'blood_pressure'
p1
S'nd'
p2
sS'imu_head'
p3
(dp4
S'yaw'
p5
F12.069068462520207
sS'roll'
p6
F4.024661911657512
sS'pitch'
p7
F5.25460247479516
ssS'heart_rate'
p8
F67.48651743136669
sS'imu_torso'
p9
(dp10
g5
F5.800335727424677
sg6
F3.0634496097869435
sg7
F18.532967189606623
ssS'steplength'
p11
g2
sS'timestamp'
p12
cdatetime
datetime
p13
(S'\x07\xe1\x0c\x13\x0e\x054\x02Q\xc0'
p14
tp15
Rp16
sS'speed'
p17
g2
sS'cadence'
p18
g2
s.(dp0
S'blood_pressure'
p1
S'nd'
p2
sS'imu_head'
p3
(dp4
S'yaw'
p5
F12.069068462520207
sS'roll'
p6
F4.024661911657512
sS'pitch'
p7
F5.25460247479516
ssS'heart_rate'
p8
F67.48651743136669
sS'imu_torso'
p9
(dp10
g5
F5.800335727424677
sg6
F3.0634496097869435
sg7
F18.532967189606623
ssS'steplength'
p11
g2
sS'timestamp'
p12
cdatetime
datetime
p13
(S'\x07\xe1\x0c\x13\x0e\x054\x02U\xa8'
p14
tp15
Rp16
sS'speed'
p17
g2
sS'cadence'
p18
g2
s.(dp0
S'blood_pressure'
p1
S'nd'
p2
sS'imu_head'
p3
(dp4
S'yaw'
p5
F12.069068462520207
sS'roll'
p6
F4.024661911657512
sS'pitch'
p7
F5.25460247479516
ssS'heart_rate'
p8
F67.48651743136669
sS'imu_torso'
p9
(dp10
g5
F5.800335727424677
sg6
F3.0634496097869435
sg7
F18.532967189606623
ssS'steplength'
p11
g2
sS'timestamp'
p12
cdatetime
datetime
p13
(S'\x07\xe1\x0c\x13\x0e\x054\x02U\xa8'
p14
tp15
Rp16
sS'speed'
p17
g2
sS'cadence'
p18
g2
s.(dp0
S'blood_pressure'
p1
S'nd'
p2
sS'imu_head'
p3
(dp4
S'yaw'
p5
F12.069068462520207
sS'roll'
p6
F4.024661911657512
sS'pitch'
p7
F5.25460247479516
ssS'heart_rate'
p8
F67.48651743136669
sS'imu_torso'
p9
(dp10
g5
F5.800335727424677
sg6
F3.0634496097869435
sg7
F18.532967189606623
ssS'steplength'
p11
g2
sS'timestamp'
p12
cdatetime
datetime
p13
(S'\x07\xe1\x0c\x13\x0e\x054\x02U\xa8'
p14
tp15
Rp16
sS'speed'
p17
g2
sS'cadence'
p18
g2
s.(dp0
S'blood_pressure'
p1
S'nd'
p2
sS'imu_head'
p3
(dp4
S'yaw'
p5
F12.069068462520207
sS'roll'
p6
F4.024661911657512
sS'pitch'
p7
F5.25460247479516
ssS'heart_rate'
p8
F67.48651743136669
sS'imu_torso'
p9
(dp10
g5
F5.800335727424677
sg6
F3.0634496097869435
sg7
F18.532967189606623
ssS'steplength'
p11
g2
sS'timestamp'
p12
cdatetime
datetime
p13
(S'\x07\xe1\x0c\x13\x0e\x054\x02U\xa8'
p14
tp15
Rp16
sS'speed'
p17
g2
sS'cadence'
p18
g2
s.(dp0
S'blood_pressure'
p1
S'nd'
p2
sS'imu_head'
p3
(dp4
S'yaw'
p5
F12.069068462520207
sS'roll'
p6
F4.024661911657512
sS'pitch'
p7
F5.25460247479516
ssS'heart_rate'
p8
F67.48651743136669
sS'imu_torso'
p9
(dp10
g5
F5.800335727424677
sg6
F3.0634496097869435
sg7
F18.532967189606623
ssS'steplength'
p11
g2
sS'timestamp'
p12
cdatetime
datetime
p13
(S'\x07\xe1\x0c\x13\x0e\x054\x02U\xa8'
p14
tp15
Rp16
sS'speed'
p17
g2
sS'cadence'
p18
g2
s.(dp0
S'blood_pressure'
p1
S'nd'
p2
sS'imu_head'
p3
(dp4
S'yaw'
p5
F12.069068462520207
sS'roll'
p6
F4.024661911657512
sS'pitch'
p7
F5.25460247479516
ssS'heart_rate'
p8
F67.48651743136669
sS'imu_torso'
p9
(dp10
g5
F5.800335727424677
sg6
F3.0634496097869435
sg7
F18.532967189606623
ssS'steplength'
p11
g2
sS'timestamp'
p12
cdatetime
datetime
p13
(S'\x07\xe1\x0c\x13\x0e\x054\x02U\xa8'
p14
tp15
Rp16
sS'speed'
p17
g2
sS'cadence'
p18
g2
s.(dp0
S'blood_pressure'
p1
S'nd'
p2
sS'imu_head'
p3
(dp4
S'yaw'
p5
F12.069068462520207
sS'roll'
p6
F4.024661911657512
sS'pitch'
p7
F5.25460247479516
ssS'heart_rate'
p8
F67.48651743136669
sS'imu_torso'
p9
(dp10
g5
F5.800335727424677
sg6
F3.0634496097869435
sg7
F18.532967189606623
ssS'steplength'
p11
g2
sS'timestamp'
p12
cdatetime
datetime
p13
(S'\x07\xe1\x0c\x13\x0e\x054\x02U\xa8'
p14
tp15
Rp16
sS'speed'
p17
g2
sS'cadence'
p18
g2
s.(dp0
S'blood_pressure'
p1
S'nd'
p2
sS'imu_head'
p3
(dp4
S'yaw'
p5
F12.069068462520207
sS'roll'
p6
F4.024661911657512
sS'pitch'
p7
F5.25460247479516
ssS'heart_rate'
p8
F67.48651743136669
sS'imu_torso'
p9
(dp10
g5
F5.800335727424677
sg6
F3.0634496097869435
sg7
F18.532967189606623
ssS'steplength'
p11
g2
sS'timestamp'
p12
cdatetime
datetime
p13
(S'\x07\xe1\x0c\x13\x0e\x054\x02Y\x90'
p14
tp15
Rp16
sS'speed'
p17
g2
sS'cadence'
p18
g2
s.(dp0
S'blood_pressure'
p1
S'nd'
p2
sS'imu_head'
p3
(dp4
S'yaw'
p5
F12.069068462520207
sS'roll'
p6
F4.024661911657512
sS'pitch'
p7
F5.25460247479516
ssS'heart_rate'
p8
F67.48651743136669
sS'imu_torso'
p9
(dp10
g5
F5.800335727424677
sg6
F3.0634496097869435
sg7
F18.532967189606623
ssS'steplength'
p11
g2
sS'timestamp'
p12
cdatetime
datetime
p13
(S'\x07\xe1\x0c\x13\x0e\x054\x02Y\x90'
p14
tp15
Rp16
sS'speed'
p17
g2
sS'cadence'
p18
g2
s.