(dp0
S'blood_pressure'
p1
S'nd'
p2
sS'imu_head'
p3
(dp4
S'yaw'
p5
I0
sS'roll'
p6
I0
sS'pitch'
p7
I0
ssS'heart_rate'
p8
I0
sS'imu_torso'
p9
(dp10
g5
I0
sg6
I0
sg7
I0
ssS'steplength'
p11
g2
sS'timestamp'
p12
cdatetime
datetime
p13
(S'\x07\xe1\x0c\x13\r"\x18\n\xd5p'
p14
tp15
Rp16
sS'speed'
p17
g2
sS'cadence'
p18
g2
s.(dp0
S'blood_pressure'
p1
S'nd'
p2
sS'imu_head'
p3
(dp4
S'yaw'
p5
I0
sS'roll'
p6
I0
sS'pitch'
p7
I0
ssS'heart_rate'
p8
I0
sS'imu_torso'
p9
(dp10
g5
I0
sg6
I0
sg7
I0
ssS'steplength'
p11
g2
sS'timestamp'
p12
cdatetime
datetime
p13
(S'\x07\xe1\x0c\x13\r"\x19\x0b7\x18'
p14
tp15
Rp16
sS'speed'
p17
g2
sS'cadence'
p18
g2
s.(dp0
S'blood_pressure'
p1
S'nd'
p2
sS'imu_head'
p3
(dp4
S'yaw'
p5
S' -1.1875'
p6
sS'roll'
p7
S' 340.5'
p8
sS'pitch'
p9
S'-76.25 '
p10
ssS'heart_rate'
p11
I0
sS'imu_torso'
p12
(dp13
g5
S' -14.25'
p14
sg7
S' 199.875\n'
p15
sg9
S'-103.5625 '
p16
ssS'steplength'
p17
g2
sS'timestamp'
p18
cdatetime
datetime
p19
(S'\x07\xe1\x0c\x13\r"\x1a\x0b\xcb\x88'
p20
tp21
Rp22
sS'speed'
p23
g2
sS'cadence'
p24
g2
s.(dp0
S'blood_pressure'
p1
S'nd'
p2
sS'imu_head'
p3
(dp4
S'yaw'
p5
S' -2.5'
p6
sS'roll'
p7
S' 338.0'
p8
sS'pitch'
p9
S'-76.5625 '
p10
ssS'heart_rate'
p11
I0
sS'imu_torso'
p12
(dp13
g5
S' -14.5'
p14
sg7
S' 200.0625\n'
p15
sg9
S'-103.8125 '
p16
ssS'steplength'
p17
g2
sS'timestamp'
p18
cdatetime
datetime
p19
(S'\x07\xe1\x0c\x13\r"\x1b\x0cPX'
p20
tp21
Rp22
sS'speed'
p23
g2
sS'cadence'
p24
g2
s.(dp0
S'blood_pressure'
p1
S'nd'
p2
sS'imu_head'
p3
(dp4
S'yaw'
p5
S' -8.125'
p6
sS'roll'
p7
S' 332.5'
p8
sS'pitch'
p9
S'-77.1875 '
p10
ssS'heart_rate'
p11
I0
sS'imu_torso'
p12
(dp13
g5
S' -12.0'
p14
sg7
S' 198.4375\n'
p15
sg9
S'-102.0 '
p16
ssS'steplength'
p17
g2
sS'timestamp'
p18
cdatetime
datetime
p19
(S'\x07\xe1\x0c\x13\r"\x1c\x0co\x98'
p20
tp21
Rp22
sS'speed'
p23
g2
sS'cadence'
p24
g2
s.(dp0
S'blood_pressure'
p1
S'nd'
p2
sS'imu_head'
p3
(dp4
S'yaw'
p5
S' -3.1875'
p6
sS'roll'
p7
S' 336.4375'
p8
sS'pitch'
p9
S'-84.3125 '
p10
ssS'heart_rate'
p11
I0
sS'imu_torso'
p12
(dp13
g5
S' -11.5625'
p14
sg7
S' 198.625\n'
p15
sg9
S'-101.625 '
p16
ssS'steplength'
p17
g2
sS'timestamp'
p18
cdatetime
datetime
p19
(S'\x07\xe1\x0c\x13\r"\x1d\x0c\xa6H'
p20
tp21
Rp22
sS'speed'
p23
g2
sS'cadence'
p24
g2
s.(dp0
S'blood_pressure'
p1
S'nd'
p2
sS'imu_head'
p3
(dp4
S'yaw'
p5
S' 4.0625'
p6
sS'roll'
p7
S' 334.6875'
p8
sS'pitch'
p9
S'-84.875 '
p10
ssS'heart_rate'
p11
I0
sS'imu_torso'
p12
(dp13
g5
S' -17.125'
p14
sg7
S' 200.75\n'
p15
sg9
S'-104.0 '
p16
ssS'steplength'
p17
g2
sS'timestamp'
p18
cdatetime
datetime
p19
(S'\x07\xe1\x0c\x13\r"\x1e\x0c\xdc\xf8'
p20
tp21
Rp22
sS'speed'
p23
g2
sS'cadence'
p24
g2
s.(dp0
S'blood_pressure'
p1
S'nd'
p2
sS'imu_head'
p3
(dp4
S'yaw'
p5
S' 3.4375'
p6
sS'roll'
p7
S' 331.5'
p8
sS'pitch'
p9
S'-85.0 '
p10
ssS'heart_rate'
p11
I0
sS'imu_torso'
p12
(dp13
g5
S' -17.4375'
p14
sg7
S' 200.1875\n'
p15
sg9
S'-105.8125 '
p16
ssS'steplength'
p17
g2
sS'timestamp'
p18
cdatetime
datetime
p19
(S'\x07\xe1\x0c\x13\r"\x1f\r2\xe8'
p20
tp21
Rp22
sS'speed'
p23
g2
sS'cadence'
p24
g2
s.(dp0
S'blood_pressure'
p1
S'nd'
p2
sS'imu_head'
p3
(dp4
S'yaw'
p5
S' -1.5'
p6
sS'roll'
p7
S' 332.5'
p8
sS'pitch'
p9
S'-83.75 '
p10
ssS'heart_rate'
p11
I0
sS'imu_torso'
p12
(dp13
g5
S' -15.0'
p14
sg7
S' 200.0\n'
p15
sg9
S'-104.3125 '
p16
ssS'steplength'
p17
g2
sS'timestamp'
p18
cdatetime
datetime
p19
(S'\x07\xe1\x0c\x13\r" \rR('
p20
tp21
Rp22
sS'speed'
p23
g2
sS'cadence'
p24
g2
s.(dp0
S'blood_pressure'
p1
S'nd'
p2
sS'imu_head'
p3
(dp4
S'yaw'
p5
S' -2.4375'
p6
sS'roll'
p7
S' 336.4375'
p8
sS'pitch'
p9
S'-98.4375 '
p10
ssS'heart_rate'
p11
I0
sS'imu_torso'
p12
(dp13
g5
S' -13.1875'
p14
sg7
S' 199.75\n'
p15
sg9
S'-103.125 '
p16
ssS'steplength'
p17
g2
sS'timestamp'
p18
cdatetime
datetime
p19
(S'\x07\xe1\x0c\x13\r"!\ruP'
p20
tp21
Rp22
sS'speed'
p23
g2
sS'cadence'
p24
g2
s.(dp0
S'blood_pressure'
p1
S'nd'
p2
sS'imu_head'
p3
(dp4
S'yaw'
p5
S' -0.75'
p6
sS'roll'
p7
S' 337.75'
p8
sS'pitch'
p9
S'-89.375 '
p10
ssS'heart_rate'
p11
I0
sS'imu_torso'
p12
(dp13
g5
S' -18.6875'
p14
sg7
S' 203.875\n'
p15
sg9
S'-108.5625 '
p16
ssS'steplength'
p17
g2
sS'timestamp'
p18
cdatetime
datetime
p19
(S'\x07\xe1\x0c\x13\r""\r\x9c`'
p20
tp21
Rp22
sS'speed'
p23
g2
sS'cadence'
p24
g2
s.(dp0
S'blood_pressure'
p1
S'nd'
p2
sS'imu_head'
p3
(dp4
S'yaw'
p5
S' 0.6875'
p6
sS'roll'
p7
S' 337.25'
p8
sS'pitch'
p9
S'-85.5 '
p10
ssS'heart_rate'
p11
I0
sS'imu_torso'
p12
(dp13
g5
S' -18.6875'
p14
sg7
S' 203.125\n'
p15
sg9
S'-58.625 '
p16
ssS'steplength'
p17
g2
sS'timestamp'
p18
cdatetime
datetime
p19
(S'\x07\xe1\x0c\x13\r"#\x0e!0'
p20
tp21
Rp22
sS'speed'
p23
g2
sS'cadence'
p24
g2
s.(dp0
S'blood_pressure'
p1
S'nd'
p2
sS'imu_head'
p3
(dp4
S'yaw'
p5
S' 1.4375'
p6
sS'roll'
p7
S' 336.3125'
p8
sS'pitch'
p9
S'-84.4375 '
p10
ssS'heart_rate'
p11
I0
sS'imu_torso'
p12
(dp13
g5
S' -17.375'
p14
sg7
S' 201.625\n'
p15
sg9
S'-104.875 '
p16
ssS'steplength'
p17
g2
sS'timestamp'
p18
cdatetime
datetime
p19
(S'\x07\xe1\x0c\x13\r"$\x0e\x8a\xa8'
p20
tp21
Rp22
sS'speed'
p23
g2
sS'cadence'
p24
g2
s.(dp0
S'blood_pressure'
p1
S'nd'
p2
sS'imu_head'
p3
(dp4
S'yaw'
p5
S' -1.0'
p6
sS'roll'
p7
S' 310.0625'
p8
sS'pitch'
p9
S'-105.4375 '
p10
ssS'heart_rate'
p11
I0
sS'imu_torso'
p12
(dp13
g5
S' -17.375'
p14
sg7
S' 201.875\n'
p15
sg9
S'-105.875 '
p16
ssS'steplength'
p17
g2
sS'timestamp'
p18
cdatetime
datetime
p19
(S'\x07\xe1\x0c\x13\r"%\x0e\xa2\x18'
p20
tp21
Rp22
sS'speed'
p23
g2
sS'cadence'
p24
g2
s.(dp0
S'blood_pressure'
p1
S'nd'
p2
sS'imu_head'
p3
(dp4
S'yaw'
p5
S' 0.375'
p6
sS'roll'
p7
S' 338.6875'
p8
sS'pitch'
p9
S'-86.75 '
p10
ssS'heart_rate'
p11
I0
sS'imu_torso'
p12
(dp13
g5
S' -17.3125'
p14
sg7
S' 201.875\n'
p15
sg9
S'-105.6875 '
p16
ssS'steplength'
p17
g2
sS'timestamp'
p18
cdatetime
datetime
p19
(S'\x07\xe1\x0c\x13\r"&\x0f.\xb8'
p20
tp21
Rp22
sS'speed'
p23
g2
sS'cadence'
p24
g2
s.(dp0
S'blood_pressure'
p1
S'nd'
p2
sS'imu_head'
p3
(dp4
S'yaw'
p5
S' -5.0625'
p6
sS'roll'
p7
S' 325.125'
p8
sS'pitch'
p9
S'-83.125 '
p10
ssS'heart_rate'
p11
I0
sS'imu_torso'
p12
(dp13
g5
S' -16.9375'
p14
sg7
S' 201.875\n'
p15
sg9
S'-105.4375 '
p16
ssS'steplength'
p17
g2
sS'timestamp'
p18
cdatetime
datetime
p19
(S'\x07\xe1\x0c\x13\r"(\x00\'\x10'
p20
tp21
Rp22
sS'speed'
p23
g2
sS'cadence'
p24
g2
s.(dp0
S'blood_pressure'
p1
S'nd'
p2
sS'imu_head'
p3
(dp4
S'yaw'
p5
S' 4.5625'
p6
sS'roll'
p7
S' 297.0625'
p8
sS'pitch'
p9
S'-96.375 '
p10
ssS'heart_rate'
p11
I0
sS'imu_torso'
p12
(dp13
g5
S' -16.4375'
p14
sg7
S' 201.75\n'
p15
sg9
S'-105.5 '
p16
ssS'steplength'
p17
g2
sS'timestamp'
p18
cdatetime
datetime
p19
(S'\x07\xe1\x0c\x13\r")\x00\x80\xe8'
p20
tp21
Rp22
sS'speed'
p23
g2
sS'cadence'
p24
g2
s.(dp0
S'blood_pressure'
p1
S'nd'
p2
sS'imu_head'
p3
(dp4
S'yaw'
p5
S' 4.5625'
p6
sS'roll'
p7
S' 297.0625'
p8
sS'pitch'
p9
S'-96.375 '
p10
ssS'heart_rate'
p11
I0
sS'imu_torso'
p12
(dp13
g5
S' -16.4375'
p14
sg7
S' 201.75\n'
p15
sg9
S'-105.5 '
p16
ssS'steplength'
p17
g2
sS'timestamp'
p18
cdatetime
datetime
p19
(S'\x07\xe1\x0c\x13\r"*\x00\x98X'
p20
tp21
Rp22
sS'speed'
p23
g2
sS'cadence'
p24
g2
s.(dp0
S'blood_pressure'
p1
S'nd'
p2
sS'imu_head'
p3
(dp4
S'yaw'
p5
S' 14.6875'
p6
sS'roll'
p7
S' 263.9375'
p8
sS'pitch'
p9
S'-88.0 '
p10
ssS'heart_rate'
p11
I0
sS'imu_torso'
p12
(dp13
g5
S' -15.4375'
p14
sg7
S' 201.0\n'
p15
sg9
S'-56.875 '
p16
ssS'steplength'
p17
g2
sS'timestamp'
p18
cdatetime
datetime
p19
(S'\x07\xe1\x0c\x13\r"+\x00\xe2\x90'
p20
tp21
Rp22
sS'speed'
p23
g2
sS'cadence'
p24
g2
s.(dp0
S'blood_pressure'
p1
S'nd'
p2
sS'imu_head'
p3
(dp4
S'yaw'
p5
S' 4.3125'
p6
sS'roll'
p7
S' 285.25'
p8
sS'pitch'
p9
S'-84.9375 '
p10
ssS'heart_rate'
p11
I0
sS'imu_torso'
p12
(dp13
g5
S' -15.5'
p14
sg7
S' 200.0625\n'
p15
sg9
S'-105.3125 '
p16
ssS'steplength'
p17
g2
sS'timestamp'
p18
cdatetime
datetime
p19
(S'\x07\xe1\x0c\x13\r",\x01\x9a('
p20
tp21
Rp22
sS'speed'
p23
g2
sS'cadence'
p24
g2
s.(dp0
S'blood_pressure'
p1
S'nd'
p2
sS'imu_head'
p3
(dp4
S'yaw'
p5
S' -3.3125'
p6
sS'roll'
p7
S' 328.1875'
p8
sS'pitch'
p9
S'-86.0 '
p10
ssS'heart_rate'
p11
I0
sS'imu_torso'
p12
(dp13
g5
S' -15.875'
p14
sg7
S' 201.6875\n'
p15
sg9
S'-106.0 '
p16
ssS'steplength'
p17
g2
sS'timestamp'
p18
cdatetime
datetime
p19
(S'\x07\xe1\x0c\x13\r"-\x01\xc9\x08'
p20
tp21
Rp22
sS'speed'
p23
g2
sS'cadence'
p24
g2
s.(dp0
S'blood_pressure'
p1
S'nd'
p2
sS'imu_head'
p3
(dp4
S'yaw'
p5
S' 5.8125'
p6
sS'roll'
p7
S' 265.8125'
p8
sS'pitch'
p9
S'-88.375 '
p10
ssS'heart_rate'
p11
I0
sS'imu_torso'
p12
(dp13
g5
S' -15.8125'
p14
sg7
S' 200.75\n'
p15
sg9
S'-105.8125 '
p16
ssS'steplength'
p17
g2
sS'timestamp'
p18
cdatetime
datetime
p19
(S'\x07\xe1\x0c\x13\r".\x02Q\xc0'
p20
tp21
Rp22
sS'speed'
p23
g2
sS'cadence'
p24
g2
s.(dp0
S'blood_pressure'
p1
S'nd'
p2
sS'imu_head'
p3
(dp4
S'yaw'
p5
S' -4.9375'
p6
sS'roll'
p7
S' 331.9375'
p8
sS'pitch'
p9
S'-78.1875 '
p10
ssS'heart_rate'
p11
I0
sS'imu_torso'
p12
(dp13
g5
S' -15.8125'
p14
sg7
S' 200.9375\n'
p15
sg9
S'-57.6875 '
p16
ssS'steplength'
p17
g2
sS'timestamp'
p18
cdatetime
datetime
p19
(S'\x07\xe1\x0c\x13\r"/\x02\xab\x98'
p20
tp21
Rp22
sS'speed'
p23
g2
sS'cadence'
p24
g2
s.(dp0
S'blood_pressure'
p1
S'nd'
p2
sS'imu_head'
p3
(dp4
S'yaw'
p5
S' -0.25'
p6
sS'roll'
p7
S' 303.9375'
p8
sS'pitch'
p9
S'-96.4375 '
p10
ssS'heart_rate'
p11
I0
sS'imu_torso'
p12
(dp13
g5
S' -15.5'
p14
sg7
S' 200.5\n'
p15
sg9
S'-105.9375 '
p16
ssS'steplength'
p17
g2
sS'timestamp'
p18
cdatetime
datetime
p19
(S'\x07\xe1\x0c\x13\r"0\x02\xce\xc0'
p20
tp21
Rp22
sS'speed'
p23
g2
sS'cadence'
p24
g2
s.(dp0
S'blood_pressure'
p1
S'nd'
p2
sS'imu_head'
p3
(dp4
S'yaw'
p5
S' 2.4375'
p6
sS'roll'
p7
S' 290.625'
p8
sS'pitch'
p9
S'-103.1875 '
p10
ssS'heart_rate'
p11
I0
sS'imu_torso'
p12
(dp13
g5
S' -15.8125'
p14
sg7
S' 201.375\n'
p15
sg9
S'-106.125 '
p16
ssS'steplength'
p17
g2
sS'timestamp'
p18
cdatetime
datetime
p19
(S'\x07\xe1\x0c\x13\r"1\x034P'
p20
tp21
Rp22
sS'speed'
p23
g2
sS'cadence'
p24
g2
s.(dp0
S'blood_pressure'
p1
S'nd'
p2
sS'imu_head'
p3
(dp4
S'yaw'
p5
S' 0.5'
p6
sS'roll'
p7
S' 332.875'
p8
sS'pitch'
p9
S'-73.875 '
p10
ssS'heart_rate'
p11
I0
sS'imu_torso'
p12
(dp13
g5
S' -15.375'
p14
sg7
S' 202.125\n'
p15
sg9
S'-105.5625 '
p16
ssS'steplength'
p17
g2
sS'timestamp'
p18
cdatetime
datetime
p19
(S'\x07\xe1\x0c\x13\r"5\x0b\x088'
p20
tp21
Rp22
sS'speed'
p23
g2
sS'cadence'
p24
g2
s.(dp0
S'blood_pressure'
p1
S'nd'
p2
sS'imu_head'
p3
(dp4
S'yaw'
p5
S' 0.5'
p6
sS'roll'
p7
S' 332.875'
p8
sS'pitch'
p9
S'-73.875 '
p10
ssS'heart_rate'
p11
I0
sS'imu_torso'
p12
(dp13
g5
S' -15.375'
p14
sg7
S' 202.125\n'
p15
sg9
S'-105.5625 '
p16
ssS'steplength'
p17
g2
sS'timestamp'
p18
cdatetime
datetime
p19
(S'\x07\xe1\x0c\x13\r"5\x0bF\xb8'
p20
tp21
Rp22
sS'speed'
p23
g2
sS'cadence'
p24
g2
s.(dp0
S'blood_pressure'
p1
S'nd'
p2
sS'imu_head'
p3
(dp4
S'yaw'
p5
S' 0.5'
p6
sS'roll'
p7
S' 332.875'
p8
sS'pitch'
p9
S'-73.875 '
p10
ssS'heart_rate'
p11
I0
sS'imu_torso'
p12
(dp13
g5
S' -15.375'
p14
sg7
S' 202.125\n'
p15
sg9
S'-105.5625 '
p16
ssS'steplength'
p17
g2
sS'timestamp'
p18
cdatetime
datetime
p19
(S'\x07\xe1\x0c\x13\r"5\x0bm\xc8'
p20
tp21
Rp22
sS'speed'
p23
g2
sS'cadence'
p24
g2
s.(dp0
S'blood_pressure'
p1
S'nd'
p2
sS'imu_head'
p3
(dp4
S'yaw'
p5
S' 0.5'
p6
sS'roll'
p7
S' 332.875'
p8
sS'pitch'
p9
S'-73.875 '
p10
ssS'heart_rate'
p11
I0
sS'imu_torso'
p12
(dp13
g5
S' -15.375'
p14
sg7
S' 202.125\n'
p15
sg9
S'-105.5625 '
p16
ssS'steplength'
p17
g2
sS'timestamp'
p18
cdatetime
datetime
p19
(S'\x07\xe1\x0c\x13\r"5\x0b\x89 '
p20
tp21
Rp22
sS'speed'
p23
g2
sS'cadence'
p24
g2
s.(dp0
S'blood_pressure'
p1
S'nd'
p2
sS'imu_head'
p3
(dp4
S'yaw'
p5
S' -5.0'
p6
sS'roll'
p7
S' 302.375'
p8
sS'pitch'
p9
S'-102.75 '
p10
ssS'heart_rate'
p11
I0
sS'imu_torso'
p12
(dp13
g5
S' -15.8125'
p14
sg7
S' 201.5\n'
p15
sg9
S'-105.8125 '
p16
ssS'steplength'
p17
g2
sS'timestamp'
p18
cdatetime
datetime
p19
(S'\x07\xe1\x0c\x13\r"6\x04\xabP'
p20
tp21
Rp22
sS'speed'
p23
g2
sS'cadence'
p24
g2
s.(dp0
S'blood_pressure'
p1
S'nd'
p2
sS'imu_head'
p3
(dp4
S'yaw'
p5
S' -0.3125'
p6
sS'roll'
p7
S' 335.5'
p8
sS'pitch'
p9
S'-84.75 '
p10
ssS'heart_rate'
p11
I0
sS'imu_torso'
p12
(dp13
g5
S' -16.125'
p14
sg7
S' 201.25\n'
p15
sg9
S'-105.625 '
p16
ssS'steplength'
p17
g2
sS'timestamp'
p18
cdatetime
datetime
p19
(S'\x07\xe1\x0c\x13\r"7\x05\t\x10'
p20
tp21
Rp22
sS'speed'
p23
g2
sS'cadence'
p24
g2
s.(dp0
S'blood_pressure'
p1
S'nd'
p2
sS'imu_head'
p3
(dp4
S'yaw'
p5
S' 2.75'
p6
sS'roll'
p7
S' 289.25'
p8
sS'pitch'
p9
S'-90.8125 '
p10
ssS'heart_rate'
p11
I0
sS'imu_torso'
p12
(dp13
g5
S' -15.75'
p14
sg7
S' 200.625\n'
p15
sg9
S'-105.5625 '
p16
ssS'steplength'
p17
g2
sS'timestamp'
p18
cdatetime
datetime
p19
(S'\x07\xe1\x0c\x13\r"8\x05\x99\x98'
p20
tp21
Rp22
sS'speed'
p23
g2
sS'cadence'
p24
g2
s.(dp0
S'blood_pressure'
p1
S'nd'
p2
sS'imu_head'
p3
(dp4
S'yaw'
p5
S' 2.75'
p6
sS'roll'
p7
S' 289.25'
p8
sS'pitch'
p9
S'-90.8125 '
p10
ssS'heart_rate'
p11
I0
sS'imu_torso'
p12
(dp13
g5
S' -15.75'
p14
sg7
S' 200.625\n'
p15
sg9
S'-105.5625 '
p16
ssS'steplength'
p17
g2
sS'timestamp'
p18
cdatetime
datetime
p19
(S'\x07\xe1\x0c\x13\r"9\x06\x0e\xc8'
p20
tp21
Rp22
sS'speed'
p23
g2
sS'cadence'
p24
g2
s.(dp0
S'blood_pressure'
p1
S'nd'
p2
sS'imu_head'
p3
(dp4
S'yaw'
p5
S' -0.625'
p6
sS'roll'
p7
S' 332.8125'
p8
sS'pitch'
p9
S'-79.375 '
p10
ssS'heart_rate'
p11
I0
sS'imu_torso'
p12
(dp13
g5
S' -16.1875'
p14
sg7
S' 200.875\n'
p15
sg9
S'-105.375 '
p16
ssS'steplength'
p17
g2
sS'timestamp'
p18
cdatetime
datetime
p19
(S'\x07\xe1\x0c\x13\r#\x05\x0e\x96`'
p20
tp21
Rp22
sS'speed'
p23
g2
sS'cadence'
p24
g2
s.(dp0
S'blood_pressure'
p1
S'nd'
p2
sS'imu_head'
p3
(dp4
S'yaw'
p5
S' -0.625'
p6
sS'roll'
p7
S' 332.8125'
p8
sS'pitch'
p9
S'-79.375 '
p10
ssS'heart_rate'
p11
I0
sS'imu_torso'
p12
(dp13
g5
S' -16.1875'
p14
sg7
S' 200.875\n'
p15
sg9
S'-105.375 '
p16
ssS'steplength'
p17
g2
sS'timestamp'
p18
cdatetime
datetime
p19
(S'\x07\xe1\x0c\x13\r#\x05\x0e\xd8\xc8'
p20
tp21
Rp22
sS'speed'
p23
g2
sS'cadence'
p24
g2
s.(dp0
S'blood_pressure'
p1
S'nd'
p2
sS'imu_head'
p3
(dp4
S'yaw'
p5
S' -0.625'
p6
sS'roll'
p7
S' 332.8125'
p8
sS'pitch'
p9
S'-79.375 '
p10
ssS'heart_rate'
p11
I0
sS'imu_torso'
p12
(dp13
g5
S' -16.1875'
p14
sg7
S' 200.875\n'
p15
sg9
S'-105.375 '
p16
ssS'steplength'
p17
g2
sS'timestamp'
p18
cdatetime
datetime
p19
(S'\x07\xe1\x0c\x13\r#\x05\x0e\xff\xd8'
p20
tp21
Rp22
sS'speed'
p23
g2
sS'cadence'
p24
g2
s.(dp0
S'blood_pressure'
p1
S'nd'
p2
sS'imu_head'
p3
(dp4
S'yaw'
p5
S' -0.625'
p6
sS'roll'
p7
S' 332.8125'
p8
sS'pitch'
p9
S'-79.375 '
p10
ssS'heart_rate'
p11
I0
sS'imu_torso'
p12
(dp13
g5
S' -16.1875'
p14
sg7
S' 200.875\n'
p15
sg9
S'-105.375 '
p16
ssS'steplength'
p17
g2
sS'timestamp'
p18
cdatetime
datetime
p19
(S'\x07\xe1\x0c\x13\r#\x05\x0f\x0fx'
p20
tp21
Rp22
sS'speed'
p23
g2
sS'cadence'
p24
g2
s.(dp0
S'blood_pressure'
p1
S'nd'
p2
sS'imu_head'
p3
(dp4
S'yaw'
p5
S' -0.625'
p6
sS'roll'
p7
S' 332.8125'
p8
sS'pitch'
p9
S'-79.375 '
p10
ssS'heart_rate'
p11
I0
sS'imu_torso'
p12
(dp13
g5
S' -16.1875'
p14
sg7
S' 200.875\n'
p15
sg9
S'-105.375 '
p16
ssS'steplength'
p17
g2
sS'timestamp'
p18
cdatetime
datetime
p19
(S'\x07\xe1\x0c\x13\r#\x06\x00\x00\x00'
p20
tp21
Rp22
sS'speed'
p23
g2
sS'cadence'
p24
g2
s.(dp0
S'blood_pressure'
p1
S'nd'
p2
sS'imu_head'
p3
(dp4
S'yaw'
p5
S' -0.625'
p6
sS'roll'
p7
S' 332.8125'
p8
sS'pitch'
p9
S'-79.375 '
p10
ssS'heart_rate'
p11
I0
sS'imu_torso'
p12
(dp13
g5
S' -16.1875'
p14
sg7
S' 200.875\n'
p15
sg9
S'-105.375 '
p16
ssS'steplength'
p17
g2
sS'timestamp'
p18
cdatetime
datetime
p19
(S'\x07\xe1\x0c\x13\r#\x06\x00\x1f@'
p20
tp21
Rp22
sS'speed'
p23
g2
sS'cadence'
p24
g2
s.(dp0
S'blood_pressure'
p1
S'nd'
p2
sS'imu_head'
p3
(dp4
S'yaw'
p5
S' -0.625'
p6
sS'roll'
p7
S' 332.8125'
p8
sS'pitch'
p9
S'-79.375 '
p10
ssS'heart_rate'
p11
I0
sS'imu_torso'
p12
(dp13
g5
S' -16.1875'
p14
sg7
S' 200.875\n'
p15
sg9
S'-105.375 '
p16
ssS'steplength'
p17
g2
sS'timestamp'
p18
cdatetime
datetime
p19
(S"\x07\xe1\x0c\x13\r#\x06\x00'\x10"
p20
tp21
Rp22
sS'speed'
p23
g2
sS'cadence'
p24
g2
s.(dp0
S'blood_pressure'
p1
S'nd'
p2
sS'imu_head'
p3
(dp4
S'yaw'
p5
S' -0.625'
p6
sS'roll'
p7
S' 332.8125'
p8
sS'pitch'
p9
S'-79.375 '
p10
ssS'heart_rate'
p11
I0
sS'imu_torso'
p12
(dp13
g5
S' -16.1875'
p14
sg7
S' 200.875\n'
p15
sg9
S'-105.375 '
p16
ssS'steplength'
p17
g2
sS'timestamp'
p18
cdatetime
datetime
p19
(S'\x07\xe1\x0c\x13\r#\x06\x00N '
p20
tp21
Rp22
sS'speed'
p23
g2
sS'cadence'
p24
g2
s.(dp0
S'blood_pressure'
p1
S'nd'
p2
sS'imu_head'
p3
(dp4
S'yaw'
p5
S' -0.625'
p6
sS'roll'
p7
S' 332.0'
p8
sS'pitch'
p9
S'-79.4375 '
p10
ssS'heart_rate'
p11
I0
sS'imu_torso'
p12
(dp13
g5
S' -16.3125'
p14
sg7
S' 200.9375\n'
p15
sg9
S'-105.5625 '
p16
ssS'steplength'
p17
g2
sS'timestamp'
p18
cdatetime
datetime
p19
(S'\x07\xe1\x0c\x13\r#\x06\x08\x8b\x80'
p20
tp21
Rp22
sS'speed'
p23
g2
sS'cadence'
p24
g2
s.(dp0
S'blood_pressure'
p1
S'nd'
p2
sS'imu_head'
p3
(dp4
S'yaw'
p5
S' -7.8125'
p6
sS'roll'
p7
S' 297.5'
p8
sS'pitch'
p9
S'-97.0625 '
p10
ssS'heart_rate'
p11
I0
sS'imu_torso'
p12
(dp13
g5
S' -19.0'
p14
sg7
S' 203.9375\n'
p15
sg9
S'-105.5 '
p16
ssS'steplength'
p17
g2
sS'timestamp'
p18
cdatetime
datetime
p19
(S'\x07\xe1\x0c\x13\r#\n\x0cX('
p20
tp21
Rp22
sS'speed'
p23
g2
sS'cadence'
p24
g2
s.(dp0
S'blood_pressure'
p1
S'nd'
p2
sS'imu_head'
p3
(dp4
S'yaw'
p5
S' -7.8125'
p6
sS'roll'
p7
S' 297.5'
p8
sS'pitch'
p9
S'-97.0625 '
p10
ssS'heart_rate'
p11
I0
sS'imu_torso'
p12
(dp13
g5
S' -19.0'
p14
sg7
S' 203.9375\n'
p15
sg9
S'-105.5 '
p16
ssS'steplength'
p17
g2
sS'timestamp'
p18
cdatetime
datetime
p19
(S'\x07\xe1\x0c\x13\r#\n\x0c_\xf8'
p20
tp21
Rp22
sS'speed'
p23
g2
sS'cadence'
p24
g2
s.(dp0
S'blood_pressure'
p1
S'nd'
p2
sS'imu_head'
p3
(dp4
S'yaw'
p5
S' -7.8125'
p6
sS'roll'
p7
S' 297.5'
p8
sS'pitch'
p9
S'-97.0625 '
p10
ssS'heart_rate'
p11
I0
sS'imu_torso'
p12
(dp13
g5
S' -19.0'
p14
sg7
S' 203.9375\n'
p15
sg9
S'-105.5 '
p16
ssS'steplength'
p17
g2
sS'timestamp'
p18
cdatetime
datetime
p19
(S'\x07\xe1\x0c\x13\r#\n\x0cg\xc8'
p20
tp21
Rp22
sS'speed'
p23
g2
sS'cadence'
p24
g2
s.(dp0
S'blood_pressure'
p1
S'nd'
p2
sS'imu_head'
p3
(dp4
S'yaw'
p5
S' -7.8125'
p6
sS'roll'
p7
S' 297.5'
p8
sS'pitch'
p9
S'-97.0625 '
p10
ssS'heart_rate'
p11
I0
sS'imu_torso'
p12
(dp13
g5
S' -19.0'
p14
sg7
S' 203.9375\n'
p15
sg9
S'-105.5 '
p16
ssS'steplength'
p17
g2
sS'timestamp'
p18
cdatetime
datetime
p19
(S'\x07\xe1\x0c\x13\r#\n\x0c\x83 '
p20
tp21
Rp22
sS'speed'
p23
g2
sS'cadence'
p24
g2
s.(dp0
S'blood_pressure'
p1
S'nd'
p2
sS'imu_head'
p3
(dp4
S'yaw'
p5
S' 3.375'
p6
sS'roll'
p7
S' 323.75'
p8
sS'pitch'
p9
S'-81.5625 '
p10
ssS'heart_rate'
p11
I0
sS'imu_torso'
p12
(dp13
g5
S' -16.0'
p14
sg7
S' 199.375\n'
p15
sg9
S'-103.25 '
p16
ssS'steplength'
p17
g2
sS'timestamp'
p18
cdatetime
datetime
p19
(S'\x07\xe1\x0c\x13\r#\x0b\nP\xa0'
p20
tp21
Rp22
sS'speed'
p23
g2
sS'cadence'
p24
g2
s.(dp0
S'blood_pressure'
p1
S'nd'
p2
sS'imu_head'
p3
(dp4
S'yaw'
p5
S' 3.375'
p6
sS'roll'
p7
S' 323.75'
p8
sS'pitch'
p9
S'-81.5625 '
p10
ssS'heart_rate'
p11
I0
sS'imu_torso'
p12
(dp13
g5
S' -16.0'
p14
sg7
S' 199.375\n'
p15
sg9
S'-103.25 '
p16
ssS'steplength'
p17
g2
sS'timestamp'
p18
cdatetime
datetime
p19
(S'\x07\xe1\x0c\x13\r#\x0c\no\xe0'
p20
tp21
Rp22
sS'speed'
p23
g2
sS'cadence'
p24
g2
s.(dp0
S'blood_pressure'
p1
S'nd'
p2
sS'imu_head'
p3
(dp4
S'yaw'
p5
S' 5.1875'
p6
sS'roll'
p7
S' 320.0625'
p8
sS'pitch'
p9
S'-83.875 '
p10
ssS'heart_rate'
p11
I0
sS'imu_torso'
p12
(dp13
g5
S' -16.625'
p14
sg7
S' 198.3125\n'
p15
sg9
S'-105.125 '
p16
ssS'steplength'
p17
g2
sS'timestamp'
p18
cdatetime
datetime
p19
(S'\x07\xe1\x0c\x13\r#\r\n\xcd\xa0'
p20
tp21
Rp22
sS'speed'
p23
g2
sS'cadence'
p24
g2
s.(dp0
S'blood_pressure'
p1
S'nd'
p2
sS'imu_head'
p3
(dp4
S'yaw'
p5
S' -9.25'
p6
sS'roll'
p7
S' 336.875'
p8
sS'pitch'
p9
S'-94.5625 '
p10
ssS'heart_rate'
p11
I0
sS'imu_torso'
p12
(dp13
g5
S' -13.6875'
p14
sg7
S' 197.6875\n'
p15
sg9
S'-102.9375 '
p16
ssS'steplength'
p17
g2
sS'timestamp'
p18
cdatetime
datetime
p19
(S'\x07\xe1\x0c\x13\r#\x0e\n\xfc\x80'
p20
tp21
Rp22
sS'speed'
p23
g2
sS'cadence'
p24
g2
s.(dp0
S'blood_pressure'
p1
S'nd'
p2
sS'imu_head'
p3
(dp4
S'yaw'
p5
S' -12.375'
p6
sS'roll'
p7
S' 307.25'
p8
sS'pitch'
p9
S'-101.9375 '
p10
ssS'heart_rate'
p11
I0
sS'imu_torso'
p12
(dp13
g5
S' -13.5625'
p14
sg7
S' 198.0\n'
p15
sg9
S'-55.6875 '
p16
ssS'steplength'
p17
g2
sS'timestamp'
p18
cdatetime
datetime
p19
(S'\x07\xe1\x0c\x13\r#\x0f\x0b\x98\xc0'
p20
tp21
Rp22
sS'speed'
p23
g2
sS'cadence'
p24
g2
s.(dp0
S'blood_pressure'
p1
S'nd'
p2
sS'imu_head'
p3
(dp4
S'yaw'
p5
S' -8.75'
p6
sS'roll'
p7
S' 309.0'
p8
sS'pitch'
p9
S'-106.5625 '
p10
ssS'heart_rate'
p11
I0
sS'imu_torso'
p12
(dp13
g5
S' -15.25'
p14
sg7
S' 200.5625\n'
p15
sg9
S'-103.5 '
p16
ssS'steplength'
p17
g2
sS'timestamp'
p18
cdatetime
datetime
p19
(S'\x07\xe1\x0c\x13\r#\x10\x0b\xd3X'
p20
tp21
Rp22
sS'speed'
p23
g2
sS'cadence'
p24
g2
s.(dp0
S'blood_pressure'
p1
S'nd'
p2
sS'imu_head'
p3
(dp4
S'yaw'
p5
S' -2.625'
p6
sS'roll'
p7
S' 358.0'
p8
sS'pitch'
p9
S'-84.125 '
p10
ssS'heart_rate'
p11
I0
sS'imu_torso'
p12
(dp13
g5
S' -14.25'
p14
sg7
S' 198.25\n'
p15
sg9
S'-102.6875 '
p16
ssS'steplength'
p17
g2
sS'timestamp'
p18
cdatetime
datetime
p19
(S'\x07\xe1\x0c\x13\r#\x11\x0cLp'
p20
tp21
Rp22
sS'speed'
p23
g2
sS'cadence'
p24
g2
s.(dp0
S'blood_pressure'
p1
S'nd'
p2
sS'imu_head'
p3
(dp4
S'yaw'
p5
S' 1.5'
p6
sS'roll'
p7
S' 329.5625'
p8
sS'pitch'
p9
S'-87.375 '
p10
ssS'heart_rate'
p11
I0
sS'imu_torso'
p12
(dp13
g5
S' -15.875'
p14
sg7
S' 198.25\n'
p15
sg9
S'-104.9375 '
p16
ssS'steplength'
p17
g2
sS'timestamp'
p18
cdatetime
datetime
p19
(S'\x07\xe1\x0c\x13\r#\x12\x0c\xbd\xb8'
p20
tp21
Rp22
sS'speed'
p23
g2
sS'cadence'
p24
g2
s.(dp0
S'blood_pressure'
p1
S'nd'
p2
sS'imu_head'
p3
(dp4
S'yaw'
p5
S' -8.125'
p6
sS'roll'
p7
S' 16.8125'
p8
sS'pitch'
p9
S'-88.5 '
p10
ssS'heart_rate'
p11
I0
sS'imu_torso'
p12
(dp13
g5
S' -13.6875'
p14
sg7
S' 196.5625\n'
p15
sg9
S'-103.625 '
p16
ssS'steplength'
p17
g2
sS'timestamp'
p18
cdatetime
datetime
p19
(S'\x07\xe1\x0c\x13\r#\x13\ri\x98'
p20
tp21
Rp22
sS'speed'
p23
g2
sS'cadence'
p24
g2
s.(dp0
S'blood_pressure'
p1
S'nd'
p2
sS'imu_head'
p3
(dp4
S'yaw'
p5
S' -0.875'
p6
sS'roll'
p7
S' 337.3125'
p8
sS'pitch'
p9
S'-90.8125 '
p10
ssS'heart_rate'
p11
I0
sS'imu_torso'
p12
(dp13
g5
S' -14.625'
p14
sg7
S' 198.8125\n'
p15
sg9
S'-104.0625 '
p16
ssS'steplength'
p17
g2
sS'timestamp'
p18
cdatetime
datetime
p19
(S'\x07\xe1\x0c\x13\r#\x14\x0e\r\xa8'
p20
tp21
Rp22
sS'speed'
p23
g2
sS'cadence'
p24
g2
s.(dp0
S'blood_pressure'
p1
S'nd'
p2
sS'imu_head'
p3
(dp4
S'yaw'
p5
S' 0.125'
p6
sS'roll'
p7
S' 325.0'
p8
sS'pitch'
p9
S'-106.9375 '
p10
ssS'heart_rate'
p11
I0
sS'imu_torso'
p12
(dp13
g5
S' -14.6875'
p14
sg7
S' 198.875\n'
p15
sg9
S'-103.625 '
p16
ssS'steplength'
p17
g2
sS'timestamp'
p18
cdatetime
datetime
p19
(S'\x07\xe1\x0c\x13\r#\x15\x0e\xbdp'
p20
tp21
Rp22
sS'speed'
p23
g2
sS'cadence'
p24
g2
s.(dp0
S'blood_pressure'
p1
S'nd'
p2
sS'imu_head'
p3
(dp4
S'yaw'
p5
S' 8.0'
p6
sS'roll'
p7
S' 328.375'
p8
sS'pitch'
p9
S'-91.8125 '
p10
ssS'heart_rate'
p11
I0
sS'imu_torso'
p12
(dp13
g5
S' -15.1875'
p14
sg7
S' 198.0\n'
p15
sg9
S'-104.375 '
p16
ssS'steplength'
p17
g2
sS'timestamp'
p18
cdatetime
datetime
p19
(S'\x07\xe1\x0c\x13\r#\x16\x0e\xd8\xc8'
p20
tp21
Rp22
sS'speed'
p23
g2
sS'cadence'
p24
g2
s.(dp0
S'blood_pressure'
p1
S'nd'
p2
sS'imu_head'
p3
(dp4
S'yaw'
p5
S' -7.9375'
p6
sS'roll'
p7
S' 307.0625'
p8
sS'pitch'
p9
S'-105.25 '
p10
ssS'heart_rate'
p11
I0
sS'imu_torso'
p12
(dp13
g5
S' -15.5625'
p14
sg7
S' 196.9375\n'
p15
sg9
S'-104.6875 '
p16
ssS'steplength'
p17
g2
sS'timestamp'
p18
cdatetime
datetime
p19
(S'\x07\xe1\x0c\x13\r#\x18\n\x12 '
p20
tp21
Rp22
sS'speed'
p23
g2
sS'cadence'
p24
g2
s.(dp0
S'blood_pressure'
p1
S'nd'
p2
sS'imu_head'
p3
(dp4
S'yaw'
p5
S' -5.5'
p6
sS'roll'
p7
S' 338.9375'
p8
sS'pitch'
p9
S'-77.625 '
p10
ssS'heart_rate'
p11
I0
sS'imu_torso'
p12
(dp13
g5
S' -13.3125'
p14
sg7
S' 195.4375\n'
p15
sg9
S'-103.8125 '
p16
ssS'steplength'
p17
g2
sS'timestamp'
p18
cdatetime
datetime
p19
(S'\x07\xe1\x0c\x13\r#\x19\x00U\xf0'
p20
tp21
Rp22
sS'speed'
p23
g2
sS'cadence'
p24
g2
s.(dp0
S'blood_pressure'
p1
S'nd'
p2
sS'imu_head'
p3
(dp4
S'yaw'
p5
S' -8.375'
p6
sS'roll'
p7
S' 333.75'
p8
sS'pitch'
p9
S'-79.4375 '
p10
ssS'heart_rate'
p11
I0
sS'imu_torso'
p12
(dp13
g5
S' -14.375'
p14
sg7
S' 196.9375\n'
p15
sg9
S'-104.4375 '
p16
ssS'steplength'
p17
g2
sS'timestamp'
p18
cdatetime
datetime
p19
(S'\x07\xe1\x0c\x13\r#\x1a\x00qH'
p20
tp21
Rp22
sS'speed'
p23
g2
sS'cadence'
p24
g2
s.(dp0
S'blood_pressure'
p1
S'nd'
p2
sS'imu_head'
p3
(dp4
S'yaw'
p5
S' -2.625'
p6
sS'roll'
p7
S' 334.375'
p8
sS'pitch'
p9
S'-76.8125 '
p10
ssS'heart_rate'
p11
I0
sS'imu_torso'
p12
(dp13
g5
S' -14.6875'
p14
sg7
S' 198.875\n'
p15
sg9
S'-103.3125 '
p16
ssS'steplength'
p17
g2
sS'timestamp'
p18
cdatetime
datetime
p19
(S'\x07\xe1\x0c\x13\r#\x1b\x00\xf20'
p20
tp21
Rp22
sS'speed'
p23
g2
sS'cadence'
p24
g2
s.(dp0
S'blood_pressure'
p1
S'nd'
p2
sS'imu_head'
p3
(dp4
S'yaw'
p5
S' -2.625'
p6
sS'roll'
p7
S' 334.375'
p8
sS'pitch'
p9
S'-76.8125 '
p10
ssS'heart_rate'
p11
I0
sS'imu_torso'
p12
(dp13
g5
S' -14.6875'
p14
sg7
S' 198.875\n'
p15
sg9
S'-103.3125 '
p16
ssS'steplength'
p17
g2
sS'timestamp'
p18
cdatetime
datetime
p19
(S'\x07\xe1\x0c\x13\r#\x1c\x01\r\x88'
p20
tp21
Rp22
sS'speed'
p23
g2
sS'cadence'
p24
g2
s.(dp0
S'blood_pressure'
p1
S'nd'
p2
sS'imu_head'
p3
(dp4
S'yaw'
p5
S' 2.5'
p6
sS'roll'
p7
S' 332.3125'
p8
sS'pitch'
p9
S'-68.9375 '
p10
ssS'heart_rate'
p11
I0
sS'imu_torso'
p12
(dp13
g5
S' -15.0625'
p14
sg7
S' 196.875\n'
p15
sg9
S'-103.3125 '
p16
ssS'steplength'
p17
g2
sS'timestamp'
p18
cdatetime
datetime
p19
(S'\x07\xe1\x0c\x13\r#\x1d\x01s\x18'
p20
tp21
Rp22
sS'speed'
p23
g2
sS'cadence'
p24
g2
s.(dp0
S'blood_pressure'
p1
S'nd'
p2
sS'imu_head'
p3
(dp4
S'yaw'
p5
S' 0.6875'
p6
sS'roll'
p7
S' 331.25'
p8
sS'pitch'
p9
S'-68.875 '
p10
ssS'heart_rate'
p11
I0
sS'imu_torso'
p12
(dp13
g5
S' -16.75'
p14
sg7
S' 198.1875\n'
p15
sg9
S'-106.6875 '
p16
ssS'steplength'
p17
g2
sS'timestamp'
p18
cdatetime
datetime
p19
(S'\x07\xe1\x0c\x13\r#\x1e\x01\x8ep'
p20
tp21
Rp22
sS'speed'
p23
g2
sS'cadence'
p24
g2
s.(dp0
S'blood_pressure'
p1
S'nd'
p2
sS'imu_head'
p3
(dp4
S'yaw'
p5
S' -6.375'
p6
sS'roll'
p7
S' 333.9375'
p8
sS'pitch'
p9
S'-83.5 '
p10
ssS'heart_rate'
p11
I0
sS'imu_torso'
p12
(dp13
g5
S' -14.875'
p14
sg7
S' 195.5625\n'
p15
sg9
S'-104.125 '
p16
ssS'steplength'
p17
g2
sS'timestamp'
p18
cdatetime
datetime
p19
(S'\x07\xe1\x0c\x13\r#\x1f\x02&\xc8'
p20
tp21
Rp22
sS'speed'
p23
g2
sS'cadence'
p24
g2
s.(dp0
S'blood_pressure'
p1
S'nd'
p2
sS'imu_head'
p3
(dp4
S'yaw'
p5
S' 3.4375'
p6
sS'roll'
p7
S' 335.0625'
p8
sS'pitch'
p9
S'-89.5625 '
p10
ssS'heart_rate'
p11
I0
sS'imu_torso'
p12
(dp13
g5
S' -15.875'
p14
sg7
S' 199.75\n'
p15
sg9
S'-55.4375 '
p16
ssS'steplength'
p17
g2
sS'timestamp'
p18
cdatetime
datetime
p19
(S'\x07\xe1\x0c\x13\r# \x02U\xa8'
p20
tp21
Rp22
sS'speed'
p23
g2
sS'cadence'
p24
g2
s.(dp0
S'blood_pressure'
p1
S'nd'
p2
sS'imu_head'
p3
(dp4
S'yaw'
p5
S' -1.0'
p6
sS'roll'
p7
S' 334.375'
p8
sS'pitch'
p9
S'-115.25 '
p10
ssS'heart_rate'
p11
I0
sS'imu_torso'
p12
(dp13
g5
S' -15.5'
p14
sg7
S' 197.0\n'
p15
sg9
S'-102.875 '
p16
ssS'steplength'
p17
g2
sS'timestamp'
p18
cdatetime
datetime
p19
(S'\x07\xe1\x0c\x13\r#!\x02\xab\x98'
p20
tp21
Rp22
sS'speed'
p23
g2
sS'cadence'
p24
g2
s.(dp0
S'blood_pressure'
p1
S'nd'
p2
sS'imu_head'
p3
(dp4
S'yaw'
p5
S' 5.8125'
p6
sS'roll'
p7
S' 334.8125'
p8
sS'pitch'
p9
S'-92.3125 '
p10
ssS'heart_rate'
p11
I0
sS'imu_torso'
p12
(dp13
g5
S' -18.625'
p14
sg7
S' 198.0625\n'
p15
sg9
S'-107.5 '
p16
ssS'steplength'
p17
g2
sS'timestamp'
p18
cdatetime
datetime
p19
(S'\x07\xe1\x0c\x13\r#"\x02\xce\xc0'
p20
tp21
Rp22
sS'speed'
p23
g2
sS'cadence'
p24
g2
s.(dp0
S'blood_pressure'
p1
S'nd'
p2
sS'imu_head'
p3
(dp4
S'yaw'
p5
S' 0.1875'
p6
sS'roll'
p7
S' 295.375'
p8
sS'pitch'
p9
S'-93.4375 '
p10
ssS'heart_rate'
p11
I0
sS'imu_torso'
p12
(dp13
g5
S' -17.1875'
p14
sg7
S' 195.0625\n'
p15
sg9
S'-105.4375 '
p16
ssS'steplength'
p17
g2
sS'timestamp'
p18
cdatetime
datetime
p19
(S'\x07\xe1\x0c\x13\r##\x034P'
p20
tp21
Rp22
sS'speed'
p23
g2
sS'cadence'
p24
g2
s.(dp0
S'blood_pressure'
p1
S'nd'
p2
sS'imu_head'
p3
(dp4
S'yaw'
p5
S' -7.625'
p6
sS'roll'
p7
S' 328.1875'
p8
sS'pitch'
p9
S'-108.875 '
p10
ssS'heart_rate'
p11
I0
sS'imu_torso'
p12
(dp13
g5
S' -15.625'
p14
sg7
S' 194.1875\n'
p15
sg9
S'-104.375 '
p16
ssS'steplength'
p17
g2
sS'timestamp'
p18
cdatetime
datetime
p19
(S'\x07\xe1\x0c\x13\r#$\x03\x99\xe0'
p20
tp21
Rp22
sS'speed'
p23
g2
sS'cadence'
p24
g2
s.(dp0
S'blood_pressure'
p1
S'nd'
p2
sS'imu_head'
p3
(dp4
S'yaw'
p5
S' -1.8125'
p6
sS'roll'
p7
S' 336.125'
p8
sS'pitch'
p9
S'-91.875 '
p10
ssS'heart_rate'
p11
I0
sS'imu_torso'
p12
(dp13
g5
S' -17.5625'
p14
sg7
S' 197.5\n'
p15
sg9
S'-105.6875 '
p16
ssS'steplength'
p17
g2
sS'timestamp'
p18
cdatetime
datetime
p19
(S'\x07\xe1\x0c\x13\r#%\x04Qx'
p20
tp21
Rp22
sS'speed'
p23
g2
sS'cadence'
p24
g2
s.(dp0
S'blood_pressure'
p1
S'nd'
p2
sS'imu_head'
p3
(dp4
S'yaw'
p5
S' 2.5'
p6
sS'roll'
p7
S' 334.5'
p8
sS'pitch'
p9
S'-90.9375 '
p10
ssS'heart_rate'
p11
I0
sS'imu_torso'
p12
(dp13
g5
S' -16.875'
p14
sg7
S' 197.125\n'
p15
sg9
S'-104.0 '
p16
ssS'steplength'
p17
g2
sS'timestamp'
p18
cdatetime
datetime
p19
(S'\x07\xe1\x0c\x13\r#&\x04\xb7\x08'
p20
tp21
Rp22
sS'speed'
p23
g2
sS'cadence'
p24
g2
s.(dp0
S'blood_pressure'
p1
S'nd'
p2
sS'imu_head'
p3
(dp4
S'yaw'
p5
S' 3.3125'
p6
sS'roll'
p7
S' 333.6875'
p8
sS'pitch'
p9
S'-91.4375 '
p10
ssS'heart_rate'
p11
I0
sS'imu_torso'
p12
(dp13
g5
S' -18.0'
p14
sg7
S' 196.8125\n'
p15
sg9
S'-105.5625 '
p16
ssS'steplength'
p17
g2
sS'timestamp'
p18
cdatetime
datetime
p19
(S"\x07\xe1\x0c\x13\r#'\x04\xe5\xe8"
p20
tp21
Rp22
sS'speed'
p23
g2
sS'cadence'
p24
g2
s.(dp0
S'blood_pressure'
p1
S'nd'
p2
sS'imu_head'
p3
(dp4
S'yaw'
p5
S' -1.5625'
p6
sS'roll'
p7
S' 338.8125'
p8
sS'pitch'
p9
S'-88.0625 '
p10
ssS'heart_rate'
p11
I0
sS'imu_torso'
p12
(dp13
g5
S' -18.6875'
p14
sg7
S' 196.375\n'
p15
sg9
S'-106.3125 '
p16
ssS'steplength'
p17
g2
sS'timestamp'
p18
cdatetime
datetime
p19
(S'\x07\xe1\x0c\x13\r#(\x05j\xb8'
p20
tp21
Rp22
sS'speed'
p23
g2
sS'cadence'
p24
g2
s.(dp0
S'blood_pressure'
p1
S'nd'
p2
sS'imu_head'
p3
(dp4
S'yaw'
p5
S' -7.0'
p6
sS'roll'
p7
S' 323.875'
p8
sS'pitch'
p9
S'-104.25 '
p10
ssS'heart_rate'
p11
I0
sS'imu_torso'
p12
(dp13
g5
S' -16.0'
p14
sg7
S' 193.0\n'
p15
sg9
S'-104.375 '
p16
ssS'steplength'
p17
g2
sS'timestamp'
p18
cdatetime
datetime
p19
(S'\x07\xe1\x0c\x13\r#)\x0f.\xb8'
p20
tp21
Rp22
sS'speed'
p23
g2
sS'cadence'
p24
g2
s.(dp0
S'blood_pressure'
p1
S'nd'
p2
sS'imu_head'
p3
(dp4
S'yaw'
p5
S' -5.6875'
p6
sS'roll'
p7
S' 301.9375'
p8
sS'pitch'
p9
S'-95.75 '
p10
ssS'heart_rate'
p11
I0
sS'imu_torso'
p12
(dp13
g5
S' -16.25'
p14
sg7
S' 194.75\n'
p15
sg9
S'-106.5 '
p16
ssS'steplength'
p17
g2
sS'timestamp'
p18
cdatetime
datetime
p19
(S'\x07\xe1\x0c\x13\r#*\x06\x0e\xc8'
p20
tp21
Rp22
sS'speed'
p23
g2
sS'cadence'
p24
g2
s.(dp0
S'blood_pressure'
p1
S'nd'
p2
sS'imu_head'
p3
(dp4
S'yaw'
p5
S' -5.6875'
p6
sS'roll'
p7
S' 301.9375'
p8
sS'pitch'
p9
S'-95.75 '
p10
ssS'heart_rate'
p11
I0
sS'imu_torso'
p12
(dp13
g5
S' -16.25'
p14
sg7
S' 194.75\n'
p15
sg9
S'-106.5 '
p16
ssS'steplength'
p17
g2
sS'timestamp'
p18
cdatetime
datetime
p19
(S'\x07\xe1\x0c\x13\r#+\x06* '
p20
tp21
Rp22
sS'speed'
p23
g2
sS'cadence'
p24
g2
s.(dp0
S'blood_pressure'
p1
S'nd'
p2
sS'imu_head'
p3
(dp4
S'yaw'
p5
S' 4.375'
p6
sS'roll'
p7
S' 337.8125'
p8
sS'pitch'
p9
S'-87.75 '
p10
ssS'heart_rate'
p11
I0
sS'imu_torso'
p12
(dp13
g5
S' -17.3125'
p14
sg7
S' 196.0625\n'
p15
sg9
S'-103.875 '
p16
ssS'steplength'
p17
g2
sS'timestamp'
p18
cdatetime
datetime
p19
(S'\x07\xe1\x0c\x13\r#,\x06\x83\xf8'
p20
tp21
Rp22
sS'speed'
p23
g2
sS'cadence'
p24
g2
s.(dp0
S'blood_pressure'
p1
S'nd'
p2
sS'imu_head'
p3
(dp4
S'yaw'
p5
S' -10.0625'
p6
sS'roll'
p7
S' 340.625'
p8
sS'pitch'
p9
S'-90.5625 '
p10
ssS'heart_rate'
p11
I0
sS'imu_torso'
p12
(dp13
g5
S' -14.9375'
p14
sg7
S' 192.8125\n'
p15
sg9
S'-104.875 '
p16
ssS'steplength'
p17
g2
sS'timestamp'
p18
cdatetime
datetime
p19
(S'\x07\xe1\x0c\x13\r#/\x03\xeb\xe8'
p20
tp21
Rp22
sS'speed'
p23
g2
sS'cadence'
p24
g2
s.(dp0
S'blood_pressure'
p1
S'nd'
p2
sS'imu_head'
p3
(dp4
S'yaw'
p5
S' -10.0625'
p6
sS'roll'
p7
S' 340.625'
p8
sS'pitch'
p9
S'-90.5625 '
p10
ssS'heart_rate'
p11
I0
sS'imu_torso'
p12
(dp13
g5
S' -14.9375'
p14
sg7
S' 192.8125\n'
p15
sg9
S'-104.875 '
p16
ssS'steplength'
p17
g2
sS'timestamp'
p18
cdatetime
datetime
p19
(S'\x07\xe1\x0c\x13\r#/\x03\xf7\xa0'
p20
tp21
Rp22
sS'speed'
p23
g2
sS'cadence'
p24
g2
s.(dp0
S'blood_pressure'
p1
S'nd'
p2
sS'imu_head'
p3
(dp4
S'yaw'
p5
S' -2.0'
p6
sS'roll'
p7
S' 340.5'
p8
sS'pitch'
p9
S'-89.625 '
p10
ssS'heart_rate'
p11
I0
sS'imu_torso'
p12
(dp13
g5
S' -17.8125'
p14
sg7
S' 197.5\n'
p15
sg9
S'-104.0625 '
p16
ssS'steplength'
p17
g2
sS'timestamp'
p18
cdatetime
datetime
p19
(S'\x07\xe1\x0c\x13\r#0\x05\x95\xb0'
p20
tp21
Rp22
sS'speed'
p23
g2
sS'cadence'
p24
g2
s.(dp0
S'blood_pressure'
p1
S'nd'
p2
sS'imu_head'
p3
(dp4
S'yaw'
p5
S' -2.0'
p6
sS'roll'
p7
S' 340.5'
p8
sS'pitch'
p9
S'-89.625 '
p10
ssS'heart_rate'
p11
I0
sS'imu_torso'
p12
(dp13
g5
S' -17.8125'
p14
sg7
S' 197.5\n'
p15
sg9
S'-104.0625 '
p16
ssS'steplength'
p17
g2
sS'timestamp'
p18
cdatetime
datetime
p19
(S'\x07\xe1\x0c\x13\r#0\x08t\x10'
p20
tp21
Rp22
sS'speed'
p23
g2
sS'cadence'
p24
g2
s.(dp0
S'blood_pressure'
p1
S'nd'
p2
sS'imu_head'
p3
(dp4
S'yaw'
p5
S' 2.375'
p6
sS'roll'
p7
S' 338.875'
p8
sS'pitch'
p9
S'-89.5 '
p10
ssS'heart_rate'
p11
I0
sS'imu_torso'
p12
(dp13
g5
S' -16.9375'
p14
sg7
S' 195.625\n'
p15
sg9
S'-104.125 '
p16
ssS'steplength'
p17
g2
sS'timestamp'
p18
cdatetime
datetime
p19
(S'\x07\xe1\x0c\x13\r#1\x0e\xc1X'
p20
tp21
Rp22
sS'speed'
p23
g2
sS'cadence'
p24
g2
s.(dp0
S'blood_pressure'
p1
S'nd'
p2
sS'imu_head'
p3
(dp4
S'yaw'
p5
S' 2.5'
p6
sS'roll'
p7
S' 326.3125'
p8
sS'pitch'
p9
S'-107.375 '
p10
ssS'heart_rate'
p11
I0
sS'imu_torso'
p12
(dp13
g5
S' -18.375'
p14
sg7
S' 194.75\n'
p15
sg9
S'-104.75 '
p16
ssS'steplength'
p17
g2
sS'timestamp'
p18
cdatetime
datetime
p19
(S'\x07\xe1\x0c\x13\r#2\t\x10P'
p20
tp21
Rp22
sS'speed'
p23
g2
sS'cadence'
p24
g2
s.(dp0
S'blood_pressure'
p1
S'nd'
p2
sS'imu_head'
p3
(dp4
S'yaw'
p5
S' -9.0625'
p6
sS'roll'
p7
S' 336.5'
p8
sS'pitch'
p9
S'-101.25 '
p10
ssS'heart_rate'
p11
I0
sS'imu_torso'
p12
(dp13
g5
S' -16.1875'
p14
sg7
S' 191.5625\n'
p15
sg9
S'-104.0 '
p16
ssS'steplength'
p17
g2
sS'timestamp'
p18
cdatetime
datetime
p19
(S'\x07\xe1\x0c\x13\r#3\t\xb0x'
p20
tp21
Rp22
sS'speed'
p23
g2
sS'cadence'
p24
g2
s.(dp0
S'blood_pressure'
p1
S'nd'
p2
sS'imu_head'
p3
(dp4
S'yaw'
p5
S' -8.0625'
p6
sS'roll'
p7
S' 2.5'
p8
sS'pitch'
p9
S'-77.125 '
p10
ssS'heart_rate'
p11
I0
sS'imu_torso'
p12
(dp13
g5
S' -15.0625'
p14
sg7
S' 192.6875\n'
p15
sg9
S'-103.5 '
p16
ssS'steplength'
p17
g2
sS'timestamp'
p18
cdatetime
datetime
p19
(S'\x07\xe1\x0c\x13\r#4\n1`'
p20
tp21
Rp22
sS'speed'
p23
g2
sS'cadence'
p24
g2
s.(dp0
S'blood_pressure'
p1
S'nd'
p2
sS'imu_head'
p3
(dp4
S'yaw'
p5
S' -0.4375'
p6
sS'roll'
p7
S' 341.1875'
p8
sS'pitch'
p9
S'-85.5625 '
p10
ssS'heart_rate'
p11
I0
sS'imu_torso'
p12
(dp13
g5
S' -18.0625'
p14
sg7
S' 196.625\n'
p15
sg9
S'-103.0625 '
p16
ssS'steplength'
p17
g2
sS'timestamp'
p18
cdatetime
datetime
p19
(S'\x07\xe1\x0c\x13\r#5\n\xe1('
p20
tp21
Rp22
sS'speed'
p23
g2
sS'cadence'
p24
g2
s.(dp0
S'blood_pressure'
p1
S'nd'
p2
sS'imu_head'
p3
(dp4
S'yaw'
p5
S' 8.0'
p6
sS'roll'
p7
S' 337.375'
p8
sS'pitch'
p9
S'-92.375 '
p10
ssS'heart_rate'
p11
I0
sS'imu_torso'
p12
(dp13
g5
S' -17.5625'
p14
sg7
S' 194.875\n'
p15
sg9
S'-103.8125 '
p16
ssS'steplength'
p17
g2
sS'timestamp'
p18
cdatetime
datetime
p19
(S'\x07\xe1\x0c\x13\r#6\n\xf8\x98'
p20
tp21
Rp22
sS'speed'
p23
g2
sS'cadence'
p24
g2
s.(dp0
S'blood_pressure'
p1
S'nd'
p2
sS'imu_head'
p3
(dp4
S'yaw'
p5
S' -4.5625'
p6
sS'roll'
p7
S' 336.5'
p8
sS'pitch'
p9
S'-93.25 '
p10
ssS'heart_rate'
p11
I0
sS'imu_torso'
p12
(dp13
g5
S' -14.375'
p14
sg7
S' 188.75\n'
p15
sg9
S'-104.6875 '
p16
ssS'steplength'
p17
g2
sS'timestamp'
p18
cdatetime
datetime
p19
(S'\x07\xe1\x0c\x13\r#7\x0b\xb00'
p20
tp21
Rp22
sS'speed'
p23
g2
sS'cadence'
p24
g2
s.(dp0
S'blood_pressure'
p1
S'nd'
p2
sS'imu_head'
p3
(dp4
S'yaw'
p5
S' -7.1875'
p6
sS'roll'
p7
S' 340.25'
p8
sS'pitch'
p9
S'-85.1875 '
p10
ssS'heart_rate'
p11
I0
sS'imu_torso'
p12
(dp13
g5
S' -14.5'
p14
sg7
S' 191.125\n'
p15
sg9
S'-104.625 '
p16
ssS'steplength'
p17
g2
sS'timestamp'
p18
cdatetime
datetime
p19
(S'\x07\xe1\x0c\x13\r#8\x0b\xfeP'
p20
tp21
Rp22
sS'speed'
p23
g2
sS'cadence'
p24
g2
s.(dp0
S'blood_pressure'
p1
S'nd'
p2
sS'imu_head'
p3
(dp4
S'yaw'
p5
S' -4.6875'
p6
sS'roll'
p7
S' 341.75'
p8
sS'pitch'
p9
S'-88.6875 '
p10
ssS'heart_rate'
p11
I0
sS'imu_torso'
p12
(dp13
g5
S' -16.25'
p14
sg7
S' 194.0625\n'
p15
sg9
S'-104.25 '
p16
ssS'steplength'
p17
g2
sS'timestamp'
p18
cdatetime
datetime
p19
(S'\x07\xe1\x0c\x13\r#9\x0c-0'
p20
tp21
Rp22
sS'speed'
p23
g2
sS'cadence'
p24
g2
s.(dp0
S'blood_pressure'
p1
S'nd'
p2
sS'imu_head'
p3
(dp4
S'yaw'
p5
S' -4.6875'
p6
sS'roll'
p7
S' 341.75'
p8
sS'pitch'
p9
S'-88.6875 '
p10
ssS'heart_rate'
p11
I0
sS'imu_torso'
p12
(dp13
g5
S' -16.25'
p14
sg7
S' 194.0625\n'
p15
sg9
S'-104.25 '
p16
ssS'steplength'
p17
g2
sS'timestamp'
p18
cdatetime
datetime
p19
(S'\x07\xe1\x0c\x13\r#:\x0cwh'
p20
tp21
Rp22
sS'speed'
p23
g2
sS'cadence'
p24
g2
s.(dp0
S'blood_pressure'
p1
S'nd'
p2
sS'imu_head'
p3
(dp4
S'yaw'
p5
S' 5.1875'
p6
sS'roll'
p7
S' 336.375'
p8
sS'pitch'
p9
S'-89.125 '
p10
ssS'heart_rate'
p11
I0
sS'imu_torso'
p12
(dp13
g5
S' -16.9375'
p14
sg7
S' 193.1875\n'
p15
sg9
S'-105.3125 '
p16
ssS'steplength'
p17
g2
sS'timestamp'
p18
cdatetime
datetime
p19
(S'\x07\xe1\x0c\x13\r#;\x0c\xae\x18'
p20
tp21
Rp22
sS'speed'
p23
g2
sS'cadence'
p24
g2
s.(dp0
S'blood_pressure'
p1
S'nd'
p2
sS'imu_head'
p3
(dp4
S'yaw'
p5
S' -4.875'
p6
sS'roll'
p7
S' 333.75'
p8
sS'pitch'
p9
S'-90.1875 '
p10
ssS'heart_rate'
p11
I0
sS'imu_torso'
p12
(dp13
g5
S' -16.5625'
p14
sg7
S' 189.4375\n'
p15
sg9
S'-58.25 '
p16
ssS'steplength'
p17
g2
sS'timestamp'
p18
cdatetime
datetime
p19
(S'\x07\xe1\x0c\x13\r$\x00\rR('
p20
tp21
Rp22
sS'speed'
p23
g2
sS'cadence'
p24
g2
s.(dp0
S'blood_pressure'
p1
S'nd'
p2
sS'imu_head'
p3
(dp4
S'yaw'
p5
S' -5.3125'
p6
sS'roll'
p7
S' 325.625'
p8
sS'pitch'
p9
S'-74.8125 '
p10
ssS'heart_rate'
p11
I0
sS'imu_torso'
p12
(dp13
g5
S' -15.125'
p14
sg7
S' 188.0625\n'
p15
sg9
S'-105.5 '
p16
ssS'steplength'
p17
g2
sS'timestamp'
p18
cdatetime
datetime
p19
(S'\x07\xe1\x0c\x13\r$\x01\rqh'
p20
tp21
Rp22
sS'speed'
p23
g2
sS'cadence'
p24
g2
s.(dp0
S'blood_pressure'
p1
S'nd'
p2
sS'imu_head'
p3
(dp4
S'yaw'
p5
S' 0.25'
p6
sS'roll'
p7
S' 340.75'
p8
sS'pitch'
p9
S'-70.375 '
p10
ssS'heart_rate'
p11
I0
sS'imu_torso'
p12
(dp13
g5
S' -16.8125'
p14
sg7
S' 190.875\n'
p15
sg9
S'-105.5 '
p16
ssS'steplength'
p17
g2
sS'timestamp'
p18
cdatetime
datetime
p19
(S'\x07\xe1\x0c\x13\r$\r\r\x1bx'
p20
tp21
Rp22
sS'speed'
p23
g2
sS'cadence'
p24
g2
s.(dp0
S'blood_pressure'
p1
S'nd'
p2
sS'imu_head'
p3
(dp4
S'yaw'
p5
S' 0.25'
p6
sS'roll'
p7
S' 340.75'
p8
sS'pitch'
p9
S'-70.375 '
p10
ssS'heart_rate'
p11
I0
sS'imu_torso'
p12
(dp13
g5
S' -16.8125'
p14
sg7
S' 190.875\n'
p15
sg9
S'-105.5 '
p16
ssS'steplength'
p17
g2
sS'timestamp'
p18
cdatetime
datetime
p19
(S'\x07\xe1\x0c\x13\r$\r\r2\xe8'
p20
tp21
Rp22
sS'speed'
p23
g2
sS'cadence'
p24
g2
s.(dp0
S'blood_pressure'
p1
S'nd'
p2
sS'imu_head'
p3
(dp4
S'yaw'
p5
S' 0.25'
p6
sS'roll'
p7
S' 340.75'
p8
sS'pitch'
p9
S'-70.375 '
p10
ssS'heart_rate'
p11
I0
sS'imu_torso'
p12
(dp13
g5
S' -16.8125'
p14
sg7
S' 190.875\n'
p15
sg9
S'-105.5 '
p16
ssS'steplength'
p17
g2
sS'timestamp'
p18
cdatetime
datetime
p19
(S'\x07\xe1\x0c\x13\r$\r\r:\xb8'
p20
tp21
Rp22
sS'speed'
p23
g2
sS'cadence'
p24
g2
s.(dp0
S'blood_pressure'
p1
S'nd'
p2
sS'imu_head'
p3
(dp4
S'yaw'
p5
S' 0.25'
p6
sS'roll'
p7
S' 340.75'
p8
sS'pitch'
p9
S'-70.375 '
p10
ssS'heart_rate'
p11
I0
sS'imu_torso'
p12
(dp13
g5
S' -16.8125'
p14
sg7
S' 190.875\n'
p15
sg9
S'-105.5 '
p16
ssS'steplength'
p17
g2
sS'timestamp'
p18
cdatetime
datetime
p19
(S'\x07\xe1\x0c\x13\r$\r\rB\x88'
p20
tp21
Rp22
sS'speed'
p23
g2
sS'cadence'
p24
g2
s.(dp0
S'blood_pressure'
p1
S'nd'
p2
sS'imu_head'
p3
(dp4
S'yaw'
p5
S' 0.25'
p6
sS'roll'
p7
S' 340.75'
p8
sS'pitch'
p9
S'-70.375 '
p10
ssS'heart_rate'
p11
I0
sS'imu_torso'
p12
(dp13
g5
S' -16.8125'
p14
sg7
S' 190.875\n'
p15
sg9
S'-105.5 '
p16
ssS'steplength'
p17
g2
sS'timestamp'
p18
cdatetime
datetime
p19
(S'\x07\xe1\x0c\x13\r$\r\r]\xe0'
p20
tp21
Rp22
sS'speed'
p23
g2
sS'cadence'
p24
g2
s.(dp0
S'blood_pressure'
p1
S'nd'
p2
sS'imu_head'
p3
(dp4
S'yaw'
p5
S' 0.25'
p6
sS'roll'
p7
S' 340.75'
p8
sS'pitch'
p9
S'-70.375 '
p10
ssS'heart_rate'
p11
I0
sS'imu_torso'
p12
(dp13
g5
S' -16.8125'
p14
sg7
S' 190.875\n'
p15
sg9
S'-105.5 '
p16
ssS'steplength'
p17
g2
sS'timestamp'
p18
cdatetime
datetime
p19
(S'\x07\xe1\x0c\x13\r$\r\re\xb0'
p20
tp21
Rp22
sS'speed'
p23
g2
sS'cadence'
p24
g2
s.(dp0
S'blood_pressure'
p1
S'nd'
p2
sS'imu_head'
p3
(dp4
S'yaw'
p5
S' 0.25'
p6
sS'roll'
p7
S' 340.75'
p8
sS'pitch'
p9
S'-70.375 '
p10
ssS'heart_rate'
p11
I0
sS'imu_torso'
p12
(dp13
g5
S' -16.8125'
p14
sg7
S' 190.875\n'
p15
sg9
S'-105.5 '
p16
ssS'steplength'
p17
g2
sS'timestamp'
p18
cdatetime
datetime
p19
(S'\x07\xe1\x0c\x13\r$\r\rqh'
p20
tp21
Rp22
sS'speed'
p23
g2
sS'cadence'
p24
g2
s.(dp0
S'blood_pressure'
p1
S'nd'
p2
sS'imu_head'
p3
(dp4
S'yaw'
p5
S' 0.25'
p6
sS'roll'
p7
S' 340.75'
p8
sS'pitch'
p9
S'-70.375 '
p10
ssS'heart_rate'
p11
I0
sS'imu_torso'
p12
(dp13
g5
S' -16.8125'
p14
sg7
S' 190.875\n'
p15
sg9
S'-105.5 '
p16
ssS'steplength'
p17
g2
sS'timestamp'
p18
cdatetime
datetime
p19
(S'\x07\xe1\x0c\x13\r$\r\ruP'
p20
tp21
Rp22
sS'speed'
p23
g2
sS'cadence'
p24
g2
s.(dp0
S'blood_pressure'
p1
S'nd'
p2
sS'imu_head'
p3
(dp4
S'yaw'
p5
S' 0.25'
p6
sS'roll'
p7
S' 340.75'
p8
sS'pitch'
p9
S'-70.375 '
p10
ssS'heart_rate'
p11
I0
sS'imu_torso'
p12
(dp13
g5
S' -16.8125'
p14
sg7
S' 190.875\n'
p15
sg9
S'-105.5 '
p16
ssS'steplength'
p17
g2
sS'timestamp'
p18
cdatetime
datetime
p19
(S'\x07\xe1\x0c\x13\r$\r\r\x9c`'
p20
tp21
Rp22
sS'speed'
p23
g2
sS'cadence'
p24
g2
s.(dp0
S'blood_pressure'
p1
S'nd'
p2
sS'imu_head'
p3
(dp4
S'yaw'
p5
S' 0.25'
p6
sS'roll'
p7
S' 340.75'
p8
sS'pitch'
p9
S'-70.375 '
p10
ssS'heart_rate'
p11
I0
sS'imu_torso'
p12
(dp13
g5
S' -16.8125'
p14
sg7
S' 190.875\n'
p15
sg9
S'-105.5 '
p16
ssS'steplength'
p17
g2
sS'timestamp'
p18
cdatetime
datetime
p19
(S'\x07\xe1\x0c\x13\r$\r\r\xa40'
p20
tp21
Rp22
sS'speed'
p23
g2
sS'cadence'
p24
g2
s.(dp0
S'blood_pressure'
p1
S'nd'
p2
sS'imu_head'
p3
(dp4
S'yaw'
p5
S' 0.25'
p6
sS'roll'
p7
S' 340.75'
p8
sS'pitch'
p9
S'-70.375 '
p10
ssS'heart_rate'
p11
I0
sS'imu_torso'
p12
(dp13
g5
S' -16.8125'
p14
sg7
S' 190.875\n'
p15
sg9
S'-105.5 '
p16
ssS'steplength'
p17
g2
sS'timestamp'
p18
cdatetime
datetime
p19
(S'\x07\xe1\x0c\x13\r$\r\r\xac\x00'
p20
tp21
Rp22
sS'speed'
p23
g2
sS'cadence'
p24
g2
s.